
kzos:     file format elf32-littleriscv


Disassembly of section .text:

80000000 <_start>:
80000000:	00900117          	auipc	sp,0x900
80000004:	00010113          	mv	sp,sp
80000008:	28cd                	jal	800000fa <main>
8000000a:	0000006f          	j	8000000a <_start+0xa>

8000000e <dispatch>:
8000000e:	00052103          	lw	sp,0(a0)
80000012:	08412283          	lw	t0,132(sp) # 80900084 <bootstack+0x84>
80000016:	34129073          	csrw	mepc,t0
8000001a:	00412083          	lw	ra,4(sp)
8000001e:	00c12183          	lw	gp,12(sp)
80000022:	01012203          	lw	tp,16(sp)
80000026:	01412283          	lw	t0,20(sp)
8000002a:	01812303          	lw	t1,24(sp)
8000002e:	01c12383          	lw	t2,28(sp)
80000032:	02012403          	lw	s0,32(sp)
80000036:	02412483          	lw	s1,36(sp)
8000003a:	02812503          	lw	a0,40(sp)
8000003e:	02c12583          	lw	a1,44(sp)
80000042:	03012603          	lw	a2,48(sp)
80000046:	03412683          	lw	a3,52(sp)
8000004a:	03812703          	lw	a4,56(sp)
8000004e:	03c12783          	lw	a5,60(sp)
80000052:	04012803          	lw	a6,64(sp)
80000056:	04412883          	lw	a7,68(sp)
8000005a:	04812903          	lw	s2,72(sp)
8000005e:	04c12983          	lw	s3,76(sp)
80000062:	05012a03          	lw	s4,80(sp)
80000066:	05412a83          	lw	s5,84(sp)
8000006a:	05812b03          	lw	s6,88(sp)
8000006e:	05c12b83          	lw	s7,92(sp)
80000072:	06012c03          	lw	s8,96(sp)
80000076:	06412c83          	lw	s9,100(sp)
8000007a:	06812d03          	lw	s10,104(sp)
8000007e:	06c12d83          	lw	s11,108(sp)
80000082:	07012e03          	lw	t3,112(sp)
80000086:	07412e83          	lw	t4,116(sp)
8000008a:	07812f03          	lw	t5,120(sp)
8000008e:	07c12f83          	lw	t6,124(sp)
80000092:	08810113          	addi	sp,sp,136
80000096:	30200073          	mret

8000009a <start_threads>:
8000009a:	7179                	addi	sp,sp,-48
8000009c:	d606                	sw	ra,44(sp)
8000009e:	d422                	sw	s0,40(sp)
800000a0:	1800                	addi	s0,sp,48
800000a2:	fca42e23          	sw	a0,-36(s0)
800000a6:	fcb42c23          	sw	a1,-40(s0)
800000aa:	4781                	li	a5,0
800000ac:	4701                	li	a4,0
800000ae:	20000693          	li	a3,512
800000b2:	4605                	li	a2,1
800000b4:	00003597          	auipc	a1,0x3
800000b8:	12858593          	addi	a1,a1,296 # 800031dc <rodata_start>
800000bc:	00002517          	auipc	a0,0x2
800000c0:	07a50513          	addi	a0,a0,122 # 80002136 <consdrv_main>
800000c4:	7c8010ef          	jal	ra,8000188c <kz_run>
800000c8:	4781                	li	a5,0
800000ca:	4701                	li	a4,0
800000cc:	20000693          	li	a3,512
800000d0:	4621                	li	a2,8
800000d2:	00003597          	auipc	a1,0x3
800000d6:	11258593          	addi	a1,a1,274 # 800031e4 <rodata_start+0x8>
800000da:	00002517          	auipc	a0,0x2
800000de:	1b250513          	addi	a0,a0,434 # 8000228c <command_main>
800000e2:	7aa010ef          	jal	ra,8000188c <kz_run>
800000e6:	453d                	li	a0,15
800000e8:	0b1010ef          	jal	ra,80001998 <kz_chpri>
800000ec:	300467f3          	csrrsi	a5,mstatus,8
800000f0:	fef42623          	sw	a5,-20(s0)
800000f4:	10500073          	wfi
800000f8:	bff5                	j	800000f4 <start_threads+0x5a>

800000fa <main>:
800000fa:	1101                	addi	sp,sp,-32
800000fc:	ce06                	sw	ra,28(sp)
800000fe:	cc22                	sw	s0,24(sp)
80000100:	1000                	addi	s0,sp,32
80000102:	300477f3          	csrrci	a5,mstatus,8
80000106:	fef42623          	sw	a5,-20(s0)
8000010a:	304467f3          	csrrsi	a5,mie,8
8000010e:	fef42423          	sw	a5,-24(s0)
80000112:	08000793          	li	a5,128
80000116:	3047b7f3          	csrrc	a5,mie,a5
8000011a:	fef42223          	sw	a5,-28(s0)
8000011e:	6785                	lui	a5,0x1
80000120:	80078793          	addi	a5,a5,-2048 # 800 <REGBYTES+0x7fc>
80000124:	3047a7f3          	csrrs	a5,mie,a5
80000128:	fef42023          	sw	a5,-32(s0)
8000012c:	4781                	li	a5,0
8000012e:	4701                	li	a4,0
80000130:	10000693          	li	a3,256
80000134:	4601                	li	a2,0
80000136:	00003597          	auipc	a1,0x3
8000013a:	0b658593          	addi	a1,a1,182 # 800031ec <rodata_start+0x10>
8000013e:	00000517          	auipc	a0,0x0
80000142:	f5c50513          	addi	a0,a0,-164 # 8000009a <start_threads>
80000146:	60a010ef          	jal	ra,80001750 <kz_start>
8000014a:	4781                	li	a5,0
8000014c:	853e                	mv	a0,a5
8000014e:	40f2                	lw	ra,28(sp)
80000150:	4462                	lw	s0,24(sp)
80000152:	6105                	addi	sp,sp,32
80000154:	8082                	ret

80000156 <mtvec_init>:
80000156:	1141                	addi	sp,sp,-16
80000158:	c622                	sw	s0,12(sp)
8000015a:	0800                	addi	s0,sp,16
8000015c:	00002797          	auipc	a5,0x2
80000160:	2a478793          	addi	a5,a5,676 # 80002400 <vtrap_entry>
80000164:	0017e793          	ori	a5,a5,1
80000168:	30579073          	csrw	mtvec,a5
8000016c:	4781                	li	a5,0
8000016e:	853e                	mv	a0,a5
80000170:	4432                	lw	s0,12(sp)
80000172:	0141                	addi	sp,sp,16
80000174:	8082                	ret

80000176 <serial_init>:
80000176:	7179                	addi	sp,sp,-48
80000178:	d622                	sw	s0,44(sp)
8000017a:	1800                	addi	s0,sp,48
8000017c:	fca42e23          	sw	a0,-36(s0)
80000180:	00003717          	auipc	a4,0x3
80000184:	13870713          	addi	a4,a4,312 # 800032b8 <edata>
80000188:	fdc42783          	lw	a5,-36(s0)
8000018c:	078a                	slli	a5,a5,0x2
8000018e:	97ba                	add	a5,a5,a4
80000190:	439c                	lw	a5,0(a5)
80000192:	fef42623          	sw	a5,-20(s0)
80000196:	fdc42783          	lw	a5,-36(s0)
8000019a:	c399                	beqz	a5,800001a0 <serial_init+0x2a>
8000019c:	4785                	li	a5,1
8000019e:	a841                	j	8000022e <serial_init+0xb8>
800001a0:	100127b7          	lui	a5,0x10012
800001a4:	03c78793          	addi	a5,a5,60 # 1001203c <REGBYTES+0x10012038>
800001a8:	4394                	lw	a3,0(a5)
800001aa:	100127b7          	lui	a5,0x10012
800001ae:	03c78793          	addi	a5,a5,60 # 1001203c <REGBYTES+0x10012038>
800001b2:	fffd0737          	lui	a4,0xfffd0
800001b6:	177d                	addi	a4,a4,-1
800001b8:	8f75                	and	a4,a4,a3
800001ba:	c398                	sw	a4,0(a5)
800001bc:	100127b7          	lui	a5,0x10012
800001c0:	03878793          	addi	a5,a5,56 # 10012038 <REGBYTES+0x10012034>
800001c4:	4394                	lw	a3,0(a5)
800001c6:	100127b7          	lui	a5,0x10012
800001ca:	03878793          	addi	a5,a5,56 # 10012038 <REGBYTES+0x10012034>
800001ce:	00030737          	lui	a4,0x30
800001d2:	8f55                	or	a4,a4,a3
800001d4:	c398                	sw	a4,0(a5)
800001d6:	0c0007b7          	lui	a5,0xc000
800001da:	07b1                	addi	a5,a5,12
800001dc:	4705                	li	a4,1
800001de:	c398                	sw	a4,0(a5)
800001e0:	0c0027b7          	lui	a5,0xc002
800001e4:	4398                	lw	a4,0(a5)
800001e6:	0c0027b7          	lui	a5,0xc002
800001ea:	00876713          	ori	a4,a4,8
800001ee:	c398                	sw	a4,0(a5)
800001f0:	fec42783          	lw	a5,-20(s0)
800001f4:	6705                	lui	a4,0x1
800001f6:	d3870713          	addi	a4,a4,-712 # d38 <REGBYTES+0xd34>
800001fa:	cf98                	sw	a4,24(a5)
800001fc:	fec42783          	lw	a5,-20(s0)
80000200:	6741                	lui	a4,0x10
80000202:	c798                	sw	a4,8(a5)
80000204:	fec42783          	lw	a5,-20(s0)
80000208:	479c                	lw	a5,8(a5)
8000020a:	0017e713          	ori	a4,a5,1
8000020e:	fec42783          	lw	a5,-20(s0)
80000212:	c798                	sw	a4,8(a5)
80000214:	fec42783          	lw	a5,-20(s0)
80000218:	0007a623          	sw	zero,12(a5) # c00200c <REGBYTES+0xc002008>
8000021c:	fec42783          	lw	a5,-20(s0)
80000220:	47dc                	lw	a5,12(a5)
80000222:	0017e713          	ori	a4,a5,1
80000226:	fec42783          	lw	a5,-20(s0)
8000022a:	c7d8                	sw	a4,12(a5)
8000022c:	4781                	li	a5,0
8000022e:	853e                	mv	a0,a5
80000230:	5432                	lw	s0,44(sp)
80000232:	6145                	addi	sp,sp,48
80000234:	8082                	ret

80000236 <serial_is_send_enable>:
80000236:	7179                	addi	sp,sp,-48
80000238:	d622                	sw	s0,44(sp)
8000023a:	1800                	addi	s0,sp,48
8000023c:	fca42e23          	sw	a0,-36(s0)
80000240:	00003717          	auipc	a4,0x3
80000244:	07870713          	addi	a4,a4,120 # 800032b8 <edata>
80000248:	fdc42783          	lw	a5,-36(s0)
8000024c:	078a                	slli	a5,a5,0x2
8000024e:	97ba                	add	a5,a5,a4
80000250:	439c                	lw	a5,0(a5)
80000252:	fef42623          	sw	a5,-20(s0)
80000256:	fec42783          	lw	a5,-20(s0)
8000025a:	439c                	lw	a5,0(a5)
8000025c:	fff7c793          	not	a5,a5
80000260:	83fd                	srli	a5,a5,0x1f
80000262:	0ff7f793          	andi	a5,a5,255
80000266:	853e                	mv	a0,a5
80000268:	5432                	lw	s0,44(sp)
8000026a:	6145                	addi	sp,sp,48
8000026c:	8082                	ret

8000026e <serial_send_byte>:
8000026e:	7179                	addi	sp,sp,-48
80000270:	d606                	sw	ra,44(sp)
80000272:	d422                	sw	s0,40(sp)
80000274:	1800                	addi	s0,sp,48
80000276:	fca42e23          	sw	a0,-36(s0)
8000027a:	87ae                	mv	a5,a1
8000027c:	fcf40da3          	sb	a5,-37(s0)
80000280:	00003717          	auipc	a4,0x3
80000284:	03870713          	addi	a4,a4,56 # 800032b8 <edata>
80000288:	fdc42783          	lw	a5,-36(s0)
8000028c:	078a                	slli	a5,a5,0x2
8000028e:	97ba                	add	a5,a5,a4
80000290:	439c                	lw	a5,0(a5)
80000292:	fef42623          	sw	a5,-20(s0)
80000296:	0001                	nop
80000298:	fdc42503          	lw	a0,-36(s0)
8000029c:	3f69                	jal	80000236 <serial_is_send_enable>
8000029e:	87aa                	mv	a5,a0
800002a0:	dfe5                	beqz	a5,80000298 <serial_send_byte+0x2a>
800002a2:	fdb44703          	lbu	a4,-37(s0)
800002a6:	fec42783          	lw	a5,-20(s0)
800002aa:	c398                	sw	a4,0(a5)
800002ac:	4781                	li	a5,0
800002ae:	853e                	mv	a0,a5
800002b0:	50b2                	lw	ra,44(sp)
800002b2:	5422                	lw	s0,40(sp)
800002b4:	6145                	addi	sp,sp,48
800002b6:	8082                	ret

800002b8 <serial_is_recv_enable>:
800002b8:	7179                	addi	sp,sp,-48
800002ba:	d622                	sw	s0,44(sp)
800002bc:	1800                	addi	s0,sp,48
800002be:	fca42e23          	sw	a0,-36(s0)
800002c2:	00003717          	auipc	a4,0x3
800002c6:	ff670713          	addi	a4,a4,-10 # 800032b8 <edata>
800002ca:	fdc42783          	lw	a5,-36(s0)
800002ce:	078a                	slli	a5,a5,0x2
800002d0:	97ba                	add	a5,a5,a4
800002d2:	439c                	lw	a5,0(a5)
800002d4:	fef42623          	sw	a5,-20(s0)
800002d8:	00003797          	auipc	a5,0x3
800002dc:	fe478793          	addi	a5,a5,-28 # 800032bc <received_val>
800002e0:	439c                	lw	a5,0(a5)
800002e2:	00f05463          	blez	a5,800002ea <serial_is_recv_enable+0x32>
800002e6:	4785                	li	a5,1
800002e8:	a025                	j	80000310 <serial_is_recv_enable+0x58>
800002ea:	fec42783          	lw	a5,-20(s0)
800002ee:	43dc                	lw	a5,4(a5)
800002f0:	fef42423          	sw	a5,-24(s0)
800002f4:	fe842783          	lw	a5,-24(s0)
800002f8:	0007cb63          	bltz	a5,8000030e <serial_is_recv_enable+0x56>
800002fc:	00003797          	auipc	a5,0x3
80000300:	fc078793          	addi	a5,a5,-64 # 800032bc <received_val>
80000304:	fe842703          	lw	a4,-24(s0)
80000308:	c398                	sw	a4,0(a5)
8000030a:	4785                	li	a5,1
8000030c:	a011                	j	80000310 <serial_is_recv_enable+0x58>
8000030e:	4781                	li	a5,0
80000310:	853e                	mv	a0,a5
80000312:	5432                	lw	s0,44(sp)
80000314:	6145                	addi	sp,sp,48
80000316:	8082                	ret

80000318 <serial_recv_byte>:
80000318:	7179                	addi	sp,sp,-48
8000031a:	d606                	sw	ra,44(sp)
8000031c:	d422                	sw	s0,40(sp)
8000031e:	1800                	addi	s0,sp,48
80000320:	fca42e23          	sw	a0,-36(s0)
80000324:	0001                	nop
80000326:	fdc42503          	lw	a0,-36(s0)
8000032a:	3779                	jal	800002b8 <serial_is_recv_enable>
8000032c:	87aa                	mv	a5,a0
8000032e:	dfe5                	beqz	a5,80000326 <serial_recv_byte+0xe>
80000330:	00003797          	auipc	a5,0x3
80000334:	f8c78793          	addi	a5,a5,-116 # 800032bc <received_val>
80000338:	439c                	lw	a5,0(a5)
8000033a:	fef407a3          	sb	a5,-17(s0)
8000033e:	00003797          	auipc	a5,0x3
80000342:	f7e78793          	addi	a5,a5,-130 # 800032bc <received_val>
80000346:	577d                	li	a4,-1
80000348:	c398                	sw	a4,0(a5)
8000034a:	fef44783          	lbu	a5,-17(s0)
8000034e:	853e                	mv	a0,a5
80000350:	50b2                	lw	ra,44(sp)
80000352:	5422                	lw	s0,40(sp)
80000354:	6145                	addi	sp,sp,48
80000356:	8082                	ret

80000358 <serial_intr_is_send_enable>:
80000358:	7179                	addi	sp,sp,-48
8000035a:	d622                	sw	s0,44(sp)
8000035c:	1800                	addi	s0,sp,48
8000035e:	fca42e23          	sw	a0,-36(s0)
80000362:	00003717          	auipc	a4,0x3
80000366:	f5670713          	addi	a4,a4,-170 # 800032b8 <edata>
8000036a:	fdc42783          	lw	a5,-36(s0)
8000036e:	078a                	slli	a5,a5,0x2
80000370:	97ba                	add	a5,a5,a4
80000372:	439c                	lw	a5,0(a5)
80000374:	fef42623          	sw	a5,-20(s0)
80000378:	fec42783          	lw	a5,-20(s0)
8000037c:	4b9c                	lw	a5,16(a5)
8000037e:	8b85                	andi	a5,a5,1
80000380:	00f037b3          	snez	a5,a5
80000384:	0ff7f793          	andi	a5,a5,255
80000388:	853e                	mv	a0,a5
8000038a:	5432                	lw	s0,44(sp)
8000038c:	6145                	addi	sp,sp,48
8000038e:	8082                	ret

80000390 <serial_intr_send_enable>:
80000390:	7179                	addi	sp,sp,-48
80000392:	d622                	sw	s0,44(sp)
80000394:	1800                	addi	s0,sp,48
80000396:	fca42e23          	sw	a0,-36(s0)
8000039a:	00003717          	auipc	a4,0x3
8000039e:	f1e70713          	addi	a4,a4,-226 # 800032b8 <edata>
800003a2:	fdc42783          	lw	a5,-36(s0)
800003a6:	078a                	slli	a5,a5,0x2
800003a8:	97ba                	add	a5,a5,a4
800003aa:	439c                	lw	a5,0(a5)
800003ac:	fef42623          	sw	a5,-20(s0)
800003b0:	fec42783          	lw	a5,-20(s0)
800003b4:	4b9c                	lw	a5,16(a5)
800003b6:	0017e713          	ori	a4,a5,1
800003ba:	fec42783          	lw	a5,-20(s0)
800003be:	cb98                	sw	a4,16(a5)
800003c0:	0001                	nop
800003c2:	5432                	lw	s0,44(sp)
800003c4:	6145                	addi	sp,sp,48
800003c6:	8082                	ret

800003c8 <serial_intr_send_disable>:
800003c8:	7179                	addi	sp,sp,-48
800003ca:	d622                	sw	s0,44(sp)
800003cc:	1800                	addi	s0,sp,48
800003ce:	fca42e23          	sw	a0,-36(s0)
800003d2:	00003717          	auipc	a4,0x3
800003d6:	ee670713          	addi	a4,a4,-282 # 800032b8 <edata>
800003da:	fdc42783          	lw	a5,-36(s0)
800003de:	078a                	slli	a5,a5,0x2
800003e0:	97ba                	add	a5,a5,a4
800003e2:	439c                	lw	a5,0(a5)
800003e4:	fef42623          	sw	a5,-20(s0)
800003e8:	fec42783          	lw	a5,-20(s0)
800003ec:	4b9c                	lw	a5,16(a5)
800003ee:	ffe7f713          	andi	a4,a5,-2
800003f2:	fec42783          	lw	a5,-20(s0)
800003f6:	cb98                	sw	a4,16(a5)
800003f8:	0001                	nop
800003fa:	5432                	lw	s0,44(sp)
800003fc:	6145                	addi	sp,sp,48
800003fe:	8082                	ret

80000400 <serial_intr_is_recv_enable>:
80000400:	7179                	addi	sp,sp,-48
80000402:	d622                	sw	s0,44(sp)
80000404:	1800                	addi	s0,sp,48
80000406:	fca42e23          	sw	a0,-36(s0)
8000040a:	00003717          	auipc	a4,0x3
8000040e:	eae70713          	addi	a4,a4,-338 # 800032b8 <edata>
80000412:	fdc42783          	lw	a5,-36(s0)
80000416:	078a                	slli	a5,a5,0x2
80000418:	97ba                	add	a5,a5,a4
8000041a:	439c                	lw	a5,0(a5)
8000041c:	fef42623          	sw	a5,-20(s0)
80000420:	fec42783          	lw	a5,-20(s0)
80000424:	4b9c                	lw	a5,16(a5)
80000426:	8b89                	andi	a5,a5,2
80000428:	00f037b3          	snez	a5,a5
8000042c:	0ff7f793          	andi	a5,a5,255
80000430:	853e                	mv	a0,a5
80000432:	5432                	lw	s0,44(sp)
80000434:	6145                	addi	sp,sp,48
80000436:	8082                	ret

80000438 <serial_intr_recv_enable>:
80000438:	7179                	addi	sp,sp,-48
8000043a:	d622                	sw	s0,44(sp)
8000043c:	1800                	addi	s0,sp,48
8000043e:	fca42e23          	sw	a0,-36(s0)
80000442:	00003717          	auipc	a4,0x3
80000446:	e7670713          	addi	a4,a4,-394 # 800032b8 <edata>
8000044a:	fdc42783          	lw	a5,-36(s0)
8000044e:	078a                	slli	a5,a5,0x2
80000450:	97ba                	add	a5,a5,a4
80000452:	439c                	lw	a5,0(a5)
80000454:	fef42623          	sw	a5,-20(s0)
80000458:	fec42783          	lw	a5,-20(s0)
8000045c:	4b9c                	lw	a5,16(a5)
8000045e:	0027e713          	ori	a4,a5,2
80000462:	fec42783          	lw	a5,-20(s0)
80000466:	cb98                	sw	a4,16(a5)
80000468:	0001                	nop
8000046a:	5432                	lw	s0,44(sp)
8000046c:	6145                	addi	sp,sp,48
8000046e:	8082                	ret

80000470 <serial_intr_recv_disable>:
80000470:	7179                	addi	sp,sp,-48
80000472:	d622                	sw	s0,44(sp)
80000474:	1800                	addi	s0,sp,48
80000476:	fca42e23          	sw	a0,-36(s0)
8000047a:	00003717          	auipc	a4,0x3
8000047e:	e3e70713          	addi	a4,a4,-450 # 800032b8 <edata>
80000482:	fdc42783          	lw	a5,-36(s0)
80000486:	078a                	slli	a5,a5,0x2
80000488:	97ba                	add	a5,a5,a4
8000048a:	439c                	lw	a5,0(a5)
8000048c:	fef42623          	sw	a5,-20(s0)
80000490:	fec42783          	lw	a5,-20(s0)
80000494:	4b9c                	lw	a5,16(a5)
80000496:	ffd7f713          	andi	a4,a5,-3
8000049a:	fec42783          	lw	a5,-20(s0)
8000049e:	cb98                	sw	a4,16(a5)
800004a0:	0001                	nop
800004a2:	5432                	lw	s0,44(sp)
800004a4:	6145                	addi	sp,sp,48
800004a6:	8082                	ret

800004a8 <memset>:
800004a8:	7179                	addi	sp,sp,-48
800004aa:	d622                	sw	s0,44(sp)
800004ac:	1800                	addi	s0,sp,48
800004ae:	fca42e23          	sw	a0,-36(s0)
800004b2:	fcb42c23          	sw	a1,-40(s0)
800004b6:	fcc42a23          	sw	a2,-44(s0)
800004ba:	fdc42783          	lw	a5,-36(s0)
800004be:	fef42623          	sw	a5,-20(s0)
800004c2:	a015                	j	800004e6 <memset+0x3e>
800004c4:	fec42783          	lw	a5,-20(s0)
800004c8:	00178713          	addi	a4,a5,1
800004cc:	fee42623          	sw	a4,-20(s0)
800004d0:	fd842703          	lw	a4,-40(s0)
800004d4:	0ff77713          	andi	a4,a4,255
800004d8:	00e78023          	sb	a4,0(a5)
800004dc:	fd442783          	lw	a5,-44(s0)
800004e0:	17fd                	addi	a5,a5,-1
800004e2:	fcf42a23          	sw	a5,-44(s0)
800004e6:	fd442783          	lw	a5,-44(s0)
800004ea:	fcf04de3          	bgtz	a5,800004c4 <memset+0x1c>
800004ee:	fdc42783          	lw	a5,-36(s0)
800004f2:	853e                	mv	a0,a5
800004f4:	5432                	lw	s0,44(sp)
800004f6:	6145                	addi	sp,sp,48
800004f8:	8082                	ret

800004fa <memcpy>:
800004fa:	7179                	addi	sp,sp,-48
800004fc:	d622                	sw	s0,44(sp)
800004fe:	1800                	addi	s0,sp,48
80000500:	fca42e23          	sw	a0,-36(s0)
80000504:	fcb42c23          	sw	a1,-40(s0)
80000508:	fcc42a23          	sw	a2,-44(s0)
8000050c:	fdc42783          	lw	a5,-36(s0)
80000510:	fef42623          	sw	a5,-20(s0)
80000514:	fd842783          	lw	a5,-40(s0)
80000518:	fef42423          	sw	a5,-24(s0)
8000051c:	a035                	j	80000548 <memcpy+0x4e>
8000051e:	fe842703          	lw	a4,-24(s0)
80000522:	00170793          	addi	a5,a4,1
80000526:	fef42423          	sw	a5,-24(s0)
8000052a:	fec42783          	lw	a5,-20(s0)
8000052e:	00178693          	addi	a3,a5,1
80000532:	fed42623          	sw	a3,-20(s0)
80000536:	00074703          	lbu	a4,0(a4)
8000053a:	00e78023          	sb	a4,0(a5)
8000053e:	fd442783          	lw	a5,-44(s0)
80000542:	17fd                	addi	a5,a5,-1
80000544:	fcf42a23          	sw	a5,-44(s0)
80000548:	fd442783          	lw	a5,-44(s0)
8000054c:	fcf049e3          	bgtz	a5,8000051e <memcpy+0x24>
80000550:	fdc42783          	lw	a5,-36(s0)
80000554:	853e                	mv	a0,a5
80000556:	5432                	lw	s0,44(sp)
80000558:	6145                	addi	sp,sp,48
8000055a:	8082                	ret

8000055c <memcmp>:
8000055c:	7179                	addi	sp,sp,-48
8000055e:	d622                	sw	s0,44(sp)
80000560:	1800                	addi	s0,sp,48
80000562:	fca42e23          	sw	a0,-36(s0)
80000566:	fcb42c23          	sw	a1,-40(s0)
8000056a:	fcc42a23          	sw	a2,-44(s0)
8000056e:	fdc42783          	lw	a5,-36(s0)
80000572:	fef42623          	sw	a5,-20(s0)
80000576:	fd842783          	lw	a5,-40(s0)
8000057a:	fef42423          	sw	a5,-24(s0)
8000057e:	a881                	j	800005ce <memcmp+0x72>
80000580:	fec42783          	lw	a5,-20(s0)
80000584:	0007c703          	lbu	a4,0(a5)
80000588:	fe842783          	lw	a5,-24(s0)
8000058c:	0007c783          	lbu	a5,0(a5)
80000590:	02f70063          	beq	a4,a5,800005b0 <memcmp+0x54>
80000594:	fec42783          	lw	a5,-20(s0)
80000598:	0007c703          	lbu	a4,0(a5)
8000059c:	fe842783          	lw	a5,-24(s0)
800005a0:	0007c783          	lbu	a5,0(a5)
800005a4:	00e7f463          	bgeu	a5,a4,800005ac <memcmp+0x50>
800005a8:	4785                	li	a5,1
800005aa:	a03d                	j	800005d8 <memcmp+0x7c>
800005ac:	57fd                	li	a5,-1
800005ae:	a02d                	j	800005d8 <memcmp+0x7c>
800005b0:	fec42783          	lw	a5,-20(s0)
800005b4:	0785                	addi	a5,a5,1
800005b6:	fef42623          	sw	a5,-20(s0)
800005ba:	fe842783          	lw	a5,-24(s0)
800005be:	0785                	addi	a5,a5,1
800005c0:	fef42423          	sw	a5,-24(s0)
800005c4:	fd442783          	lw	a5,-44(s0)
800005c8:	17fd                	addi	a5,a5,-1
800005ca:	fcf42a23          	sw	a5,-44(s0)
800005ce:	fd442783          	lw	a5,-44(s0)
800005d2:	faf047e3          	bgtz	a5,80000580 <memcmp+0x24>
800005d6:	4781                	li	a5,0
800005d8:	853e                	mv	a0,a5
800005da:	5432                	lw	s0,44(sp)
800005dc:	6145                	addi	sp,sp,48
800005de:	8082                	ret

800005e0 <strlen>:
800005e0:	7179                	addi	sp,sp,-48
800005e2:	d622                	sw	s0,44(sp)
800005e4:	1800                	addi	s0,sp,48
800005e6:	fca42e23          	sw	a0,-36(s0)
800005ea:	fe042623          	sw	zero,-20(s0)
800005ee:	a819                	j	80000604 <strlen+0x24>
800005f0:	fdc42783          	lw	a5,-36(s0)
800005f4:	0785                	addi	a5,a5,1
800005f6:	fcf42e23          	sw	a5,-36(s0)
800005fa:	fec42783          	lw	a5,-20(s0)
800005fe:	0785                	addi	a5,a5,1
80000600:	fef42623          	sw	a5,-20(s0)
80000604:	fdc42783          	lw	a5,-36(s0)
80000608:	0007c783          	lbu	a5,0(a5)
8000060c:	f3f5                	bnez	a5,800005f0 <strlen+0x10>
8000060e:	fec42783          	lw	a5,-20(s0)
80000612:	853e                	mv	a0,a5
80000614:	5432                	lw	s0,44(sp)
80000616:	6145                	addi	sp,sp,48
80000618:	8082                	ret

8000061a <strcpy>:
8000061a:	7179                	addi	sp,sp,-48
8000061c:	d622                	sw	s0,44(sp)
8000061e:	1800                	addi	s0,sp,48
80000620:	fca42e23          	sw	a0,-36(s0)
80000624:	fcb42c23          	sw	a1,-40(s0)
80000628:	fdc42783          	lw	a5,-36(s0)
8000062c:	fef42623          	sw	a5,-20(s0)
80000630:	fd842783          	lw	a5,-40(s0)
80000634:	0007c703          	lbu	a4,0(a5)
80000638:	fdc42783          	lw	a5,-36(s0)
8000063c:	00e78023          	sb	a4,0(a5)
80000640:	fd842783          	lw	a5,-40(s0)
80000644:	0007c783          	lbu	a5,0(a5)
80000648:	cf81                	beqz	a5,80000660 <strcpy+0x46>
8000064a:	fdc42783          	lw	a5,-36(s0)
8000064e:	0785                	addi	a5,a5,1
80000650:	fcf42e23          	sw	a5,-36(s0)
80000654:	fd842783          	lw	a5,-40(s0)
80000658:	0785                	addi	a5,a5,1
8000065a:	fcf42c23          	sw	a5,-40(s0)
8000065e:	bfc9                	j	80000630 <strcpy+0x16>
80000660:	0001                	nop
80000662:	fec42783          	lw	a5,-20(s0)
80000666:	853e                	mv	a0,a5
80000668:	5432                	lw	s0,44(sp)
8000066a:	6145                	addi	sp,sp,48
8000066c:	8082                	ret

8000066e <strcmp>:
8000066e:	1101                	addi	sp,sp,-32
80000670:	ce22                	sw	s0,28(sp)
80000672:	1000                	addi	s0,sp,32
80000674:	fea42623          	sw	a0,-20(s0)
80000678:	feb42423          	sw	a1,-24(s0)
8000067c:	a099                	j	800006c2 <strcmp+0x54>
8000067e:	fec42783          	lw	a5,-20(s0)
80000682:	0007c703          	lbu	a4,0(a5)
80000686:	fe842783          	lw	a5,-24(s0)
8000068a:	0007c783          	lbu	a5,0(a5)
8000068e:	02f70063          	beq	a4,a5,800006ae <strcmp+0x40>
80000692:	fec42783          	lw	a5,-20(s0)
80000696:	0007c703          	lbu	a4,0(a5)
8000069a:	fe842783          	lw	a5,-24(s0)
8000069e:	0007c783          	lbu	a5,0(a5)
800006a2:	00e7f463          	bgeu	a5,a4,800006aa <strcmp+0x3c>
800006a6:	4785                	li	a5,1
800006a8:	a805                	j	800006d8 <strcmp+0x6a>
800006aa:	57fd                	li	a5,-1
800006ac:	a035                	j	800006d8 <strcmp+0x6a>
800006ae:	fec42783          	lw	a5,-20(s0)
800006b2:	0785                	addi	a5,a5,1
800006b4:	fef42623          	sw	a5,-20(s0)
800006b8:	fe842783          	lw	a5,-24(s0)
800006bc:	0785                	addi	a5,a5,1
800006be:	fef42423          	sw	a5,-24(s0)
800006c2:	fec42783          	lw	a5,-20(s0)
800006c6:	0007c783          	lbu	a5,0(a5)
800006ca:	fbd5                	bnez	a5,8000067e <strcmp+0x10>
800006cc:	fe842783          	lw	a5,-24(s0)
800006d0:	0007c783          	lbu	a5,0(a5)
800006d4:	f7cd                	bnez	a5,8000067e <strcmp+0x10>
800006d6:	4781                	li	a5,0
800006d8:	853e                	mv	a0,a5
800006da:	4472                	lw	s0,28(sp)
800006dc:	6105                	addi	sp,sp,32
800006de:	8082                	ret

800006e0 <strncmp>:
800006e0:	1101                	addi	sp,sp,-32
800006e2:	ce22                	sw	s0,28(sp)
800006e4:	1000                	addi	s0,sp,32
800006e6:	fea42623          	sw	a0,-20(s0)
800006ea:	feb42423          	sw	a1,-24(s0)
800006ee:	fec42223          	sw	a2,-28(s0)
800006f2:	a881                	j	80000742 <strncmp+0x62>
800006f4:	fec42783          	lw	a5,-20(s0)
800006f8:	0007c703          	lbu	a4,0(a5)
800006fc:	fe842783          	lw	a5,-24(s0)
80000700:	0007c783          	lbu	a5,0(a5)
80000704:	02f70063          	beq	a4,a5,80000724 <strncmp+0x44>
80000708:	fec42783          	lw	a5,-20(s0)
8000070c:	0007c703          	lbu	a4,0(a5)
80000710:	fe842783          	lw	a5,-24(s0)
80000714:	0007c783          	lbu	a5,0(a5)
80000718:	00e7f463          	bgeu	a5,a4,80000720 <strncmp+0x40>
8000071c:	4785                	li	a5,1
8000071e:	a089                	j	80000760 <strncmp+0x80>
80000720:	57fd                	li	a5,-1
80000722:	a83d                	j	80000760 <strncmp+0x80>
80000724:	fec42783          	lw	a5,-20(s0)
80000728:	0785                	addi	a5,a5,1
8000072a:	fef42623          	sw	a5,-20(s0)
8000072e:	fe842783          	lw	a5,-24(s0)
80000732:	0785                	addi	a5,a5,1
80000734:	fef42423          	sw	a5,-24(s0)
80000738:	fe442783          	lw	a5,-28(s0)
8000073c:	17fd                	addi	a5,a5,-1
8000073e:	fef42223          	sw	a5,-28(s0)
80000742:	fec42783          	lw	a5,-20(s0)
80000746:	0007c783          	lbu	a5,0(a5)
8000074a:	e791                	bnez	a5,80000756 <strncmp+0x76>
8000074c:	fe842783          	lw	a5,-24(s0)
80000750:	0007c783          	lbu	a5,0(a5)
80000754:	c789                	beqz	a5,8000075e <strncmp+0x7e>
80000756:	fe442783          	lw	a5,-28(s0)
8000075a:	f8f04de3          	bgtz	a5,800006f4 <strncmp+0x14>
8000075e:	4781                	li	a5,0
80000760:	853e                	mv	a0,a5
80000762:	4472                	lw	s0,28(sp)
80000764:	6105                	addi	sp,sp,32
80000766:	8082                	ret

80000768 <zeroExtend>:
80000768:	7179                	addi	sp,sp,-48
8000076a:	d622                	sw	s0,44(sp)
8000076c:	1800                	addi	s0,sp,48
8000076e:	fca42e23          	sw	a0,-36(s0)
80000772:	fdc42783          	lw	a5,-36(s0)
80000776:	fef42423          	sw	a5,-24(s0)
8000077a:	87fd                	srai	a5,a5,0x1f
8000077c:	fef42623          	sw	a5,-20(s0)
80000780:	fdc42783          	lw	a5,-36(s0)
80000784:	fef42423          	sw	a5,-24(s0)
80000788:	fe042623          	sw	zero,-20(s0)
8000078c:	fe842783          	lw	a5,-24(s0)
80000790:	fec42803          	lw	a6,-20(s0)
80000794:	853e                	mv	a0,a5
80000796:	85c2                	mv	a1,a6
80000798:	5432                	lw	s0,44(sp)
8000079a:	6145                	addi	sp,sp,48
8000079c:	8082                	ret

8000079e <prvSyscallToHost>:
8000079e:	7135                	addi	sp,sp,-160
800007a0:	cf06                	sw	ra,156(sp)
800007a2:	cd22                	sw	s0,152(sp)
800007a4:	cb26                	sw	s1,148(sp)
800007a6:	1100                	addi	s0,sp,160
800007a8:	f6a42623          	sw	a0,-148(s0)
800007ac:	f6b42423          	sw	a1,-152(s0)
800007b0:	f6c42223          	sw	a2,-156(s0)
800007b4:	f6d42023          	sw	a3,-160(s0)
800007b8:	ff040793          	addi	a5,s0,-16
800007bc:	f8078793          	addi	a5,a5,-128
800007c0:	03f78793          	addi	a5,a5,63
800007c4:	8399                	srli	a5,a5,0x6
800007c6:	00679493          	slli	s1,a5,0x6
800007ca:	f6c42503          	lw	a0,-148(s0)
800007ce:	3f69                	jal	80000768 <zeroExtend>
800007d0:	87aa                	mv	a5,a0
800007d2:	882e                	mv	a6,a1
800007d4:	c09c                	sw	a5,0(s1)
800007d6:	0104a223          	sw	a6,4(s1)
800007da:	f6842503          	lw	a0,-152(s0)
800007de:	3769                	jal	80000768 <zeroExtend>
800007e0:	87aa                	mv	a5,a0
800007e2:	882e                	mv	a6,a1
800007e4:	c49c                	sw	a5,8(s1)
800007e6:	0104a623          	sw	a6,12(s1)
800007ea:	f6442503          	lw	a0,-156(s0)
800007ee:	3fad                	jal	80000768 <zeroExtend>
800007f0:	87aa                	mv	a5,a0
800007f2:	882e                	mv	a6,a1
800007f4:	c89c                	sw	a5,16(s1)
800007f6:	0104aa23          	sw	a6,20(s1)
800007fa:	f6042503          	lw	a0,-160(s0)
800007fe:	37ad                	jal	80000768 <zeroExtend>
80000800:	87aa                	mv	a5,a0
80000802:	882e                	mv	a6,a1
80000804:	cc9c                	sw	a5,24(s1)
80000806:	0104ae23          	sw	a6,28(s1)
8000080a:	0ff0000f          	fence
8000080e:	87a6                	mv	a5,s1
80000810:	853e                	mv	a0,a5
80000812:	3f99                	jal	80000768 <zeroExtend>
80000814:	87aa                	mv	a5,a0
80000816:	882e                	mv	a6,a1
80000818:	00003717          	auipc	a4,0x3
8000081c:	e6870713          	addi	a4,a4,-408 # 80003680 <tohost>
80000820:	c31c                	sw	a5,0(a4)
80000822:	01072223          	sw	a6,4(a4)
80000826:	409c                	lw	a5,0(s1)
80000828:	0044a803          	lw	a6,4(s1)
8000082c:	853e                	mv	a0,a5
8000082e:	85c2                	mv	a1,a6
80000830:	40fa                	lw	ra,156(sp)
80000832:	446a                	lw	s0,152(sp)
80000834:	44da                	lw	s1,148(sp)
80000836:	610d                	addi	sp,sp,160
80000838:	8082                	ret

8000083a <putc>:
8000083a:	1101                	addi	sp,sp,-32
8000083c:	ce06                	sw	ra,28(sp)
8000083e:	cc22                	sw	s0,24(sp)
80000840:	1000                	addi	s0,sp,32
80000842:	87aa                	mv	a5,a0
80000844:	fef407a3          	sb	a5,-17(s0)
80000848:	fef44703          	lbu	a4,-17(s0)
8000084c:	47a9                	li	a5,10
8000084e:	00f71563          	bne	a4,a5,80000858 <putc+0x1e>
80000852:	45b5                	li	a1,13
80000854:	4501                	li	a0,0
80000856:	3c21                	jal	8000026e <serial_send_byte>
80000858:	fef44783          	lbu	a5,-17(s0)
8000085c:	85be                	mv	a1,a5
8000085e:	4501                	li	a0,0
80000860:	3439                	jal	8000026e <serial_send_byte>
80000862:	87aa                	mv	a5,a0
80000864:	853e                	mv	a0,a5
80000866:	40f2                	lw	ra,28(sp)
80000868:	4462                	lw	s0,24(sp)
8000086a:	6105                	addi	sp,sp,32
8000086c:	8082                	ret

8000086e <getc>:
8000086e:	1101                	addi	sp,sp,-32
80000870:	ce06                	sw	ra,28(sp)
80000872:	cc22                	sw	s0,24(sp)
80000874:	1000                	addi	s0,sp,32
80000876:	4501                	li	a0,0
80000878:	3445                	jal	80000318 <serial_recv_byte>
8000087a:	87aa                	mv	a5,a0
8000087c:	fef407a3          	sb	a5,-17(s0)
80000880:	fef44703          	lbu	a4,-17(s0)
80000884:	47b5                	li	a5,13
80000886:	00f70563          	beq	a4,a5,80000890 <getc+0x22>
8000088a:	fef44783          	lbu	a5,-17(s0)
8000088e:	a011                	j	80000892 <getc+0x24>
80000890:	47a9                	li	a5,10
80000892:	fef407a3          	sb	a5,-17(s0)
80000896:	fef44783          	lbu	a5,-17(s0)
8000089a:	853e                	mv	a0,a5
8000089c:	3f79                	jal	8000083a <putc>
8000089e:	fef44783          	lbu	a5,-17(s0)
800008a2:	853e                	mv	a0,a5
800008a4:	40f2                	lw	ra,28(sp)
800008a6:	4462                	lw	s0,24(sp)
800008a8:	6105                	addi	sp,sp,32
800008aa:	8082                	ret

800008ac <puts>:
800008ac:	1101                	addi	sp,sp,-32
800008ae:	ce06                	sw	ra,28(sp)
800008b0:	cc22                	sw	s0,24(sp)
800008b2:	1000                	addi	s0,sp,32
800008b4:	fea42623          	sw	a0,-20(s0)
800008b8:	a819                	j	800008ce <puts+0x22>
800008ba:	fec42783          	lw	a5,-20(s0)
800008be:	00178713          	addi	a4,a5,1
800008c2:	fee42623          	sw	a4,-20(s0)
800008c6:	0007c783          	lbu	a5,0(a5)
800008ca:	853e                	mv	a0,a5
800008cc:	37bd                	jal	8000083a <putc>
800008ce:	fec42783          	lw	a5,-20(s0)
800008d2:	0007c783          	lbu	a5,0(a5)
800008d6:	f3f5                	bnez	a5,800008ba <puts+0xe>
800008d8:	4781                	li	a5,0
800008da:	853e                	mv	a0,a5
800008dc:	40f2                	lw	ra,28(sp)
800008de:	4462                	lw	s0,24(sp)
800008e0:	6105                	addi	sp,sp,32
800008e2:	8082                	ret

800008e4 <puts_spike>:
800008e4:	7179                	addi	sp,sp,-48
800008e6:	d606                	sw	ra,44(sp)
800008e8:	d422                	sw	s0,40(sp)
800008ea:	d226                	sw	s1,36(sp)
800008ec:	1800                	addi	s0,sp,48
800008ee:	fca42e23          	sw	a0,-36(s0)
800008f2:	fe042223          	sw	zero,-28(s0)
800008f6:	fdc42483          	lw	s1,-36(s0)
800008fa:	fdc42503          	lw	a0,-36(s0)
800008fe:	31cd                	jal	800005e0 <strlen>
80000900:	87aa                	mv	a5,a0
80000902:	86be                	mv	a3,a5
80000904:	8626                	mv	a2,s1
80000906:	4585                	li	a1,1
80000908:	04000513          	li	a0,64
8000090c:	3d49                	jal	8000079e <prvSyscallToHost>
8000090e:	87aa                	mv	a5,a0
80000910:	882e                	mv	a6,a1
80000912:	fef42223          	sw	a5,-28(s0)
80000916:	fe042623          	sw	zero,-20(s0)
8000091a:	a8a1                	j	80000972 <puts_spike+0x8e>
8000091c:	fe042423          	sw	zero,-24(s0)
80000920:	a82d                	j	8000095a <puts_spike+0x76>
80000922:	fe842703          	lw	a4,-24(s0)
80000926:	87ba                	mv	a5,a4
80000928:	0786                	slli	a5,a5,0x1
8000092a:	97ba                	add	a5,a5,a4
8000092c:	0786                	slli	a5,a5,0x1
8000092e:	fef42023          	sw	a5,-32(s0)
80000932:	fe842703          	lw	a4,-24(s0)
80000936:	06400793          	li	a5,100
8000093a:	02f747b3          	div	a5,a4,a5
8000093e:	00003717          	auipc	a4,0x3
80000942:	98a70713          	addi	a4,a4,-1654 # 800032c8 <esdata>
80000946:	078a                	slli	a5,a5,0x2
80000948:	97ba                	add	a5,a5,a4
8000094a:	fe042703          	lw	a4,-32(s0)
8000094e:	c398                	sw	a4,0(a5)
80000950:	fe842783          	lw	a5,-24(s0)
80000954:	0785                	addi	a5,a5,1
80000956:	fef42423          	sw	a5,-24(s0)
8000095a:	fe842703          	lw	a4,-24(s0)
8000095e:	6789                	lui	a5,0x2
80000960:	70f78793          	addi	a5,a5,1807 # 270f <REGBYTES+0x270b>
80000964:	fae7dfe3          	bge	a5,a4,80000922 <puts_spike+0x3e>
80000968:	fec42783          	lw	a5,-20(s0)
8000096c:	0785                	addi	a5,a5,1
8000096e:	fef42623          	sw	a5,-20(s0)
80000972:	fec42783          	lw	a5,-20(s0)
80000976:	faf053e3          	blez	a5,8000091c <puts_spike+0x38>
8000097a:	4781                	li	a5,0
8000097c:	853e                	mv	a0,a5
8000097e:	50b2                	lw	ra,44(sp)
80000980:	5422                	lw	s0,40(sp)
80000982:	5492                	lw	s1,36(sp)
80000984:	6145                	addi	sp,sp,48
80000986:	8082                	ret

80000988 <gets>:
80000988:	7179                	addi	sp,sp,-48
8000098a:	d606                	sw	ra,44(sp)
8000098c:	d422                	sw	s0,40(sp)
8000098e:	1800                	addi	s0,sp,48
80000990:	fca42e23          	sw	a0,-36(s0)
80000994:	fe042623          	sw	zero,-20(s0)
80000998:	3dd9                	jal	8000086e <getc>
8000099a:	87aa                	mv	a5,a0
8000099c:	fef405a3          	sb	a5,-21(s0)
800009a0:	feb44703          	lbu	a4,-21(s0)
800009a4:	47a9                	li	a5,10
800009a6:	00f71463          	bne	a4,a5,800009ae <gets+0x26>
800009aa:	fe0405a3          	sb	zero,-21(s0)
800009ae:	fec42783          	lw	a5,-20(s0)
800009b2:	00178713          	addi	a4,a5,1
800009b6:	fee42623          	sw	a4,-20(s0)
800009ba:	873e                	mv	a4,a5
800009bc:	fdc42783          	lw	a5,-36(s0)
800009c0:	97ba                	add	a5,a5,a4
800009c2:	feb44703          	lbu	a4,-21(s0)
800009c6:	00e78023          	sb	a4,0(a5)
800009ca:	feb44783          	lbu	a5,-21(s0)
800009ce:	f7e9                	bnez	a5,80000998 <gets+0x10>
800009d0:	fec42783          	lw	a5,-20(s0)
800009d4:	17fd                	addi	a5,a5,-1
800009d6:	853e                	mv	a0,a5
800009d8:	50b2                	lw	ra,44(sp)
800009da:	5422                	lw	s0,40(sp)
800009dc:	6145                	addi	sp,sp,48
800009de:	8082                	ret

800009e0 <putxval>:
800009e0:	7179                	addi	sp,sp,-48
800009e2:	d606                	sw	ra,44(sp)
800009e4:	d422                	sw	s0,40(sp)
800009e6:	1800                	addi	s0,sp,48
800009e8:	fca42e23          	sw	a0,-36(s0)
800009ec:	fcb42c23          	sw	a1,-40(s0)
800009f0:	fe040793          	addi	a5,s0,-32
800009f4:	07a1                	addi	a5,a5,8
800009f6:	fef42623          	sw	a5,-20(s0)
800009fa:	fec42783          	lw	a5,-20(s0)
800009fe:	fff78713          	addi	a4,a5,-1
80000a02:	fee42623          	sw	a4,-20(s0)
80000a06:	00078023          	sb	zero,0(a5)
80000a0a:	fdc42783          	lw	a5,-36(s0)
80000a0e:	ebb1                	bnez	a5,80000a62 <putxval+0x82>
80000a10:	fd842783          	lw	a5,-40(s0)
80000a14:	e7b9                	bnez	a5,80000a62 <putxval+0x82>
80000a16:	fd842783          	lw	a5,-40(s0)
80000a1a:	0785                	addi	a5,a5,1
80000a1c:	fcf42c23          	sw	a5,-40(s0)
80000a20:	a089                	j	80000a62 <putxval+0x82>
80000a22:	fdc42783          	lw	a5,-36(s0)
80000a26:	00f7f713          	andi	a4,a5,15
80000a2a:	fec42783          	lw	a5,-20(s0)
80000a2e:	fff78693          	addi	a3,a5,-1
80000a32:	fed42623          	sw	a3,-20(s0)
80000a36:	00002697          	auipc	a3,0x2
80000a3a:	7be68693          	addi	a3,a3,1982 # 800031f4 <rodata_start+0x18>
80000a3e:	9736                	add	a4,a4,a3
80000a40:	00074703          	lbu	a4,0(a4)
80000a44:	00e78023          	sb	a4,0(a5)
80000a48:	fdc42783          	lw	a5,-36(s0)
80000a4c:	8391                	srli	a5,a5,0x4
80000a4e:	fcf42e23          	sw	a5,-36(s0)
80000a52:	fd842783          	lw	a5,-40(s0)
80000a56:	c791                	beqz	a5,80000a62 <putxval+0x82>
80000a58:	fd842783          	lw	a5,-40(s0)
80000a5c:	17fd                	addi	a5,a5,-1
80000a5e:	fcf42c23          	sw	a5,-40(s0)
80000a62:	fdc42783          	lw	a5,-36(s0)
80000a66:	ffd5                	bnez	a5,80000a22 <putxval+0x42>
80000a68:	fd842783          	lw	a5,-40(s0)
80000a6c:	fbdd                	bnez	a5,80000a22 <putxval+0x42>
80000a6e:	fec42783          	lw	a5,-20(s0)
80000a72:	0785                	addi	a5,a5,1
80000a74:	853e                	mv	a0,a5
80000a76:	35bd                	jal	800008e4 <puts_spike>
80000a78:	4781                	li	a5,0
80000a7a:	853e                	mv	a0,a5
80000a7c:	50b2                	lw	ra,44(sp)
80000a7e:	5422                	lw	s0,40(sp)
80000a80:	6145                	addi	sp,sp,48
80000a82:	8082                	ret

80000a84 <getcurrent>:
80000a84:	1141                	addi	sp,sp,-16
80000a86:	c622                	sw	s0,12(sp)
80000a88:	0800                	addi	s0,sp,16
80000a8a:	00003797          	auipc	a5,0x3
80000a8e:	a4e78793          	addi	a5,a5,-1458 # 800034d8 <current>
80000a92:	439c                	lw	a5,0(a5)
80000a94:	e399                	bnez	a5,80000a9a <getcurrent+0x16>
80000a96:	57fd                	li	a5,-1
80000a98:	a879                	j	80000b36 <getcurrent+0xb2>
80000a9a:	00003797          	auipc	a5,0x3
80000a9e:	a3e78793          	addi	a5,a5,-1474 # 800034d8 <current>
80000aa2:	439c                	lw	a5,0(a5)
80000aa4:	4fdc                	lw	a5,28(a5)
80000aa6:	8b85                	andi	a5,a5,1
80000aa8:	e399                	bnez	a5,80000aae <getcurrent+0x2a>
80000aaa:	57fd                	li	a5,-1
80000aac:	a069                	j	80000b36 <getcurrent+0xb2>
80000aae:	00003797          	auipc	a5,0x3
80000ab2:	a2a78793          	addi	a5,a5,-1494 # 800034d8 <current>
80000ab6:	4398                	lw	a4,0(a5)
80000ab8:	00003797          	auipc	a5,0x3
80000abc:	a2078793          	addi	a5,a5,-1504 # 800034d8 <current>
80000ac0:	439c                	lw	a5,0(a5)
80000ac2:	4bdc                	lw	a5,20(a5)
80000ac4:	4318                	lw	a4,0(a4)
80000ac6:	00003697          	auipc	a3,0x3
80000aca:	99268693          	addi	a3,a3,-1646 # 80003458 <readyque>
80000ace:	078e                	slli	a5,a5,0x3
80000ad0:	97b6                	add	a5,a5,a3
80000ad2:	c398                	sw	a4,0(a5)
80000ad4:	00003797          	auipc	a5,0x3
80000ad8:	a0478793          	addi	a5,a5,-1532 # 800034d8 <current>
80000adc:	439c                	lw	a5,0(a5)
80000ade:	4bdc                	lw	a5,20(a5)
80000ae0:	00003717          	auipc	a4,0x3
80000ae4:	97870713          	addi	a4,a4,-1672 # 80003458 <readyque>
80000ae8:	078e                	slli	a5,a5,0x3
80000aea:	97ba                	add	a5,a5,a4
80000aec:	439c                	lw	a5,0(a5)
80000aee:	ef99                	bnez	a5,80000b0c <getcurrent+0x88>
80000af0:	00003797          	auipc	a5,0x3
80000af4:	9e878793          	addi	a5,a5,-1560 # 800034d8 <current>
80000af8:	439c                	lw	a5,0(a5)
80000afa:	4bdc                	lw	a5,20(a5)
80000afc:	00003717          	auipc	a4,0x3
80000b00:	95c70713          	addi	a4,a4,-1700 # 80003458 <readyque>
80000b04:	078e                	slli	a5,a5,0x3
80000b06:	97ba                	add	a5,a5,a4
80000b08:	0007a223          	sw	zero,4(a5)
80000b0c:	00003797          	auipc	a5,0x3
80000b10:	9cc78793          	addi	a5,a5,-1588 # 800034d8 <current>
80000b14:	439c                	lw	a5,0(a5)
80000b16:	4fd8                	lw	a4,28(a5)
80000b18:	00003797          	auipc	a5,0x3
80000b1c:	9c078793          	addi	a5,a5,-1600 # 800034d8 <current>
80000b20:	439c                	lw	a5,0(a5)
80000b22:	9b79                	andi	a4,a4,-2
80000b24:	cfd8                	sw	a4,28(a5)
80000b26:	00003797          	auipc	a5,0x3
80000b2a:	9b278793          	addi	a5,a5,-1614 # 800034d8 <current>
80000b2e:	439c                	lw	a5,0(a5)
80000b30:	0007a023          	sw	zero,0(a5)
80000b34:	4781                	li	a5,0
80000b36:	853e                	mv	a0,a5
80000b38:	4432                	lw	s0,12(sp)
80000b3a:	0141                	addi	sp,sp,16
80000b3c:	8082                	ret

80000b3e <putcurrent>:
80000b3e:	1141                	addi	sp,sp,-16
80000b40:	c622                	sw	s0,12(sp)
80000b42:	0800                	addi	s0,sp,16
80000b44:	00003797          	auipc	a5,0x3
80000b48:	99478793          	addi	a5,a5,-1644 # 800034d8 <current>
80000b4c:	439c                	lw	a5,0(a5)
80000b4e:	e399                	bnez	a5,80000b54 <putcurrent+0x16>
80000b50:	57fd                	li	a5,-1
80000b52:	a0c1                	j	80000c12 <putcurrent+0xd4>
80000b54:	00003797          	auipc	a5,0x3
80000b58:	98478793          	addi	a5,a5,-1660 # 800034d8 <current>
80000b5c:	439c                	lw	a5,0(a5)
80000b5e:	4fdc                	lw	a5,28(a5)
80000b60:	8b85                	andi	a5,a5,1
80000b62:	c399                	beqz	a5,80000b68 <putcurrent+0x2a>
80000b64:	4785                	li	a5,1
80000b66:	a075                	j	80000c12 <putcurrent+0xd4>
80000b68:	00003797          	auipc	a5,0x3
80000b6c:	97078793          	addi	a5,a5,-1680 # 800034d8 <current>
80000b70:	439c                	lw	a5,0(a5)
80000b72:	4bdc                	lw	a5,20(a5)
80000b74:	00003717          	auipc	a4,0x3
80000b78:	8e470713          	addi	a4,a4,-1820 # 80003458 <readyque>
80000b7c:	078e                	slli	a5,a5,0x3
80000b7e:	97ba                	add	a5,a5,a4
80000b80:	43dc                	lw	a5,4(a5)
80000b82:	c78d                	beqz	a5,80000bac <putcurrent+0x6e>
80000b84:	00003797          	auipc	a5,0x3
80000b88:	95478793          	addi	a5,a5,-1708 # 800034d8 <current>
80000b8c:	439c                	lw	a5,0(a5)
80000b8e:	4bdc                	lw	a5,20(a5)
80000b90:	00003717          	auipc	a4,0x3
80000b94:	8c870713          	addi	a4,a4,-1848 # 80003458 <readyque>
80000b98:	078e                	slli	a5,a5,0x3
80000b9a:	97ba                	add	a5,a5,a4
80000b9c:	43dc                	lw	a5,4(a5)
80000b9e:	00003717          	auipc	a4,0x3
80000ba2:	93a70713          	addi	a4,a4,-1734 # 800034d8 <current>
80000ba6:	4318                	lw	a4,0(a4)
80000ba8:	c398                	sw	a4,0(a5)
80000baa:	a01d                	j	80000bd0 <putcurrent+0x92>
80000bac:	00003797          	auipc	a5,0x3
80000bb0:	92c78793          	addi	a5,a5,-1748 # 800034d8 <current>
80000bb4:	439c                	lw	a5,0(a5)
80000bb6:	4bdc                	lw	a5,20(a5)
80000bb8:	00003717          	auipc	a4,0x3
80000bbc:	92070713          	addi	a4,a4,-1760 # 800034d8 <current>
80000bc0:	4318                	lw	a4,0(a4)
80000bc2:	00003697          	auipc	a3,0x3
80000bc6:	89668693          	addi	a3,a3,-1898 # 80003458 <readyque>
80000bca:	078e                	slli	a5,a5,0x3
80000bcc:	97b6                	add	a5,a5,a3
80000bce:	c398                	sw	a4,0(a5)
80000bd0:	00003797          	auipc	a5,0x3
80000bd4:	90878793          	addi	a5,a5,-1784 # 800034d8 <current>
80000bd8:	439c                	lw	a5,0(a5)
80000bda:	4bdc                	lw	a5,20(a5)
80000bdc:	00003717          	auipc	a4,0x3
80000be0:	8fc70713          	addi	a4,a4,-1796 # 800034d8 <current>
80000be4:	4318                	lw	a4,0(a4)
80000be6:	00003697          	auipc	a3,0x3
80000bea:	87268693          	addi	a3,a3,-1934 # 80003458 <readyque>
80000bee:	078e                	slli	a5,a5,0x3
80000bf0:	97b6                	add	a5,a5,a3
80000bf2:	c3d8                	sw	a4,4(a5)
80000bf4:	00003797          	auipc	a5,0x3
80000bf8:	8e478793          	addi	a5,a5,-1820 # 800034d8 <current>
80000bfc:	439c                	lw	a5,0(a5)
80000bfe:	4fd8                	lw	a4,28(a5)
80000c00:	00003797          	auipc	a5,0x3
80000c04:	8d878793          	addi	a5,a5,-1832 # 800034d8 <current>
80000c08:	439c                	lw	a5,0(a5)
80000c0a:	00176713          	ori	a4,a4,1
80000c0e:	cfd8                	sw	a4,28(a5)
80000c10:	4781                	li	a5,0
80000c12:	853e                	mv	a0,a5
80000c14:	4432                	lw	s0,12(sp)
80000c16:	0141                	addi	sp,sp,16
80000c18:	8082                	ret

80000c1a <sendmsg>:
80000c1a:	7179                	addi	sp,sp,-48
80000c1c:	d606                	sw	ra,44(sp)
80000c1e:	d422                	sw	s0,40(sp)
80000c20:	1800                	addi	s0,sp,48
80000c22:	fca42e23          	sw	a0,-36(s0)
80000c26:	fcb42c23          	sw	a1,-40(s0)
80000c2a:	fcc42a23          	sw	a2,-44(s0)
80000c2e:	fcd42823          	sw	a3,-48(s0)
80000c32:	4541                	li	a0,16
80000c34:	06c010ef          	jal	ra,80001ca0 <kzmem_alloc>
80000c38:	fea42623          	sw	a0,-20(s0)
80000c3c:	fec42783          	lw	a5,-20(s0)
80000c40:	e399                	bnez	a5,80000c46 <sendmsg+0x2c>
80000c42:	3d7000ef          	jal	ra,80001818 <kz_sysdown>
80000c46:	fec42783          	lw	a5,-20(s0)
80000c4a:	0007a023          	sw	zero,0(a5)
80000c4e:	fec42783          	lw	a5,-20(s0)
80000c52:	fd842703          	lw	a4,-40(s0)
80000c56:	c3d8                	sw	a4,4(a5)
80000c58:	fec42783          	lw	a5,-20(s0)
80000c5c:	fd442703          	lw	a4,-44(s0)
80000c60:	c798                	sw	a4,8(a5)
80000c62:	fec42783          	lw	a5,-20(s0)
80000c66:	fd042703          	lw	a4,-48(s0)
80000c6a:	c7d8                	sw	a4,12(a5)
80000c6c:	fdc42783          	lw	a5,-36(s0)
80000c70:	479c                	lw	a5,8(a5)
80000c72:	cb81                	beqz	a5,80000c82 <sendmsg+0x68>
80000c74:	fdc42783          	lw	a5,-36(s0)
80000c78:	479c                	lw	a5,8(a5)
80000c7a:	fec42703          	lw	a4,-20(s0)
80000c7e:	c398                	sw	a4,0(a5)
80000c80:	a031                	j	80000c8c <sendmsg+0x72>
80000c82:	fdc42783          	lw	a5,-36(s0)
80000c86:	fec42703          	lw	a4,-20(s0)
80000c8a:	c3d8                	sw	a4,4(a5)
80000c8c:	fdc42783          	lw	a5,-36(s0)
80000c90:	fec42703          	lw	a4,-20(s0)
80000c94:	c798                	sw	a4,8(a5)
80000c96:	0001                	nop
80000c98:	50b2                	lw	ra,44(sp)
80000c9a:	5422                	lw	s0,40(sp)
80000c9c:	6145                	addi	sp,sp,48
80000c9e:	8082                	ret

80000ca0 <recvmsg>:
80000ca0:	7179                	addi	sp,sp,-48
80000ca2:	d606                	sw	ra,44(sp)
80000ca4:	d422                	sw	s0,40(sp)
80000ca6:	1800                	addi	s0,sp,48
80000ca8:	fca42e23          	sw	a0,-36(s0)
80000cac:	fdc42783          	lw	a5,-36(s0)
80000cb0:	43dc                	lw	a5,4(a5)
80000cb2:	fef42623          	sw	a5,-20(s0)
80000cb6:	fec42783          	lw	a5,-20(s0)
80000cba:	4398                	lw	a4,0(a5)
80000cbc:	fdc42783          	lw	a5,-36(s0)
80000cc0:	c3d8                	sw	a4,4(a5)
80000cc2:	fdc42783          	lw	a5,-36(s0)
80000cc6:	43dc                	lw	a5,4(a5)
80000cc8:	e789                	bnez	a5,80000cd2 <recvmsg+0x32>
80000cca:	fdc42783          	lw	a5,-36(s0)
80000cce:	0007a423          	sw	zero,8(a5)
80000cd2:	fec42783          	lw	a5,-20(s0)
80000cd6:	0007a023          	sw	zero,0(a5)
80000cda:	fdc42783          	lw	a5,-36(s0)
80000cde:	439c                	lw	a5,0(a5)
80000ce0:	5b9c                	lw	a5,48(a5)
80000ce2:	fef42423          	sw	a5,-24(s0)
80000ce6:	fec42783          	lw	a5,-20(s0)
80000cea:	43dc                	lw	a5,4(a5)
80000cec:	873e                	mv	a4,a5
80000cee:	fe842783          	lw	a5,-24(s0)
80000cf2:	c7d8                	sw	a4,12(a5)
80000cf4:	fe842783          	lw	a5,-24(s0)
80000cf8:	43dc                	lw	a5,4(a5)
80000cfa:	cb81                	beqz	a5,80000d0a <recvmsg+0x6a>
80000cfc:	fe842783          	lw	a5,-24(s0)
80000d00:	43dc                	lw	a5,4(a5)
80000d02:	fec42703          	lw	a4,-20(s0)
80000d06:	4718                	lw	a4,8(a4)
80000d08:	c398                	sw	a4,0(a5)
80000d0a:	fe842783          	lw	a5,-24(s0)
80000d0e:	479c                	lw	a5,8(a5)
80000d10:	cb81                	beqz	a5,80000d20 <recvmsg+0x80>
80000d12:	fe842783          	lw	a5,-24(s0)
80000d16:	479c                	lw	a5,8(a5)
80000d18:	fec42703          	lw	a4,-20(s0)
80000d1c:	4758                	lw	a4,12(a4)
80000d1e:	c398                	sw	a4,0(a5)
80000d20:	fdc42783          	lw	a5,-36(s0)
80000d24:	0007a023          	sw	zero,0(a5)
80000d28:	fec42503          	lw	a0,-20(s0)
80000d2c:	00a010ef          	jal	ra,80001d36 <kzmem_free>
80000d30:	0001                	nop
80000d32:	50b2                	lw	ra,44(sp)
80000d34:	5422                	lw	s0,40(sp)
80000d36:	6145                	addi	sp,sp,48
80000d38:	8082                	ret

80000d3a <thread_end>:
80000d3a:	1141                	addi	sp,sp,-16
80000d3c:	c606                	sw	ra,12(sp)
80000d3e:	c422                	sw	s0,8(sp)
80000d40:	0800                	addi	s0,sp,16
80000d42:	3b3000ef          	jal	ra,800018f4 <kz_exit>
80000d46:	0001                	nop
80000d48:	40b2                	lw	ra,12(sp)
80000d4a:	4422                	lw	s0,8(sp)
80000d4c:	0141                	addi	sp,sp,16
80000d4e:	8082                	ret

80000d50 <thread_init>:
80000d50:	1101                	addi	sp,sp,-32
80000d52:	ce06                	sw	ra,28(sp)
80000d54:	cc22                	sw	s0,24(sp)
80000d56:	1000                	addi	s0,sp,32
80000d58:	fea42623          	sw	a0,-20(s0)
80000d5c:	fec42783          	lw	a5,-20(s0)
80000d60:	5394                	lw	a3,32(a5)
80000d62:	fec42783          	lw	a5,-20(s0)
80000d66:	53d8                	lw	a4,36(a5)
80000d68:	fec42783          	lw	a5,-20(s0)
80000d6c:	579c                	lw	a5,40(a5)
80000d6e:	85be                	mv	a1,a5
80000d70:	853a                	mv	a0,a4
80000d72:	9682                	jalr	a3
80000d74:	37d9                	jal	80000d3a <thread_end>
80000d76:	0001                	nop
80000d78:	40f2                	lw	ra,28(sp)
80000d7a:	4462                	lw	s0,24(sp)
80000d7c:	6105                	addi	sp,sp,32
80000d7e:	8082                	ret

80000d80 <thread_run>:
80000d80:	7139                	addi	sp,sp,-64
80000d82:	de06                	sw	ra,60(sp)
80000d84:	dc22                	sw	s0,56(sp)
80000d86:	0080                	addi	s0,sp,64
80000d88:	fca42e23          	sw	a0,-36(s0)
80000d8c:	fcb42c23          	sw	a1,-40(s0)
80000d90:	fcc42a23          	sw	a2,-44(s0)
80000d94:	fcd42823          	sw	a3,-48(s0)
80000d98:	fce42623          	sw	a4,-52(s0)
80000d9c:	fcf42423          	sw	a5,-56(s0)
80000da0:	fe042623          	sw	zero,-20(s0)
80000da4:	a03d                	j	80000dd2 <thread_run+0x52>
80000da6:	fec42703          	lw	a4,-20(s0)
80000daa:	87ba                	mv	a5,a4
80000dac:	078e                	slli	a5,a5,0x3
80000dae:	8f99                	sub	a5,a5,a4
80000db0:	078e                	slli	a5,a5,0x3
80000db2:	00002717          	auipc	a4,0x2
80000db6:	72a70713          	addi	a4,a4,1834 # 800034dc <threads>
80000dba:	97ba                	add	a5,a5,a4
80000dbc:	fef42423          	sw	a5,-24(s0)
80000dc0:	fe842783          	lw	a5,-24(s0)
80000dc4:	539c                	lw	a5,32(a5)
80000dc6:	cf81                	beqz	a5,80000dde <thread_run+0x5e>
80000dc8:	fec42783          	lw	a5,-20(s0)
80000dcc:	0785                	addi	a5,a5,1
80000dce:	fef42623          	sw	a5,-20(s0)
80000dd2:	fec42703          	lw	a4,-20(s0)
80000dd6:	4795                	li	a5,5
80000dd8:	fce7d7e3          	bge	a5,a4,80000da6 <thread_run+0x26>
80000ddc:	a011                	j	80000de0 <thread_run+0x60>
80000dde:	0001                	nop
80000de0:	fec42703          	lw	a4,-20(s0)
80000de4:	4799                	li	a5,6
80000de6:	00f71463          	bne	a4,a5,80000dee <thread_run+0x6e>
80000dea:	57fd                	li	a5,-1
80000dec:	ae99                	j	80001142 <thread_run+0x3c2>
80000dee:	03800613          	li	a2,56
80000df2:	4581                	li	a1,0
80000df4:	fe842503          	lw	a0,-24(s0)
80000df8:	eb0ff0ef          	jal	ra,800004a8 <memset>
80000dfc:	fe842783          	lw	a5,-24(s0)
80000e00:	0791                	addi	a5,a5,4
80000e02:	fd842583          	lw	a1,-40(s0)
80000e06:	853e                	mv	a0,a5
80000e08:	813ff0ef          	jal	ra,8000061a <strcpy>
80000e0c:	fe842783          	lw	a5,-24(s0)
80000e10:	0007a023          	sw	zero,0(a5)
80000e14:	fe842783          	lw	a5,-24(s0)
80000e18:	fd442703          	lw	a4,-44(s0)
80000e1c:	cbd8                	sw	a4,20(a5)
80000e1e:	fe842783          	lw	a5,-24(s0)
80000e22:	0007ae23          	sw	zero,28(a5)
80000e26:	fe842783          	lw	a5,-24(s0)
80000e2a:	fdc42703          	lw	a4,-36(s0)
80000e2e:	d398                	sw	a4,32(a5)
80000e30:	fe842783          	lw	a5,-24(s0)
80000e34:	fcc42703          	lw	a4,-52(s0)
80000e38:	d3d8                	sw	a4,36(a5)
80000e3a:	fe842783          	lw	a5,-24(s0)
80000e3e:	fc842703          	lw	a4,-56(s0)
80000e42:	d798                	sw	a4,40(a5)
80000e44:	00002797          	auipc	a5,0x2
80000e48:	47c78793          	addi	a5,a5,1148 # 800032c0 <thread_stack.1281>
80000e4c:	439c                	lw	a5,0(a5)
80000e4e:	fd042603          	lw	a2,-48(s0)
80000e52:	4581                	li	a1,0
80000e54:	853e                	mv	a0,a5
80000e56:	e52ff0ef          	jal	ra,800004a8 <memset>
80000e5a:	00002797          	auipc	a5,0x2
80000e5e:	46678793          	addi	a5,a5,1126 # 800032c0 <thread_stack.1281>
80000e62:	4398                	lw	a4,0(a5)
80000e64:	fd042783          	lw	a5,-48(s0)
80000e68:	973e                	add	a4,a4,a5
80000e6a:	00002797          	auipc	a5,0x2
80000e6e:	45678793          	addi	a5,a5,1110 # 800032c0 <thread_stack.1281>
80000e72:	c398                	sw	a4,0(a5)
80000e74:	00002797          	auipc	a5,0x2
80000e78:	44c78793          	addi	a5,a5,1100 # 800032c0 <thread_stack.1281>
80000e7c:	4398                	lw	a4,0(a5)
80000e7e:	fe842783          	lw	a5,-24(s0)
80000e82:	cf98                	sw	a4,24(a5)
80000e84:	fe842783          	lw	a5,-24(s0)
80000e88:	4f9c                	lw	a5,24(a5)
80000e8a:	fef42223          	sw	a5,-28(s0)
80000e8e:	fe442783          	lw	a5,-28(s0)
80000e92:	17f1                	addi	a5,a5,-4
80000e94:	fef42223          	sw	a5,-28(s0)
80000e98:	00000717          	auipc	a4,0x0
80000e9c:	ea270713          	addi	a4,a4,-350 # 80000d3a <thread_end>
80000ea0:	fe442783          	lw	a5,-28(s0)
80000ea4:	c398                	sw	a4,0(a5)
80000ea6:	fe442783          	lw	a5,-28(s0)
80000eaa:	17f1                	addi	a5,a5,-4
80000eac:	fef42223          	sw	a5,-28(s0)
80000eb0:	00000717          	auipc	a4,0x0
80000eb4:	ea070713          	addi	a4,a4,-352 # 80000d50 <thread_init>
80000eb8:	fe442783          	lw	a5,-28(s0)
80000ebc:	c398                	sw	a4,0(a5)
80000ebe:	fd442783          	lw	a5,-44(s0)
80000ec2:	c399                	beqz	a5,80000ec8 <thread_run+0x148>
80000ec4:	4781                	li	a5,0
80000ec6:	a011                	j	80000eca <thread_run+0x14a>
80000ec8:	47a1                	li	a5,8
80000eca:	fe442703          	lw	a4,-28(s0)
80000ece:	1771                	addi	a4,a4,-4
80000ed0:	fee42223          	sw	a4,-28(s0)
80000ed4:	fe442703          	lw	a4,-28(s0)
80000ed8:	c31c                	sw	a5,0(a4)
80000eda:	fe442783          	lw	a5,-28(s0)
80000ede:	17f1                	addi	a5,a5,-4
80000ee0:	fef42223          	sw	a5,-28(s0)
80000ee4:	fe442783          	lw	a5,-28(s0)
80000ee8:	0007a023          	sw	zero,0(a5)
80000eec:	fe442783          	lw	a5,-28(s0)
80000ef0:	17f1                	addi	a5,a5,-4
80000ef2:	fef42223          	sw	a5,-28(s0)
80000ef6:	fe442783          	lw	a5,-28(s0)
80000efa:	0007a023          	sw	zero,0(a5)
80000efe:	fe442783          	lw	a5,-28(s0)
80000f02:	17f1                	addi	a5,a5,-4
80000f04:	fef42223          	sw	a5,-28(s0)
80000f08:	fe442783          	lw	a5,-28(s0)
80000f0c:	0007a023          	sw	zero,0(a5)
80000f10:	fe442783          	lw	a5,-28(s0)
80000f14:	17f1                	addi	a5,a5,-4
80000f16:	fef42223          	sw	a5,-28(s0)
80000f1a:	fe442783          	lw	a5,-28(s0)
80000f1e:	0007a023          	sw	zero,0(a5)
80000f22:	fe442783          	lw	a5,-28(s0)
80000f26:	17f1                	addi	a5,a5,-4
80000f28:	fef42223          	sw	a5,-28(s0)
80000f2c:	fe442783          	lw	a5,-28(s0)
80000f30:	0007a023          	sw	zero,0(a5)
80000f34:	fe442783          	lw	a5,-28(s0)
80000f38:	17f1                	addi	a5,a5,-4
80000f3a:	fef42223          	sw	a5,-28(s0)
80000f3e:	fe442783          	lw	a5,-28(s0)
80000f42:	0007a023          	sw	zero,0(a5)
80000f46:	fe442783          	lw	a5,-28(s0)
80000f4a:	17f1                	addi	a5,a5,-4
80000f4c:	fef42223          	sw	a5,-28(s0)
80000f50:	fe442783          	lw	a5,-28(s0)
80000f54:	0007a023          	sw	zero,0(a5)
80000f58:	fe442783          	lw	a5,-28(s0)
80000f5c:	17f1                	addi	a5,a5,-4
80000f5e:	fef42223          	sw	a5,-28(s0)
80000f62:	fe442783          	lw	a5,-28(s0)
80000f66:	0007a023          	sw	zero,0(a5)
80000f6a:	fe442783          	lw	a5,-28(s0)
80000f6e:	17f1                	addi	a5,a5,-4
80000f70:	fef42223          	sw	a5,-28(s0)
80000f74:	fe442783          	lw	a5,-28(s0)
80000f78:	0007a023          	sw	zero,0(a5)
80000f7c:	fe442783          	lw	a5,-28(s0)
80000f80:	17f1                	addi	a5,a5,-4
80000f82:	fef42223          	sw	a5,-28(s0)
80000f86:	fe442783          	lw	a5,-28(s0)
80000f8a:	0007a023          	sw	zero,0(a5)
80000f8e:	fe442783          	lw	a5,-28(s0)
80000f92:	17f1                	addi	a5,a5,-4
80000f94:	fef42223          	sw	a5,-28(s0)
80000f98:	fe442783          	lw	a5,-28(s0)
80000f9c:	0007a023          	sw	zero,0(a5)
80000fa0:	fe442783          	lw	a5,-28(s0)
80000fa4:	17f1                	addi	a5,a5,-4
80000fa6:	fef42223          	sw	a5,-28(s0)
80000faa:	fe442783          	lw	a5,-28(s0)
80000fae:	0007a023          	sw	zero,0(a5)
80000fb2:	fe442783          	lw	a5,-28(s0)
80000fb6:	17f1                	addi	a5,a5,-4
80000fb8:	fef42223          	sw	a5,-28(s0)
80000fbc:	fe442783          	lw	a5,-28(s0)
80000fc0:	0007a023          	sw	zero,0(a5)
80000fc4:	fe442783          	lw	a5,-28(s0)
80000fc8:	17f1                	addi	a5,a5,-4
80000fca:	fef42223          	sw	a5,-28(s0)
80000fce:	fe442783          	lw	a5,-28(s0)
80000fd2:	0007a023          	sw	zero,0(a5)
80000fd6:	fe442783          	lw	a5,-28(s0)
80000fda:	17f1                	addi	a5,a5,-4
80000fdc:	fef42223          	sw	a5,-28(s0)
80000fe0:	fe442783          	lw	a5,-28(s0)
80000fe4:	0007a023          	sw	zero,0(a5)
80000fe8:	fe442783          	lw	a5,-28(s0)
80000fec:	17f1                	addi	a5,a5,-4
80000fee:	fef42223          	sw	a5,-28(s0)
80000ff2:	fe442783          	lw	a5,-28(s0)
80000ff6:	0007a023          	sw	zero,0(a5)
80000ffa:	fe442783          	lw	a5,-28(s0)
80000ffe:	17f1                	addi	a5,a5,-4
80001000:	fef42223          	sw	a5,-28(s0)
80001004:	fe442783          	lw	a5,-28(s0)
80001008:	0007a023          	sw	zero,0(a5)
8000100c:	fe442783          	lw	a5,-28(s0)
80001010:	17f1                	addi	a5,a5,-4
80001012:	fef42223          	sw	a5,-28(s0)
80001016:	fe442783          	lw	a5,-28(s0)
8000101a:	0007a023          	sw	zero,0(a5)
8000101e:	fe442783          	lw	a5,-28(s0)
80001022:	17f1                	addi	a5,a5,-4
80001024:	fef42223          	sw	a5,-28(s0)
80001028:	fe442783          	lw	a5,-28(s0)
8000102c:	0007a023          	sw	zero,0(a5)
80001030:	fe442783          	lw	a5,-28(s0)
80001034:	17f1                	addi	a5,a5,-4
80001036:	fef42223          	sw	a5,-28(s0)
8000103a:	fe442783          	lw	a5,-28(s0)
8000103e:	0007a023          	sw	zero,0(a5)
80001042:	fe442783          	lw	a5,-28(s0)
80001046:	17f1                	addi	a5,a5,-4
80001048:	fef42223          	sw	a5,-28(s0)
8000104c:	fe442783          	lw	a5,-28(s0)
80001050:	0007a023          	sw	zero,0(a5)
80001054:	fe442783          	lw	a5,-28(s0)
80001058:	17f1                	addi	a5,a5,-4
8000105a:	fef42223          	sw	a5,-28(s0)
8000105e:	fe842703          	lw	a4,-24(s0)
80001062:	fe442783          	lw	a5,-28(s0)
80001066:	c398                	sw	a4,0(a5)
80001068:	fe442783          	lw	a5,-28(s0)
8000106c:	17f1                	addi	a5,a5,-4
8000106e:	fef42223          	sw	a5,-28(s0)
80001072:	fe442783          	lw	a5,-28(s0)
80001076:	0007a023          	sw	zero,0(a5)
8000107a:	fe442783          	lw	a5,-28(s0)
8000107e:	17f1                	addi	a5,a5,-4
80001080:	fef42223          	sw	a5,-28(s0)
80001084:	fe442783          	lw	a5,-28(s0)
80001088:	0007a023          	sw	zero,0(a5)
8000108c:	fe442783          	lw	a5,-28(s0)
80001090:	17f1                	addi	a5,a5,-4
80001092:	fef42223          	sw	a5,-28(s0)
80001096:	fe442783          	lw	a5,-28(s0)
8000109a:	0007a023          	sw	zero,0(a5)
8000109e:	fe442783          	lw	a5,-28(s0)
800010a2:	17f1                	addi	a5,a5,-4
800010a4:	fef42223          	sw	a5,-28(s0)
800010a8:	fe442783          	lw	a5,-28(s0)
800010ac:	0007a023          	sw	zero,0(a5)
800010b0:	fe442783          	lw	a5,-28(s0)
800010b4:	17f1                	addi	a5,a5,-4
800010b6:	fef42223          	sw	a5,-28(s0)
800010ba:	fe442783          	lw	a5,-28(s0)
800010be:	0007a023          	sw	zero,0(a5)
800010c2:	fe442783          	lw	a5,-28(s0)
800010c6:	17f1                	addi	a5,a5,-4
800010c8:	fef42223          	sw	a5,-28(s0)
800010cc:	fe442783          	lw	a5,-28(s0)
800010d0:	0007a023          	sw	zero,0(a5)
800010d4:	fe442783          	lw	a5,-28(s0)
800010d8:	17f1                	addi	a5,a5,-4
800010da:	fef42223          	sw	a5,-28(s0)
800010de:	fe442783          	lw	a5,-28(s0)
800010e2:	0007a023          	sw	zero,0(a5)
800010e6:	fe442783          	lw	a5,-28(s0)
800010ea:	17f1                	addi	a5,a5,-4
800010ec:	fef42223          	sw	a5,-28(s0)
800010f0:	fe442783          	lw	a5,-28(s0)
800010f4:	0007a023          	sw	zero,0(a5)
800010f8:	fe442783          	lw	a5,-28(s0)
800010fc:	17f1                	addi	a5,a5,-4
800010fe:	fef42223          	sw	a5,-28(s0)
80001102:	fe442783          	lw	a5,-28(s0)
80001106:	0007a023          	sw	zero,0(a5)
8000110a:	fe442783          	lw	a5,-28(s0)
8000110e:	17f1                	addi	a5,a5,-4
80001110:	fef42223          	sw	a5,-28(s0)
80001114:	fe442783          	lw	a5,-28(s0)
80001118:	0007a023          	sw	zero,0(a5)
8000111c:	fe842783          	lw	a5,-24(s0)
80001120:	fe442703          	lw	a4,-28(s0)
80001124:	dbd8                	sw	a4,52(a5)
80001126:	3c21                	jal	80000b3e <putcurrent>
80001128:	00002797          	auipc	a5,0x2
8000112c:	3b078793          	addi	a5,a5,944 # 800034d8 <current>
80001130:	fe842703          	lw	a4,-24(s0)
80001134:	c398                	sw	a4,0(a5)
80001136:	3421                	jal	80000b3e <putcurrent>
80001138:	00002797          	auipc	a5,0x2
8000113c:	3a078793          	addi	a5,a5,928 # 800034d8 <current>
80001140:	439c                	lw	a5,0(a5)
80001142:	853e                	mv	a0,a5
80001144:	50f2                	lw	ra,60(sp)
80001146:	5462                	lw	s0,56(sp)
80001148:	6121                	addi	sp,sp,64
8000114a:	8082                	ret

8000114c <thread_exit>:
8000114c:	1141                	addi	sp,sp,-16
8000114e:	c606                	sw	ra,12(sp)
80001150:	c422                	sw	s0,8(sp)
80001152:	0800                	addi	s0,sp,16
80001154:	00002797          	auipc	a5,0x2
80001158:	38478793          	addi	a5,a5,900 # 800034d8 <current>
8000115c:	439c                	lw	a5,0(a5)
8000115e:	0791                	addi	a5,a5,4
80001160:	853e                	mv	a0,a5
80001162:	f82ff0ef          	jal	ra,800008e4 <puts_spike>
80001166:	00002517          	auipc	a0,0x2
8000116a:	0a250513          	addi	a0,a0,162 # 80003208 <rodata_start+0x2c>
8000116e:	f76ff0ef          	jal	ra,800008e4 <puts_spike>
80001172:	00002797          	auipc	a5,0x2
80001176:	36678793          	addi	a5,a5,870 # 800034d8 <current>
8000117a:	439c                	lw	a5,0(a5)
8000117c:	03800613          	li	a2,56
80001180:	4581                	li	a1,0
80001182:	853e                	mv	a0,a5
80001184:	b24ff0ef          	jal	ra,800004a8 <memset>
80001188:	4781                	li	a5,0
8000118a:	853e                	mv	a0,a5
8000118c:	40b2                	lw	ra,12(sp)
8000118e:	4422                	lw	s0,8(sp)
80001190:	0141                	addi	sp,sp,16
80001192:	8082                	ret

80001194 <thread_wait>:
80001194:	1141                	addi	sp,sp,-16
80001196:	c606                	sw	ra,12(sp)
80001198:	c422                	sw	s0,8(sp)
8000119a:	0800                	addi	s0,sp,16
8000119c:	324d                	jal	80000b3e <putcurrent>
8000119e:	4781                	li	a5,0
800011a0:	853e                	mv	a0,a5
800011a2:	40b2                	lw	ra,12(sp)
800011a4:	4422                	lw	s0,8(sp)
800011a6:	0141                	addi	sp,sp,16
800011a8:	8082                	ret

800011aa <thread_sleep>:
800011aa:	1141                	addi	sp,sp,-16
800011ac:	c622                	sw	s0,12(sp)
800011ae:	0800                	addi	s0,sp,16
800011b0:	4781                	li	a5,0
800011b2:	853e                	mv	a0,a5
800011b4:	4432                	lw	s0,12(sp)
800011b6:	0141                	addi	sp,sp,16
800011b8:	8082                	ret

800011ba <thread_wakeup>:
800011ba:	1101                	addi	sp,sp,-32
800011bc:	ce06                	sw	ra,28(sp)
800011be:	cc22                	sw	s0,24(sp)
800011c0:	1000                	addi	s0,sp,32
800011c2:	fea42623          	sw	a0,-20(s0)
800011c6:	3aa5                	jal	80000b3e <putcurrent>
800011c8:	fec42703          	lw	a4,-20(s0)
800011cc:	00002797          	auipc	a5,0x2
800011d0:	30c78793          	addi	a5,a5,780 # 800034d8 <current>
800011d4:	c398                	sw	a4,0(a5)
800011d6:	32a5                	jal	80000b3e <putcurrent>
800011d8:	4781                	li	a5,0
800011da:	853e                	mv	a0,a5
800011dc:	40f2                	lw	ra,28(sp)
800011de:	4462                	lw	s0,24(sp)
800011e0:	6105                	addi	sp,sp,32
800011e2:	8082                	ret

800011e4 <thread_getid>:
800011e4:	1141                	addi	sp,sp,-16
800011e6:	c606                	sw	ra,12(sp)
800011e8:	c422                	sw	s0,8(sp)
800011ea:	0800                	addi	s0,sp,16
800011ec:	3a89                	jal	80000b3e <putcurrent>
800011ee:	00002797          	auipc	a5,0x2
800011f2:	2ea78793          	addi	a5,a5,746 # 800034d8 <current>
800011f6:	439c                	lw	a5,0(a5)
800011f8:	853e                	mv	a0,a5
800011fa:	40b2                	lw	ra,12(sp)
800011fc:	4422                	lw	s0,8(sp)
800011fe:	0141                	addi	sp,sp,16
80001200:	8082                	ret

80001202 <thread_chpri>:
80001202:	7179                	addi	sp,sp,-48
80001204:	d606                	sw	ra,44(sp)
80001206:	d422                	sw	s0,40(sp)
80001208:	1800                	addi	s0,sp,48
8000120a:	fca42e23          	sw	a0,-36(s0)
8000120e:	00002797          	auipc	a5,0x2
80001212:	2ca78793          	addi	a5,a5,714 # 800034d8 <current>
80001216:	439c                	lw	a5,0(a5)
80001218:	4bdc                	lw	a5,20(a5)
8000121a:	fef42623          	sw	a5,-20(s0)
8000121e:	fdc42783          	lw	a5,-36(s0)
80001222:	0007ca63          	bltz	a5,80001236 <thread_chpri+0x34>
80001226:	00002797          	auipc	a5,0x2
8000122a:	2b278793          	addi	a5,a5,690 # 800034d8 <current>
8000122e:	439c                	lw	a5,0(a5)
80001230:	fdc42703          	lw	a4,-36(s0)
80001234:	cbd8                	sw	a4,20(a5)
80001236:	3221                	jal	80000b3e <putcurrent>
80001238:	fec42783          	lw	a5,-20(s0)
8000123c:	853e                	mv	a0,a5
8000123e:	50b2                	lw	ra,44(sp)
80001240:	5422                	lw	s0,40(sp)
80001242:	6145                	addi	sp,sp,48
80001244:	8082                	ret

80001246 <thread_kmalloc>:
80001246:	1101                	addi	sp,sp,-32
80001248:	ce06                	sw	ra,28(sp)
8000124a:	cc22                	sw	s0,24(sp)
8000124c:	1000                	addi	s0,sp,32
8000124e:	fea42623          	sw	a0,-20(s0)
80001252:	30f5                	jal	80000b3e <putcurrent>
80001254:	fec42503          	lw	a0,-20(s0)
80001258:	249000ef          	jal	ra,80001ca0 <kzmem_alloc>
8000125c:	87aa                	mv	a5,a0
8000125e:	853e                	mv	a0,a5
80001260:	40f2                	lw	ra,28(sp)
80001262:	4462                	lw	s0,24(sp)
80001264:	6105                	addi	sp,sp,32
80001266:	8082                	ret

80001268 <thread_kmfree>:
80001268:	1101                	addi	sp,sp,-32
8000126a:	ce06                	sw	ra,28(sp)
8000126c:	cc22                	sw	s0,24(sp)
8000126e:	1000                	addi	s0,sp,32
80001270:	fea42623          	sw	a0,-20(s0)
80001274:	fec42503          	lw	a0,-20(s0)
80001278:	2bf000ef          	jal	ra,80001d36 <kzmem_free>
8000127c:	30c9                	jal	80000b3e <putcurrent>
8000127e:	4781                	li	a5,0
80001280:	853e                	mv	a0,a5
80001282:	40f2                	lw	ra,28(sp)
80001284:	4462                	lw	s0,24(sp)
80001286:	6105                	addi	sp,sp,32
80001288:	8082                	ret

8000128a <thread_send>:
8000128a:	7179                	addi	sp,sp,-48
8000128c:	d606                	sw	ra,44(sp)
8000128e:	d422                	sw	s0,40(sp)
80001290:	1800                	addi	s0,sp,48
80001292:	fca42e23          	sw	a0,-36(s0)
80001296:	fcb42c23          	sw	a1,-40(s0)
8000129a:	fcc42a23          	sw	a2,-44(s0)
8000129e:	fdc42703          	lw	a4,-36(s0)
800012a2:	87ba                	mv	a5,a4
800012a4:	0786                	slli	a5,a5,0x1
800012a6:	97ba                	add	a5,a5,a4
800012a8:	078a                	slli	a5,a5,0x2
800012aa:	00002717          	auipc	a4,0x2
800012ae:	38e70713          	addi	a4,a4,910 # 80003638 <msgboxes>
800012b2:	97ba                	add	a5,a5,a4
800012b4:	fef42623          	sw	a5,-20(s0)
800012b8:	3059                	jal	80000b3e <putcurrent>
800012ba:	00002797          	auipc	a5,0x2
800012be:	21e78793          	addi	a5,a5,542 # 800034d8 <current>
800012c2:	439c                	lw	a5,0(a5)
800012c4:	fd442683          	lw	a3,-44(s0)
800012c8:	fd842603          	lw	a2,-40(s0)
800012cc:	85be                	mv	a1,a5
800012ce:	fec42503          	lw	a0,-20(s0)
800012d2:	32a1                	jal	80000c1a <sendmsg>
800012d4:	fec42783          	lw	a5,-20(s0)
800012d8:	439c                	lw	a5,0(a5)
800012da:	cf89                	beqz	a5,800012f4 <thread_send+0x6a>
800012dc:	fec42783          	lw	a5,-20(s0)
800012e0:	4398                	lw	a4,0(a5)
800012e2:	00002797          	auipc	a5,0x2
800012e6:	1f678793          	addi	a5,a5,502 # 800034d8 <current>
800012ea:	c398                	sw	a4,0(a5)
800012ec:	fec42503          	lw	a0,-20(s0)
800012f0:	3a45                	jal	80000ca0 <recvmsg>
800012f2:	30b1                	jal	80000b3e <putcurrent>
800012f4:	fd842783          	lw	a5,-40(s0)
800012f8:	853e                	mv	a0,a5
800012fa:	50b2                	lw	ra,44(sp)
800012fc:	5422                	lw	s0,40(sp)
800012fe:	6145                	addi	sp,sp,48
80001300:	8082                	ret

80001302 <thread_recv>:
80001302:	7179                	addi	sp,sp,-48
80001304:	d606                	sw	ra,44(sp)
80001306:	d422                	sw	s0,40(sp)
80001308:	1800                	addi	s0,sp,48
8000130a:	fca42e23          	sw	a0,-36(s0)
8000130e:	fcb42c23          	sw	a1,-40(s0)
80001312:	fcc42a23          	sw	a2,-44(s0)
80001316:	fdc42703          	lw	a4,-36(s0)
8000131a:	87ba                	mv	a5,a4
8000131c:	0786                	slli	a5,a5,0x1
8000131e:	97ba                	add	a5,a5,a4
80001320:	078a                	slli	a5,a5,0x2
80001322:	00002717          	auipc	a4,0x2
80001326:	31670713          	addi	a4,a4,790 # 80003638 <msgboxes>
8000132a:	97ba                	add	a5,a5,a4
8000132c:	fef42623          	sw	a5,-20(s0)
80001330:	fec42783          	lw	a5,-20(s0)
80001334:	439c                	lw	a5,0(a5)
80001336:	c391                	beqz	a5,8000133a <thread_recv+0x38>
80001338:	21c5                	jal	80001818 <kz_sysdown>
8000133a:	00002797          	auipc	a5,0x2
8000133e:	19e78793          	addi	a5,a5,414 # 800034d8 <current>
80001342:	4398                	lw	a4,0(a5)
80001344:	fec42783          	lw	a5,-20(s0)
80001348:	c398                	sw	a4,0(a5)
8000134a:	fec42783          	lw	a5,-20(s0)
8000134e:	43dc                	lw	a5,4(a5)
80001350:	e399                	bnez	a5,80001356 <thread_recv+0x54>
80001352:	57fd                	li	a5,-1
80001354:	a829                	j	8000136e <thread_recv+0x6c>
80001356:	fec42503          	lw	a0,-20(s0)
8000135a:	3299                	jal	80000ca0 <recvmsg>
8000135c:	fe2ff0ef          	jal	ra,80000b3e <putcurrent>
80001360:	00002797          	auipc	a5,0x2
80001364:	17878793          	addi	a5,a5,376 # 800034d8 <current>
80001368:	439c                	lw	a5,0(a5)
8000136a:	5b9c                	lw	a5,48(a5)
8000136c:	47dc                	lw	a5,12(a5)
8000136e:	853e                	mv	a0,a5
80001370:	50b2                	lw	ra,44(sp)
80001372:	5422                	lw	s0,40(sp)
80001374:	6145                	addi	sp,sp,48
80001376:	8082                	ret

80001378 <thread_setintr>:
80001378:	1101                	addi	sp,sp,-32
8000137a:	ce06                	sw	ra,28(sp)
8000137c:	cc22                	sw	s0,24(sp)
8000137e:	1000                	addi	s0,sp,32
80001380:	87aa                	mv	a5,a0
80001382:	feb42423          	sw	a1,-24(s0)
80001386:	fef41723          	sh	a5,-18(s0)
8000138a:	fee41783          	lh	a5,-18(s0)
8000138e:	00002717          	auipc	a4,0x2
80001392:	29e70713          	addi	a4,a4,670 # 8000362c <handlers>
80001396:	078a                	slli	a5,a5,0x2
80001398:	97ba                	add	a5,a5,a4
8000139a:	fe842703          	lw	a4,-24(s0)
8000139e:	c398                	sw	a4,0(a5)
800013a0:	f9eff0ef          	jal	ra,80000b3e <putcurrent>
800013a4:	4781                	li	a5,0
800013a6:	853e                	mv	a0,a5
800013a8:	40f2                	lw	ra,28(sp)
800013aa:	4462                	lw	s0,24(sp)
800013ac:	6105                	addi	sp,sp,32
800013ae:	8082                	ret

800013b0 <call_functions>:
800013b0:	1101                	addi	sp,sp,-32
800013b2:	ce06                	sw	ra,28(sp)
800013b4:	cc22                	sw	s0,24(sp)
800013b6:	1000                	addi	s0,sp,32
800013b8:	fea42623          	sw	a0,-20(s0)
800013bc:	feb42423          	sw	a1,-24(s0)
800013c0:	fec42703          	lw	a4,-20(s0)
800013c4:	47ad                	li	a5,11
800013c6:	12e7e963          	bltu	a5,a4,800014f8 <call_functions+0x148>
800013ca:	fec42783          	lw	a5,-20(s0)
800013ce:	00279713          	slli	a4,a5,0x2
800013d2:	00002797          	auipc	a5,0x2
800013d6:	e3e78793          	addi	a5,a5,-450 # 80003210 <rodata_start+0x34>
800013da:	97ba                	add	a5,a5,a4
800013dc:	4398                	lw	a4,0(a5)
800013de:	00002797          	auipc	a5,0x2
800013e2:	e3278793          	addi	a5,a5,-462 # 80003210 <rodata_start+0x34>
800013e6:	97ba                	add	a5,a5,a4
800013e8:	8782                	jr	a5
800013ea:	fe842783          	lw	a5,-24(s0)
800013ee:	4388                	lw	a0,0(a5)
800013f0:	fe842783          	lw	a5,-24(s0)
800013f4:	43cc                	lw	a1,4(a5)
800013f6:	fe842783          	lw	a5,-24(s0)
800013fa:	4790                	lw	a2,8(a5)
800013fc:	fe842783          	lw	a5,-24(s0)
80001400:	47d4                	lw	a3,12(a5)
80001402:	fe842783          	lw	a5,-24(s0)
80001406:	4b98                	lw	a4,16(a5)
80001408:	fe842783          	lw	a5,-24(s0)
8000140c:	4bdc                	lw	a5,20(a5)
8000140e:	3a8d                	jal	80000d80 <thread_run>
80001410:	872a                	mv	a4,a0
80001412:	fe842783          	lw	a5,-24(s0)
80001416:	cf98                	sw	a4,24(a5)
80001418:	a0cd                	j	800014fa <call_functions+0x14a>
8000141a:	3b0d                	jal	8000114c <thread_exit>
8000141c:	a8f9                	j	800014fa <call_functions+0x14a>
8000141e:	3b9d                	jal	80001194 <thread_wait>
80001420:	872a                	mv	a4,a0
80001422:	fe842783          	lw	a5,-24(s0)
80001426:	c398                	sw	a4,0(a5)
80001428:	a8c9                	j	800014fa <call_functions+0x14a>
8000142a:	3341                	jal	800011aa <thread_sleep>
8000142c:	872a                	mv	a4,a0
8000142e:	fe842783          	lw	a5,-24(s0)
80001432:	c398                	sw	a4,0(a5)
80001434:	a0d9                	j	800014fa <call_functions+0x14a>
80001436:	fe842783          	lw	a5,-24(s0)
8000143a:	439c                	lw	a5,0(a5)
8000143c:	853e                	mv	a0,a5
8000143e:	3bb5                	jal	800011ba <thread_wakeup>
80001440:	872a                	mv	a4,a0
80001442:	fe842783          	lw	a5,-24(s0)
80001446:	c3d8                	sw	a4,4(a5)
80001448:	a84d                	j	800014fa <call_functions+0x14a>
8000144a:	3b69                	jal	800011e4 <thread_getid>
8000144c:	872a                	mv	a4,a0
8000144e:	fe842783          	lw	a5,-24(s0)
80001452:	c398                	sw	a4,0(a5)
80001454:	a05d                	j	800014fa <call_functions+0x14a>
80001456:	fe842783          	lw	a5,-24(s0)
8000145a:	439c                	lw	a5,0(a5)
8000145c:	853e                	mv	a0,a5
8000145e:	3355                	jal	80001202 <thread_chpri>
80001460:	872a                	mv	a4,a0
80001462:	fe842783          	lw	a5,-24(s0)
80001466:	c3d8                	sw	a4,4(a5)
80001468:	a849                	j	800014fa <call_functions+0x14a>
8000146a:	fe842783          	lw	a5,-24(s0)
8000146e:	439c                	lw	a5,0(a5)
80001470:	853e                	mv	a0,a5
80001472:	3bd1                	jal	80001246 <thread_kmalloc>
80001474:	872a                	mv	a4,a0
80001476:	fe842783          	lw	a5,-24(s0)
8000147a:	c3d8                	sw	a4,4(a5)
8000147c:	a8bd                	j	800014fa <call_functions+0x14a>
8000147e:	fe842783          	lw	a5,-24(s0)
80001482:	439c                	lw	a5,0(a5)
80001484:	853e                	mv	a0,a5
80001486:	33cd                	jal	80001268 <thread_kmfree>
80001488:	872a                	mv	a4,a0
8000148a:	fe842783          	lw	a5,-24(s0)
8000148e:	c3d8                	sw	a4,4(a5)
80001490:	a0ad                	j	800014fa <call_functions+0x14a>
80001492:	fe842783          	lw	a5,-24(s0)
80001496:	4398                	lw	a4,0(a5)
80001498:	fe842783          	lw	a5,-24(s0)
8000149c:	43d4                	lw	a3,4(a5)
8000149e:	fe842783          	lw	a5,-24(s0)
800014a2:	479c                	lw	a5,8(a5)
800014a4:	863e                	mv	a2,a5
800014a6:	85b6                	mv	a1,a3
800014a8:	853a                	mv	a0,a4
800014aa:	33c5                	jal	8000128a <thread_send>
800014ac:	872a                	mv	a4,a0
800014ae:	fe842783          	lw	a5,-24(s0)
800014b2:	c7d8                	sw	a4,12(a5)
800014b4:	a099                	j	800014fa <call_functions+0x14a>
800014b6:	fe842783          	lw	a5,-24(s0)
800014ba:	4398                	lw	a4,0(a5)
800014bc:	fe842783          	lw	a5,-24(s0)
800014c0:	43d4                	lw	a3,4(a5)
800014c2:	fe842783          	lw	a5,-24(s0)
800014c6:	479c                	lw	a5,8(a5)
800014c8:	863e                	mv	a2,a5
800014ca:	85b6                	mv	a1,a3
800014cc:	853a                	mv	a0,a4
800014ce:	3d15                	jal	80001302 <thread_recv>
800014d0:	872a                	mv	a4,a0
800014d2:	fe842783          	lw	a5,-24(s0)
800014d6:	c7d8                	sw	a4,12(a5)
800014d8:	a00d                	j	800014fa <call_functions+0x14a>
800014da:	fe842783          	lw	a5,-24(s0)
800014de:	00079703          	lh	a4,0(a5)
800014e2:	fe842783          	lw	a5,-24(s0)
800014e6:	43dc                	lw	a5,4(a5)
800014e8:	85be                	mv	a1,a5
800014ea:	853a                	mv	a0,a4
800014ec:	3571                	jal	80001378 <thread_setintr>
800014ee:	872a                	mv	a4,a0
800014f0:	fe842783          	lw	a5,-24(s0)
800014f4:	c798                	sw	a4,8(a5)
800014f6:	a011                	j	800014fa <call_functions+0x14a>
800014f8:	0001                	nop
800014fa:	0001                	nop
800014fc:	40f2                	lw	ra,28(sp)
800014fe:	4462                	lw	s0,24(sp)
80001500:	6105                	addi	sp,sp,32
80001502:	8082                	ret

80001504 <syscall_proc>:
80001504:	1101                	addi	sp,sp,-32
80001506:	ce06                	sw	ra,28(sp)
80001508:	cc22                	sw	s0,24(sp)
8000150a:	1000                	addi	s0,sp,32
8000150c:	fea42623          	sw	a0,-20(s0)
80001510:	feb42423          	sw	a1,-24(s0)
80001514:	d70ff0ef          	jal	ra,80000a84 <getcurrent>
80001518:	fe842583          	lw	a1,-24(s0)
8000151c:	fec42503          	lw	a0,-20(s0)
80001520:	3d41                	jal	800013b0 <call_functions>
80001522:	0001                	nop
80001524:	40f2                	lw	ra,28(sp)
80001526:	4462                	lw	s0,24(sp)
80001528:	6105                	addi	sp,sp,32
8000152a:	8082                	ret

8000152c <srvcall_proc>:
8000152c:	1101                	addi	sp,sp,-32
8000152e:	ce06                	sw	ra,28(sp)
80001530:	cc22                	sw	s0,24(sp)
80001532:	1000                	addi	s0,sp,32
80001534:	fea42623          	sw	a0,-20(s0)
80001538:	feb42423          	sw	a1,-24(s0)
8000153c:	00002797          	auipc	a5,0x2
80001540:	f9c78793          	addi	a5,a5,-100 # 800034d8 <current>
80001544:	0007a023          	sw	zero,0(a5)
80001548:	fe842583          	lw	a1,-24(s0)
8000154c:	fec42503          	lw	a0,-20(s0)
80001550:	3585                	jal	800013b0 <call_functions>
80001552:	0001                	nop
80001554:	40f2                	lw	ra,28(sp)
80001556:	4462                	lw	s0,24(sp)
80001558:	6105                	addi	sp,sp,32
8000155a:	8082                	ret

8000155c <schedule>:
8000155c:	1101                	addi	sp,sp,-32
8000155e:	ce06                	sw	ra,28(sp)
80001560:	cc22                	sw	s0,24(sp)
80001562:	1000                	addi	s0,sp,32
80001564:	fe042623          	sw	zero,-20(s0)
80001568:	a005                	j	80001588 <schedule+0x2c>
8000156a:	00002717          	auipc	a4,0x2
8000156e:	eee70713          	addi	a4,a4,-274 # 80003458 <readyque>
80001572:	fec42783          	lw	a5,-20(s0)
80001576:	078e                	slli	a5,a5,0x3
80001578:	97ba                	add	a5,a5,a4
8000157a:	439c                	lw	a5,0(a5)
8000157c:	ef81                	bnez	a5,80001594 <schedule+0x38>
8000157e:	fec42783          	lw	a5,-20(s0)
80001582:	0785                	addi	a5,a5,1
80001584:	fef42623          	sw	a5,-20(s0)
80001588:	fec42703          	lw	a4,-20(s0)
8000158c:	47bd                	li	a5,15
8000158e:	fce7dee3          	bge	a5,a4,8000156a <schedule+0xe>
80001592:	a011                	j	80001596 <schedule+0x3a>
80001594:	0001                	nop
80001596:	fec42703          	lw	a4,-20(s0)
8000159a:	47c1                	li	a5,16
8000159c:	00f71363          	bne	a4,a5,800015a2 <schedule+0x46>
800015a0:	2ca5                	jal	80001818 <kz_sysdown>
800015a2:	00002717          	auipc	a4,0x2
800015a6:	eb670713          	addi	a4,a4,-330 # 80003458 <readyque>
800015aa:	fec42783          	lw	a5,-20(s0)
800015ae:	078e                	slli	a5,a5,0x3
800015b0:	97ba                	add	a5,a5,a4
800015b2:	4398                	lw	a4,0(a5)
800015b4:	00002797          	auipc	a5,0x2
800015b8:	f2478793          	addi	a5,a5,-220 # 800034d8 <current>
800015bc:	c398                	sw	a4,0(a5)
800015be:	0001                	nop
800015c0:	40f2                	lw	ra,28(sp)
800015c2:	4462                	lw	s0,24(sp)
800015c4:	6105                	addi	sp,sp,32
800015c6:	8082                	ret

800015c8 <syscall_intr>:
800015c8:	1141                	addi	sp,sp,-16
800015ca:	c606                	sw	ra,12(sp)
800015cc:	c422                	sw	s0,8(sp)
800015ce:	0800                	addi	s0,sp,16
800015d0:	00002797          	auipc	a5,0x2
800015d4:	f0878793          	addi	a5,a5,-248 # 800034d8 <current>
800015d8:	439c                	lw	a5,0(a5)
800015da:	57d8                	lw	a4,44(a5)
800015dc:	00002797          	auipc	a5,0x2
800015e0:	efc78793          	addi	a5,a5,-260 # 800034d8 <current>
800015e4:	439c                	lw	a5,0(a5)
800015e6:	5b9c                	lw	a5,48(a5)
800015e8:	85be                	mv	a1,a5
800015ea:	853a                	mv	a0,a4
800015ec:	3f21                	jal	80001504 <syscall_proc>
800015ee:	0001                	nop
800015f0:	40b2                	lw	ra,12(sp)
800015f2:	4422                	lw	s0,8(sp)
800015f4:	0141                	addi	sp,sp,16
800015f6:	8082                	ret

800015f8 <softerr_intr>:
800015f8:	1101                	addi	sp,sp,-32
800015fa:	ce06                	sw	ra,28(sp)
800015fc:	cc22                	sw	s0,24(sp)
800015fe:	1000                	addi	s0,sp,32
80001600:	fea42623          	sw	a0,-20(s0)
80001604:	feb42423          	sw	a1,-24(s0)
80001608:	00002797          	auipc	a5,0x2
8000160c:	ed078793          	addi	a5,a5,-304 # 800034d8 <current>
80001610:	439c                	lw	a5,0(a5)
80001612:	0791                	addi	a5,a5,4
80001614:	853e                	mv	a0,a5
80001616:	aceff0ef          	jal	ra,800008e4 <puts_spike>
8000161a:	00002517          	auipc	a0,0x2
8000161e:	c2650513          	addi	a0,a0,-986 # 80003240 <rodata_start+0x64>
80001622:	ac2ff0ef          	jal	ra,800008e4 <puts_spike>
80001626:	fec42783          	lw	a5,-20(s0)
8000162a:	4581                	li	a1,0
8000162c:	853e                	mv	a0,a5
8000162e:	bb2ff0ef          	jal	ra,800009e0 <putxval>
80001632:	00002517          	auipc	a0,0x2
80001636:	c1e50513          	addi	a0,a0,-994 # 80003250 <rodata_start+0x74>
8000163a:	aaaff0ef          	jal	ra,800008e4 <puts_spike>
8000163e:	fe842783          	lw	a5,-24(s0)
80001642:	4581                	li	a1,0
80001644:	853e                	mv	a0,a5
80001646:	b9aff0ef          	jal	ra,800009e0 <putxval>
8000164a:	00002517          	auipc	a0,0x2
8000164e:	c0e50513          	addi	a0,a0,-1010 # 80003258 <rodata_start+0x7c>
80001652:	a92ff0ef          	jal	ra,800008e4 <puts_spike>
80001656:	c2eff0ef          	jal	ra,80000a84 <getcurrent>
8000165a:	3ccd                	jal	8000114c <thread_exit>
8000165c:	0001                	nop
8000165e:	40f2                	lw	ra,28(sp)
80001660:	4462                	lw	s0,24(sp)
80001662:	6105                	addi	sp,sp,32
80001664:	8082                	ret

80001666 <handle_sync_trap>:
80001666:	7179                	addi	sp,sp,-48
80001668:	d606                	sw	ra,44(sp)
8000166a:	d422                	sw	s0,40(sp)
8000166c:	1800                	addi	s0,sp,48
8000166e:	fca42e23          	sw	a0,-36(s0)
80001672:	00002797          	auipc	a5,0x2
80001676:	e6678793          	addi	a5,a5,-410 # 800034d8 <current>
8000167a:	439c                	lw	a5,0(a5)
8000167c:	fdc42703          	lw	a4,-36(s0)
80001680:	dbd8                	sw	a4,52(a5)
80001682:	342027f3          	csrr	a5,mcause
80001686:	fef42623          	sw	a5,-20(s0)
8000168a:	fec42783          	lw	a5,-20(s0)
8000168e:	fef42423          	sw	a5,-24(s0)
80001692:	341027f3          	csrr	a5,mepc
80001696:	fef42223          	sw	a5,-28(s0)
8000169a:	fe442783          	lw	a5,-28(s0)
8000169e:	fef42023          	sw	a5,-32(s0)
800016a2:	fe842703          	lw	a4,-24(s0)
800016a6:	47ad                	li	a5,11
800016a8:	00f71f63          	bne	a4,a5,800016c6 <handle_sync_trap+0x60>
800016ac:	fdc42783          	lw	a5,-36(s0)
800016b0:	08478793          	addi	a5,a5,132
800016b4:	4398                	lw	a4,0(a5)
800016b6:	fdc42783          	lw	a5,-36(s0)
800016ba:	08478793          	addi	a5,a5,132
800016be:	0711                	addi	a4,a4,4
800016c0:	c398                	sw	a4,0(a5)
800016c2:	3719                	jal	800015c8 <syscall_intr>
800016c4:	a031                	j	800016d0 <handle_sync_trap+0x6a>
800016c6:	fe042583          	lw	a1,-32(s0)
800016ca:	fe842503          	lw	a0,-24(s0)
800016ce:	372d                	jal	800015f8 <softerr_intr>
800016d0:	3571                	jal	8000155c <schedule>
800016d2:	00002797          	auipc	a5,0x2
800016d6:	e0678793          	addi	a5,a5,-506 # 800034d8 <current>
800016da:	439c                	lw	a5,0(a5)
800016dc:	03478793          	addi	a5,a5,52
800016e0:	853e                	mv	a0,a5
800016e2:	92dfe0ef          	jal	ra,8000000e <dispatch>
800016e6:	0001                	nop
800016e8:	50b2                	lw	ra,44(sp)
800016ea:	5422                	lw	s0,40(sp)
800016ec:	6145                	addi	sp,sp,48
800016ee:	8082                	ret

800016f0 <handle_m_external_interrupt>:
800016f0:	7179                	addi	sp,sp,-48
800016f2:	d606                	sw	ra,44(sp)
800016f4:	d422                	sw	s0,40(sp)
800016f6:	1800                	addi	s0,sp,48
800016f8:	fca42e23          	sw	a0,-36(s0)
800016fc:	0c2007b7          	lui	a5,0xc200
80001700:	0791                	addi	a5,a5,4
80001702:	439c                	lw	a5,0(a5)
80001704:	fef42623          	sw	a5,-20(s0)
80001708:	00002797          	auipc	a5,0x2
8000170c:	dd078793          	addi	a5,a5,-560 # 800034d8 <current>
80001710:	439c                	lw	a5,0(a5)
80001712:	fdc42703          	lw	a4,-36(s0)
80001716:	dbd8                	sw	a4,52(a5)
80001718:	00002797          	auipc	a5,0x2
8000171c:	f1478793          	addi	a5,a5,-236 # 8000362c <handlers>
80001720:	479c                	lw	a5,8(a5)
80001722:	9782                	jalr	a5
80001724:	3d25                	jal	8000155c <schedule>
80001726:	0c2007b7          	lui	a5,0xc200
8000172a:	0791                	addi	a5,a5,4
8000172c:	fec42703          	lw	a4,-20(s0)
80001730:	c398                	sw	a4,0(a5)
80001732:	00002797          	auipc	a5,0x2
80001736:	da678793          	addi	a5,a5,-602 # 800034d8 <current>
8000173a:	439c                	lw	a5,0(a5)
8000173c:	03478793          	addi	a5,a5,52
80001740:	853e                	mv	a0,a5
80001742:	8cdfe0ef          	jal	ra,8000000e <dispatch>
80001746:	0001                	nop
80001748:	50b2                	lw	ra,44(sp)
8000174a:	5422                	lw	s0,40(sp)
8000174c:	6145                	addi	sp,sp,48
8000174e:	8082                	ret

80001750 <kz_start>:
80001750:	7179                	addi	sp,sp,-48
80001752:	d606                	sw	ra,44(sp)
80001754:	d422                	sw	s0,40(sp)
80001756:	1800                	addi	s0,sp,48
80001758:	fea42623          	sw	a0,-20(s0)
8000175c:	feb42423          	sw	a1,-24(s0)
80001760:	fec42223          	sw	a2,-28(s0)
80001764:	fed42023          	sw	a3,-32(s0)
80001768:	fce42e23          	sw	a4,-36(s0)
8000176c:	fcf42c23          	sw	a5,-40(s0)
80001770:	21e5                	jal	80001c58 <kzmem_init>
80001772:	00002797          	auipc	a5,0x2
80001776:	d6678793          	addi	a5,a5,-666 # 800034d8 <current>
8000177a:	0007a023          	sw	zero,0(a5)
8000177e:	08000613          	li	a2,128
80001782:	4581                	li	a1,0
80001784:	00002517          	auipc	a0,0x2
80001788:	cd450513          	addi	a0,a0,-812 # 80003458 <readyque>
8000178c:	d1dfe0ef          	jal	ra,800004a8 <memset>
80001790:	15000613          	li	a2,336
80001794:	4581                	li	a1,0
80001796:	00002517          	auipc	a0,0x2
8000179a:	d4650513          	addi	a0,a0,-698 # 800034dc <threads>
8000179e:	d0bfe0ef          	jal	ra,800004a8 <memset>
800017a2:	4661                	li	a2,24
800017a4:	4581                	li	a1,0
800017a6:	00002517          	auipc	a0,0x2
800017aa:	e9250513          	addi	a0,a0,-366 # 80003638 <msgboxes>
800017ae:	cfbfe0ef          	jal	ra,800004a8 <memset>
800017b2:	9a5fe0ef          	jal	ra,80000156 <mtvec_init>
800017b6:	fd842783          	lw	a5,-40(s0)
800017ba:	fdc42703          	lw	a4,-36(s0)
800017be:	fe042683          	lw	a3,-32(s0)
800017c2:	fe442603          	lw	a2,-28(s0)
800017c6:	fe842583          	lw	a1,-24(s0)
800017ca:	fec42503          	lw	a0,-20(s0)
800017ce:	db2ff0ef          	jal	ra,80000d80 <thread_run>
800017d2:	87aa                	mv	a5,a0
800017d4:	873e                	mv	a4,a5
800017d6:	00002797          	auipc	a5,0x2
800017da:	d0278793          	addi	a5,a5,-766 # 800034d8 <current>
800017de:	c398                	sw	a4,0(a5)
800017e0:	00002797          	auipc	a5,0x2
800017e4:	cf878793          	addi	a5,a5,-776 # 800034d8 <current>
800017e8:	439c                	lw	a5,0(a5)
800017ea:	5394                	lw	a3,32(a5)
800017ec:	00002797          	auipc	a5,0x2
800017f0:	cec78793          	addi	a5,a5,-788 # 800034d8 <current>
800017f4:	439c                	lw	a5,0(a5)
800017f6:	53d8                	lw	a4,36(a5)
800017f8:	00002797          	auipc	a5,0x2
800017fc:	ce078793          	addi	a5,a5,-800 # 800034d8 <current>
80001800:	439c                	lw	a5,0(a5)
80001802:	579c                	lw	a5,40(a5)
80001804:	85be                	mv	a1,a5
80001806:	853a                	mv	a0,a4
80001808:	9682                	jalr	a3
8000180a:	d30ff0ef          	jal	ra,80000d3a <thread_end>
8000180e:	0001                	nop
80001810:	50b2                	lw	ra,44(sp)
80001812:	5422                	lw	s0,40(sp)
80001814:	6145                	addi	sp,sp,48
80001816:	8082                	ret

80001818 <kz_sysdown>:
80001818:	1141                	addi	sp,sp,-16
8000181a:	c606                	sw	ra,12(sp)
8000181c:	c422                	sw	s0,8(sp)
8000181e:	0800                	addi	s0,sp,16
80001820:	00002517          	auipc	a0,0x2
80001824:	a3c50513          	addi	a0,a0,-1476 # 8000325c <rodata_start+0x80>
80001828:	8bcff0ef          	jal	ra,800008e4 <puts_spike>
8000182c:	a001                	j	8000182c <kz_sysdown+0x14>

8000182e <kz_syscall>:
8000182e:	1101                	addi	sp,sp,-32
80001830:	ce22                	sw	s0,28(sp)
80001832:	1000                	addi	s0,sp,32
80001834:	fea42623          	sw	a0,-20(s0)
80001838:	feb42423          	sw	a1,-24(s0)
8000183c:	00002797          	auipc	a5,0x2
80001840:	c9c78793          	addi	a5,a5,-868 # 800034d8 <current>
80001844:	439c                	lw	a5,0(a5)
80001846:	fec42703          	lw	a4,-20(s0)
8000184a:	d7d8                	sw	a4,44(a5)
8000184c:	00002797          	auipc	a5,0x2
80001850:	c8c78793          	addi	a5,a5,-884 # 800034d8 <current>
80001854:	439c                	lw	a5,0(a5)
80001856:	fe842703          	lw	a4,-24(s0)
8000185a:	db98                	sw	a4,48(a5)
8000185c:	00000073          	ecall
80001860:	0001                	nop
80001862:	4472                	lw	s0,28(sp)
80001864:	6105                	addi	sp,sp,32
80001866:	8082                	ret

80001868 <kz_srvcall>:
80001868:	1101                	addi	sp,sp,-32
8000186a:	ce06                	sw	ra,28(sp)
8000186c:	cc22                	sw	s0,24(sp)
8000186e:	1000                	addi	s0,sp,32
80001870:	fea42623          	sw	a0,-20(s0)
80001874:	feb42423          	sw	a1,-24(s0)
80001878:	fe842583          	lw	a1,-24(s0)
8000187c:	fec42503          	lw	a0,-20(s0)
80001880:	3175                	jal	8000152c <srvcall_proc>
80001882:	0001                	nop
80001884:	40f2                	lw	ra,28(sp)
80001886:	4462                	lw	s0,24(sp)
80001888:	6105                	addi	sp,sp,32
8000188a:	8082                	ret

8000188c <kz_run>:
8000188c:	715d                	addi	sp,sp,-80
8000188e:	c686                	sw	ra,76(sp)
80001890:	c4a2                	sw	s0,72(sp)
80001892:	0880                	addi	s0,sp,80
80001894:	fca42623          	sw	a0,-52(s0)
80001898:	fcb42423          	sw	a1,-56(s0)
8000189c:	fcc42223          	sw	a2,-60(s0)
800018a0:	fcd42023          	sw	a3,-64(s0)
800018a4:	fae42e23          	sw	a4,-68(s0)
800018a8:	faf42c23          	sw	a5,-72(s0)
800018ac:	fcc42783          	lw	a5,-52(s0)
800018b0:	fcf42a23          	sw	a5,-44(s0)
800018b4:	fc842783          	lw	a5,-56(s0)
800018b8:	fcf42c23          	sw	a5,-40(s0)
800018bc:	fc442783          	lw	a5,-60(s0)
800018c0:	fcf42e23          	sw	a5,-36(s0)
800018c4:	fc042783          	lw	a5,-64(s0)
800018c8:	fef42023          	sw	a5,-32(s0)
800018cc:	fbc42783          	lw	a5,-68(s0)
800018d0:	fef42223          	sw	a5,-28(s0)
800018d4:	fb842783          	lw	a5,-72(s0)
800018d8:	fef42423          	sw	a5,-24(s0)
800018dc:	fd440793          	addi	a5,s0,-44
800018e0:	85be                	mv	a1,a5
800018e2:	4501                	li	a0,0
800018e4:	37a9                	jal	8000182e <kz_syscall>
800018e6:	fec42783          	lw	a5,-20(s0)
800018ea:	853e                	mv	a0,a5
800018ec:	40b6                	lw	ra,76(sp)
800018ee:	4426                	lw	s0,72(sp)
800018f0:	6161                	addi	sp,sp,80
800018f2:	8082                	ret

800018f4 <kz_exit>:
800018f4:	1141                	addi	sp,sp,-16
800018f6:	c606                	sw	ra,12(sp)
800018f8:	c422                	sw	s0,8(sp)
800018fa:	0800                	addi	s0,sp,16
800018fc:	4581                	li	a1,0
800018fe:	4505                	li	a0,1
80001900:	373d                	jal	8000182e <kz_syscall>
80001902:	0001                	nop
80001904:	40b2                	lw	ra,12(sp)
80001906:	4422                	lw	s0,8(sp)
80001908:	0141                	addi	sp,sp,16
8000190a:	8082                	ret

8000190c <kz_wait>:
8000190c:	7179                	addi	sp,sp,-48
8000190e:	d606                	sw	ra,44(sp)
80001910:	d422                	sw	s0,40(sp)
80001912:	1800                	addi	s0,sp,48
80001914:	fd440793          	addi	a5,s0,-44
80001918:	85be                	mv	a1,a5
8000191a:	4509                	li	a0,2
8000191c:	3f09                	jal	8000182e <kz_syscall>
8000191e:	fd442783          	lw	a5,-44(s0)
80001922:	853e                	mv	a0,a5
80001924:	50b2                	lw	ra,44(sp)
80001926:	5422                	lw	s0,40(sp)
80001928:	6145                	addi	sp,sp,48
8000192a:	8082                	ret

8000192c <kz_sleep>:
8000192c:	7179                	addi	sp,sp,-48
8000192e:	d606                	sw	ra,44(sp)
80001930:	d422                	sw	s0,40(sp)
80001932:	1800                	addi	s0,sp,48
80001934:	fd440793          	addi	a5,s0,-44
80001938:	85be                	mv	a1,a5
8000193a:	450d                	li	a0,3
8000193c:	3dcd                	jal	8000182e <kz_syscall>
8000193e:	fd442783          	lw	a5,-44(s0)
80001942:	853e                	mv	a0,a5
80001944:	50b2                	lw	ra,44(sp)
80001946:	5422                	lw	s0,40(sp)
80001948:	6145                	addi	sp,sp,48
8000194a:	8082                	ret

8000194c <kz_wakeup>:
8000194c:	7139                	addi	sp,sp,-64
8000194e:	de06                	sw	ra,60(sp)
80001950:	dc22                	sw	s0,56(sp)
80001952:	0080                	addi	s0,sp,64
80001954:	fca42623          	sw	a0,-52(s0)
80001958:	fcc42783          	lw	a5,-52(s0)
8000195c:	fcf42a23          	sw	a5,-44(s0)
80001960:	fd440793          	addi	a5,s0,-44
80001964:	85be                	mv	a1,a5
80001966:	4511                	li	a0,4
80001968:	35d9                	jal	8000182e <kz_syscall>
8000196a:	fd842783          	lw	a5,-40(s0)
8000196e:	853e                	mv	a0,a5
80001970:	50f2                	lw	ra,60(sp)
80001972:	5462                	lw	s0,56(sp)
80001974:	6121                	addi	sp,sp,64
80001976:	8082                	ret

80001978 <kz_getid>:
80001978:	7179                	addi	sp,sp,-48
8000197a:	d606                	sw	ra,44(sp)
8000197c:	d422                	sw	s0,40(sp)
8000197e:	1800                	addi	s0,sp,48
80001980:	fd440793          	addi	a5,s0,-44
80001984:	85be                	mv	a1,a5
80001986:	4515                	li	a0,5
80001988:	355d                	jal	8000182e <kz_syscall>
8000198a:	fd442783          	lw	a5,-44(s0)
8000198e:	853e                	mv	a0,a5
80001990:	50b2                	lw	ra,44(sp)
80001992:	5422                	lw	s0,40(sp)
80001994:	6145                	addi	sp,sp,48
80001996:	8082                	ret

80001998 <kz_chpri>:
80001998:	7139                	addi	sp,sp,-64
8000199a:	de06                	sw	ra,60(sp)
8000199c:	dc22                	sw	s0,56(sp)
8000199e:	0080                	addi	s0,sp,64
800019a0:	fca42623          	sw	a0,-52(s0)
800019a4:	fcc42783          	lw	a5,-52(s0)
800019a8:	fcf42a23          	sw	a5,-44(s0)
800019ac:	fd440793          	addi	a5,s0,-44
800019b0:	85be                	mv	a1,a5
800019b2:	4519                	li	a0,6
800019b4:	3dad                	jal	8000182e <kz_syscall>
800019b6:	fd842783          	lw	a5,-40(s0)
800019ba:	853e                	mv	a0,a5
800019bc:	50f2                	lw	ra,60(sp)
800019be:	5462                	lw	s0,56(sp)
800019c0:	6121                	addi	sp,sp,64
800019c2:	8082                	ret

800019c4 <kz_kmalloc>:
800019c4:	7139                	addi	sp,sp,-64
800019c6:	de06                	sw	ra,60(sp)
800019c8:	dc22                	sw	s0,56(sp)
800019ca:	0080                	addi	s0,sp,64
800019cc:	fca42623          	sw	a0,-52(s0)
800019d0:	fcc42783          	lw	a5,-52(s0)
800019d4:	fcf42a23          	sw	a5,-44(s0)
800019d8:	fd440793          	addi	a5,s0,-44
800019dc:	85be                	mv	a1,a5
800019de:	451d                	li	a0,7
800019e0:	35b9                	jal	8000182e <kz_syscall>
800019e2:	fd842783          	lw	a5,-40(s0)
800019e6:	853e                	mv	a0,a5
800019e8:	50f2                	lw	ra,60(sp)
800019ea:	5462                	lw	s0,56(sp)
800019ec:	6121                	addi	sp,sp,64
800019ee:	8082                	ret

800019f0 <kz_kmfree>:
800019f0:	7139                	addi	sp,sp,-64
800019f2:	de06                	sw	ra,60(sp)
800019f4:	dc22                	sw	s0,56(sp)
800019f6:	0080                	addi	s0,sp,64
800019f8:	fca42623          	sw	a0,-52(s0)
800019fc:	fcc42783          	lw	a5,-52(s0)
80001a00:	fcf42a23          	sw	a5,-44(s0)
80001a04:	fd440793          	addi	a5,s0,-44
80001a08:	85be                	mv	a1,a5
80001a0a:	4521                	li	a0,8
80001a0c:	350d                	jal	8000182e <kz_syscall>
80001a0e:	fd842783          	lw	a5,-40(s0)
80001a12:	853e                	mv	a0,a5
80001a14:	50f2                	lw	ra,60(sp)
80001a16:	5462                	lw	s0,56(sp)
80001a18:	6121                	addi	sp,sp,64
80001a1a:	8082                	ret

80001a1c <kz_send>:
80001a1c:	7139                	addi	sp,sp,-64
80001a1e:	de06                	sw	ra,60(sp)
80001a20:	dc22                	sw	s0,56(sp)
80001a22:	0080                	addi	s0,sp,64
80001a24:	fca42623          	sw	a0,-52(s0)
80001a28:	fcb42423          	sw	a1,-56(s0)
80001a2c:	fcc42223          	sw	a2,-60(s0)
80001a30:	00002517          	auipc	a0,0x2
80001a34:	83c50513          	addi	a0,a0,-1988 # 8000326c <rodata_start+0x90>
80001a38:	eadfe0ef          	jal	ra,800008e4 <puts_spike>
80001a3c:	fcc42783          	lw	a5,-52(s0)
80001a40:	fcf42a23          	sw	a5,-44(s0)
80001a44:	fc842783          	lw	a5,-56(s0)
80001a48:	fcf42c23          	sw	a5,-40(s0)
80001a4c:	fc442783          	lw	a5,-60(s0)
80001a50:	fcf42e23          	sw	a5,-36(s0)
80001a54:	fd440793          	addi	a5,s0,-44
80001a58:	85be                	mv	a1,a5
80001a5a:	4525                	li	a0,9
80001a5c:	3bc9                	jal	8000182e <kz_syscall>
80001a5e:	fe042783          	lw	a5,-32(s0)
80001a62:	853e                	mv	a0,a5
80001a64:	50f2                	lw	ra,60(sp)
80001a66:	5462                	lw	s0,56(sp)
80001a68:	6121                	addi	sp,sp,64
80001a6a:	8082                	ret

80001a6c <kz_recv>:
80001a6c:	7139                	addi	sp,sp,-64
80001a6e:	de06                	sw	ra,60(sp)
80001a70:	dc22                	sw	s0,56(sp)
80001a72:	0080                	addi	s0,sp,64
80001a74:	fca42623          	sw	a0,-52(s0)
80001a78:	fcb42423          	sw	a1,-56(s0)
80001a7c:	fcc42223          	sw	a2,-60(s0)
80001a80:	fcc42783          	lw	a5,-52(s0)
80001a84:	fcf42a23          	sw	a5,-44(s0)
80001a88:	fc842783          	lw	a5,-56(s0)
80001a8c:	fcf42c23          	sw	a5,-40(s0)
80001a90:	fc442783          	lw	a5,-60(s0)
80001a94:	fcf42e23          	sw	a5,-36(s0)
80001a98:	fd440793          	addi	a5,s0,-44
80001a9c:	85be                	mv	a1,a5
80001a9e:	4529                	li	a0,10
80001aa0:	3379                	jal	8000182e <kz_syscall>
80001aa2:	fe042783          	lw	a5,-32(s0)
80001aa6:	853e                	mv	a0,a5
80001aa8:	50f2                	lw	ra,60(sp)
80001aaa:	5462                	lw	s0,56(sp)
80001aac:	6121                	addi	sp,sp,64
80001aae:	8082                	ret

80001ab0 <kz_setintr>:
80001ab0:	7139                	addi	sp,sp,-64
80001ab2:	de06                	sw	ra,60(sp)
80001ab4:	dc22                	sw	s0,56(sp)
80001ab6:	0080                	addi	s0,sp,64
80001ab8:	87aa                	mv	a5,a0
80001aba:	fcb42423          	sw	a1,-56(s0)
80001abe:	fcf41723          	sh	a5,-50(s0)
80001ac2:	fce45783          	lhu	a5,-50(s0)
80001ac6:	fcf41a23          	sh	a5,-44(s0)
80001aca:	fc842783          	lw	a5,-56(s0)
80001ace:	fcf42c23          	sw	a5,-40(s0)
80001ad2:	fd440793          	addi	a5,s0,-44
80001ad6:	85be                	mv	a1,a5
80001ad8:	452d                	li	a0,11
80001ada:	3b91                	jal	8000182e <kz_syscall>
80001adc:	fdc42783          	lw	a5,-36(s0)
80001ae0:	853e                	mv	a0,a5
80001ae2:	50f2                	lw	ra,60(sp)
80001ae4:	5462                	lw	s0,56(sp)
80001ae6:	6121                	addi	sp,sp,64
80001ae8:	8082                	ret

80001aea <kx_wakeup>:
80001aea:	7139                	addi	sp,sp,-64
80001aec:	de06                	sw	ra,60(sp)
80001aee:	dc22                	sw	s0,56(sp)
80001af0:	0080                	addi	s0,sp,64
80001af2:	fca42623          	sw	a0,-52(s0)
80001af6:	fcc42783          	lw	a5,-52(s0)
80001afa:	fcf42a23          	sw	a5,-44(s0)
80001afe:	fd440793          	addi	a5,s0,-44
80001b02:	85be                	mv	a1,a5
80001b04:	4511                	li	a0,4
80001b06:	338d                	jal	80001868 <kz_srvcall>
80001b08:	fd842783          	lw	a5,-40(s0)
80001b0c:	853e                	mv	a0,a5
80001b0e:	50f2                	lw	ra,60(sp)
80001b10:	5462                	lw	s0,56(sp)
80001b12:	6121                	addi	sp,sp,64
80001b14:	8082                	ret

80001b16 <kx_kmalloc>:
80001b16:	7139                	addi	sp,sp,-64
80001b18:	de06                	sw	ra,60(sp)
80001b1a:	dc22                	sw	s0,56(sp)
80001b1c:	0080                	addi	s0,sp,64
80001b1e:	fca42623          	sw	a0,-52(s0)
80001b22:	fcc42783          	lw	a5,-52(s0)
80001b26:	fcf42a23          	sw	a5,-44(s0)
80001b2a:	fd440793          	addi	a5,s0,-44
80001b2e:	85be                	mv	a1,a5
80001b30:	451d                	li	a0,7
80001b32:	3b1d                	jal	80001868 <kz_srvcall>
80001b34:	fd842783          	lw	a5,-40(s0)
80001b38:	853e                	mv	a0,a5
80001b3a:	50f2                	lw	ra,60(sp)
80001b3c:	5462                	lw	s0,56(sp)
80001b3e:	6121                	addi	sp,sp,64
80001b40:	8082                	ret

80001b42 <kx_kmfree>:
80001b42:	7139                	addi	sp,sp,-64
80001b44:	de06                	sw	ra,60(sp)
80001b46:	dc22                	sw	s0,56(sp)
80001b48:	0080                	addi	s0,sp,64
80001b4a:	fca42623          	sw	a0,-52(s0)
80001b4e:	fcc42783          	lw	a5,-52(s0)
80001b52:	fcf42a23          	sw	a5,-44(s0)
80001b56:	fd440793          	addi	a5,s0,-44
80001b5a:	85be                	mv	a1,a5
80001b5c:	4521                	li	a0,8
80001b5e:	3329                	jal	80001868 <kz_srvcall>
80001b60:	fd842783          	lw	a5,-40(s0)
80001b64:	853e                	mv	a0,a5
80001b66:	50f2                	lw	ra,60(sp)
80001b68:	5462                	lw	s0,56(sp)
80001b6a:	6121                	addi	sp,sp,64
80001b6c:	8082                	ret

80001b6e <kx_send>:
80001b6e:	7139                	addi	sp,sp,-64
80001b70:	de06                	sw	ra,60(sp)
80001b72:	dc22                	sw	s0,56(sp)
80001b74:	0080                	addi	s0,sp,64
80001b76:	fca42623          	sw	a0,-52(s0)
80001b7a:	fcb42423          	sw	a1,-56(s0)
80001b7e:	fcc42223          	sw	a2,-60(s0)
80001b82:	fcc42783          	lw	a5,-52(s0)
80001b86:	fcf42a23          	sw	a5,-44(s0)
80001b8a:	fc842783          	lw	a5,-56(s0)
80001b8e:	fcf42c23          	sw	a5,-40(s0)
80001b92:	fc442783          	lw	a5,-60(s0)
80001b96:	fcf42e23          	sw	a5,-36(s0)
80001b9a:	fd440793          	addi	a5,s0,-44
80001b9e:	85be                	mv	a1,a5
80001ba0:	4525                	li	a0,9
80001ba2:	31d9                	jal	80001868 <kz_srvcall>
80001ba4:	fe042783          	lw	a5,-32(s0)
80001ba8:	853e                	mv	a0,a5
80001baa:	50f2                	lw	ra,60(sp)
80001bac:	5462                	lw	s0,56(sp)
80001bae:	6121                	addi	sp,sp,64
80001bb0:	8082                	ret

80001bb2 <kzmem_init_pool>:
80001bb2:	7179                	addi	sp,sp,-48
80001bb4:	d606                	sw	ra,44(sp)
80001bb6:	d422                	sw	s0,40(sp)
80001bb8:	1800                	addi	s0,sp,48
80001bba:	fca42e23          	sw	a0,-36(s0)
80001bbe:	00001797          	auipc	a5,0x1
80001bc2:	70678793          	addi	a5,a5,1798 # 800032c4 <area.1219>
80001bc6:	439c                	lw	a5,0(a5)
80001bc8:	fef42423          	sw	a5,-24(s0)
80001bcc:	fdc42783          	lw	a5,-36(s0)
80001bd0:	07a1                	addi	a5,a5,8
80001bd2:	fef42223          	sw	a5,-28(s0)
80001bd6:	fe042623          	sw	zero,-20(s0)
80001bda:	a095                	j	80001c3e <kzmem_init_pool+0x8c>
80001bdc:	fe442783          	lw	a5,-28(s0)
80001be0:	fe842703          	lw	a4,-24(s0)
80001be4:	c398                	sw	a4,0(a5)
80001be6:	4621                	li	a2,8
80001be8:	4581                	li	a1,0
80001bea:	fe842503          	lw	a0,-24(s0)
80001bee:	8bbfe0ef          	jal	ra,800004a8 <memset>
80001bf2:	fdc42783          	lw	a5,-36(s0)
80001bf6:	4398                	lw	a4,0(a5)
80001bf8:	fe842783          	lw	a5,-24(s0)
80001bfc:	c3d8                	sw	a4,4(a5)
80001bfe:	fe842783          	lw	a5,-24(s0)
80001c02:	fef42223          	sw	a5,-28(s0)
80001c06:	fdc42783          	lw	a5,-36(s0)
80001c0a:	439c                	lw	a5,0(a5)
80001c0c:	873e                	mv	a4,a5
80001c0e:	fe842783          	lw	a5,-24(s0)
80001c12:	97ba                	add	a5,a5,a4
80001c14:	fef42423          	sw	a5,-24(s0)
80001c18:	00001797          	auipc	a5,0x1
80001c1c:	6ac78793          	addi	a5,a5,1708 # 800032c4 <area.1219>
80001c20:	439c                	lw	a5,0(a5)
80001c22:	fdc42703          	lw	a4,-36(s0)
80001c26:	4318                	lw	a4,0(a4)
80001c28:	973e                	add	a4,a4,a5
80001c2a:	00001797          	auipc	a5,0x1
80001c2e:	69a78793          	addi	a5,a5,1690 # 800032c4 <area.1219>
80001c32:	c398                	sw	a4,0(a5)
80001c34:	fec42783          	lw	a5,-20(s0)
80001c38:	0785                	addi	a5,a5,1
80001c3a:	fef42623          	sw	a5,-20(s0)
80001c3e:	fdc42783          	lw	a5,-36(s0)
80001c42:	43dc                	lw	a5,4(a5)
80001c44:	fec42703          	lw	a4,-20(s0)
80001c48:	f8f74ae3          	blt	a4,a5,80001bdc <kzmem_init_pool+0x2a>
80001c4c:	4781                	li	a5,0
80001c4e:	853e                	mv	a0,a5
80001c50:	50b2                	lw	ra,44(sp)
80001c52:	5422                	lw	s0,40(sp)
80001c54:	6145                	addi	sp,sp,48
80001c56:	8082                	ret

80001c58 <kzmem_init>:
80001c58:	1101                	addi	sp,sp,-32
80001c5a:	ce06                	sw	ra,28(sp)
80001c5c:	cc22                	sw	s0,24(sp)
80001c5e:	1000                	addi	s0,sp,32
80001c60:	fe042623          	sw	zero,-20(s0)
80001c64:	a01d                	j	80001c8a <kzmem_init+0x32>
80001c66:	fec42703          	lw	a4,-20(s0)
80001c6a:	87ba                	mv	a5,a4
80001c6c:	0786                	slli	a5,a5,0x1
80001c6e:	97ba                	add	a5,a5,a4
80001c70:	078a                	slli	a5,a5,0x2
80001c72:	00001717          	auipc	a4,0x1
80001c76:	62270713          	addi	a4,a4,1570 # 80003294 <data_start>
80001c7a:	97ba                	add	a5,a5,a4
80001c7c:	853e                	mv	a0,a5
80001c7e:	3f15                	jal	80001bb2 <kzmem_init_pool>
80001c80:	fec42783          	lw	a5,-20(s0)
80001c84:	0785                	addi	a5,a5,1
80001c86:	fef42623          	sw	a5,-20(s0)
80001c8a:	fec42703          	lw	a4,-20(s0)
80001c8e:	4789                	li	a5,2
80001c90:	fce7fbe3          	bgeu	a5,a4,80001c66 <kzmem_init+0xe>
80001c94:	4781                	li	a5,0
80001c96:	853e                	mv	a0,a5
80001c98:	40f2                	lw	ra,28(sp)
80001c9a:	4462                	lw	s0,24(sp)
80001c9c:	6105                	addi	sp,sp,32
80001c9e:	8082                	ret

80001ca0 <kzmem_alloc>:
80001ca0:	7179                	addi	sp,sp,-48
80001ca2:	d606                	sw	ra,44(sp)
80001ca4:	d422                	sw	s0,40(sp)
80001ca6:	1800                	addi	s0,sp,48
80001ca8:	fca42e23          	sw	a0,-36(s0)
80001cac:	fe042623          	sw	zero,-20(s0)
80001cb0:	a0bd                	j	80001d1e <kzmem_alloc+0x7e>
80001cb2:	fec42703          	lw	a4,-20(s0)
80001cb6:	87ba                	mv	a5,a4
80001cb8:	0786                	slli	a5,a5,0x1
80001cba:	97ba                	add	a5,a5,a4
80001cbc:	078a                	slli	a5,a5,0x2
80001cbe:	00001717          	auipc	a4,0x1
80001cc2:	5d670713          	addi	a4,a4,1494 # 80003294 <data_start>
80001cc6:	97ba                	add	a5,a5,a4
80001cc8:	fef42423          	sw	a5,-24(s0)
80001ccc:	fe842783          	lw	a5,-24(s0)
80001cd0:	439c                	lw	a5,0(a5)
80001cd2:	ff878713          	addi	a4,a5,-8
80001cd6:	fdc42783          	lw	a5,-36(s0)
80001cda:	02f76d63          	bltu	a4,a5,80001d14 <kzmem_alloc+0x74>
80001cde:	fe842783          	lw	a5,-24(s0)
80001ce2:	479c                	lw	a5,8(a5)
80001ce4:	e781                	bnez	a5,80001cec <kzmem_alloc+0x4c>
80001ce6:	3e0d                	jal	80001818 <kz_sysdown>
80001ce8:	4781                	li	a5,0
80001cea:	a089                	j	80001d2c <kzmem_alloc+0x8c>
80001cec:	fe842783          	lw	a5,-24(s0)
80001cf0:	479c                	lw	a5,8(a5)
80001cf2:	fef42223          	sw	a5,-28(s0)
80001cf6:	fe842783          	lw	a5,-24(s0)
80001cfa:	479c                	lw	a5,8(a5)
80001cfc:	4398                	lw	a4,0(a5)
80001cfe:	fe842783          	lw	a5,-24(s0)
80001d02:	c798                	sw	a4,8(a5)
80001d04:	fe442783          	lw	a5,-28(s0)
80001d08:	0007a023          	sw	zero,0(a5)
80001d0c:	fe442783          	lw	a5,-28(s0)
80001d10:	07a1                	addi	a5,a5,8
80001d12:	a829                	j	80001d2c <kzmem_alloc+0x8c>
80001d14:	fec42783          	lw	a5,-20(s0)
80001d18:	0785                	addi	a5,a5,1
80001d1a:	fef42623          	sw	a5,-20(s0)
80001d1e:	fec42703          	lw	a4,-20(s0)
80001d22:	4789                	li	a5,2
80001d24:	f8e7f7e3          	bgeu	a5,a4,80001cb2 <kzmem_alloc+0x12>
80001d28:	3cc5                	jal	80001818 <kz_sysdown>
80001d2a:	4781                	li	a5,0
80001d2c:	853e                	mv	a0,a5
80001d2e:	50b2                	lw	ra,44(sp)
80001d30:	5422                	lw	s0,40(sp)
80001d32:	6145                	addi	sp,sp,48
80001d34:	8082                	ret

80001d36 <kzmem_free>:
80001d36:	7179                	addi	sp,sp,-48
80001d38:	d606                	sw	ra,44(sp)
80001d3a:	d422                	sw	s0,40(sp)
80001d3c:	1800                	addi	s0,sp,48
80001d3e:	fca42e23          	sw	a0,-36(s0)
80001d42:	fdc42783          	lw	a5,-36(s0)
80001d46:	17e1                	addi	a5,a5,-8
80001d48:	fef42423          	sw	a5,-24(s0)
80001d4c:	fe042623          	sw	zero,-20(s0)
80001d50:	a0b9                	j	80001d9e <kzmem_free+0x68>
80001d52:	fec42703          	lw	a4,-20(s0)
80001d56:	87ba                	mv	a5,a4
80001d58:	0786                	slli	a5,a5,0x1
80001d5a:	97ba                	add	a5,a5,a4
80001d5c:	078a                	slli	a5,a5,0x2
80001d5e:	00001717          	auipc	a4,0x1
80001d62:	53670713          	addi	a4,a4,1334 # 80003294 <data_start>
80001d66:	97ba                	add	a5,a5,a4
80001d68:	fef42223          	sw	a5,-28(s0)
80001d6c:	fe842783          	lw	a5,-24(s0)
80001d70:	43d8                	lw	a4,4(a5)
80001d72:	fe442783          	lw	a5,-28(s0)
80001d76:	439c                	lw	a5,0(a5)
80001d78:	00f71e63          	bne	a4,a5,80001d94 <kzmem_free+0x5e>
80001d7c:	fe442783          	lw	a5,-28(s0)
80001d80:	4798                	lw	a4,8(a5)
80001d82:	fe842783          	lw	a5,-24(s0)
80001d86:	c398                	sw	a4,0(a5)
80001d88:	fe442783          	lw	a5,-28(s0)
80001d8c:	fe842703          	lw	a4,-24(s0)
80001d90:	c798                	sw	a4,8(a5)
80001d92:	a821                	j	80001daa <kzmem_free+0x74>
80001d94:	fec42783          	lw	a5,-20(s0)
80001d98:	0785                	addi	a5,a5,1
80001d9a:	fef42623          	sw	a5,-20(s0)
80001d9e:	fec42703          	lw	a4,-20(s0)
80001da2:	4789                	li	a5,2
80001da4:	fae7f7e3          	bgeu	a5,a4,80001d52 <kzmem_free+0x1c>
80001da8:	3c85                	jal	80001818 <kz_sysdown>
80001daa:	50b2                	lw	ra,44(sp)
80001dac:	5422                	lw	s0,40(sp)
80001dae:	6145                	addi	sp,sp,48
80001db0:	8082                	ret

80001db2 <send_char>:
80001db2:	7179                	addi	sp,sp,-48
80001db4:	d606                	sw	ra,44(sp)
80001db6:	d422                	sw	s0,40(sp)
80001db8:	1800                	addi	s0,sp,48
80001dba:	fca42e23          	sw	a0,-36(s0)
80001dbe:	fdc42783          	lw	a5,-36(s0)
80001dc2:	43d8                	lw	a4,4(a5)
80001dc4:	fdc42783          	lw	a5,-36(s0)
80001dc8:	479c                	lw	a5,8(a5)
80001dca:	0007c783          	lbu	a5,0(a5)
80001dce:	85be                	mv	a1,a5
80001dd0:	853a                	mv	a0,a4
80001dd2:	c9cfe0ef          	jal	ra,8000026e <serial_send_byte>
80001dd6:	fdc42783          	lw	a5,-36(s0)
80001dda:	4b9c                	lw	a5,16(a5)
80001ddc:	fff78713          	addi	a4,a5,-1
80001de0:	fdc42783          	lw	a5,-36(s0)
80001de4:	cb98                	sw	a4,16(a5)
80001de6:	fe042623          	sw	zero,-20(s0)
80001dea:	a03d                	j	80001e18 <send_char+0x66>
80001dec:	fdc42783          	lw	a5,-36(s0)
80001df0:	4798                	lw	a4,8(a5)
80001df2:	fec42783          	lw	a5,-20(s0)
80001df6:	0785                	addi	a5,a5,1
80001df8:	973e                	add	a4,a4,a5
80001dfa:	fdc42783          	lw	a5,-36(s0)
80001dfe:	4794                	lw	a3,8(a5)
80001e00:	fec42783          	lw	a5,-20(s0)
80001e04:	97b6                	add	a5,a5,a3
80001e06:	00074703          	lbu	a4,0(a4)
80001e0a:	00e78023          	sb	a4,0(a5)
80001e0e:	fec42783          	lw	a5,-20(s0)
80001e12:	0785                	addi	a5,a5,1
80001e14:	fef42623          	sw	a5,-20(s0)
80001e18:	fdc42783          	lw	a5,-36(s0)
80001e1c:	4b9c                	lw	a5,16(a5)
80001e1e:	fec42703          	lw	a4,-20(s0)
80001e22:	fcf745e3          	blt	a4,a5,80001dec <send_char+0x3a>
80001e26:	0001                	nop
80001e28:	50b2                	lw	ra,44(sp)
80001e2a:	5422                	lw	s0,40(sp)
80001e2c:	6145                	addi	sp,sp,48
80001e2e:	8082                	ret

80001e30 <send_string>:
80001e30:	7179                	addi	sp,sp,-48
80001e32:	d606                	sw	ra,44(sp)
80001e34:	d422                	sw	s0,40(sp)
80001e36:	1800                	addi	s0,sp,48
80001e38:	fca42e23          	sw	a0,-36(s0)
80001e3c:	fcb42c23          	sw	a1,-40(s0)
80001e40:	fcc42a23          	sw	a2,-44(s0)
80001e44:	fe042623          	sw	zero,-20(s0)
80001e48:	a0a5                	j	80001eb0 <send_string+0x80>
80001e4a:	fec42783          	lw	a5,-20(s0)
80001e4e:	fd842703          	lw	a4,-40(s0)
80001e52:	97ba                	add	a5,a5,a4
80001e54:	0007c703          	lbu	a4,0(a5)
80001e58:	47a9                	li	a5,10
80001e5a:	02f71163          	bne	a4,a5,80001e7c <send_string+0x4c>
80001e5e:	fdc42783          	lw	a5,-36(s0)
80001e62:	4798                	lw	a4,8(a5)
80001e64:	fdc42783          	lw	a5,-36(s0)
80001e68:	4b9c                	lw	a5,16(a5)
80001e6a:	00178613          	addi	a2,a5,1
80001e6e:	fdc42683          	lw	a3,-36(s0)
80001e72:	ca90                	sw	a2,16(a3)
80001e74:	97ba                	add	a5,a5,a4
80001e76:	4735                	li	a4,13
80001e78:	00e78023          	sb	a4,0(a5)
80001e7c:	fec42783          	lw	a5,-20(s0)
80001e80:	fd842703          	lw	a4,-40(s0)
80001e84:	973e                	add	a4,a4,a5
80001e86:	fdc42783          	lw	a5,-36(s0)
80001e8a:	4794                	lw	a3,8(a5)
80001e8c:	fdc42783          	lw	a5,-36(s0)
80001e90:	4b9c                	lw	a5,16(a5)
80001e92:	00178593          	addi	a1,a5,1
80001e96:	fdc42603          	lw	a2,-36(s0)
80001e9a:	ca0c                	sw	a1,16(a2)
80001e9c:	97b6                	add	a5,a5,a3
80001e9e:	00074703          	lbu	a4,0(a4)
80001ea2:	00e78023          	sb	a4,0(a5)
80001ea6:	fec42783          	lw	a5,-20(s0)
80001eaa:	0785                	addi	a5,a5,1
80001eac:	fef42623          	sw	a5,-20(s0)
80001eb0:	fec42703          	lw	a4,-20(s0)
80001eb4:	fd442783          	lw	a5,-44(s0)
80001eb8:	f8f749e3          	blt	a4,a5,80001e4a <send_string+0x1a>
80001ebc:	fdc42783          	lw	a5,-36(s0)
80001ec0:	4b9c                	lw	a5,16(a5)
80001ec2:	c395                	beqz	a5,80001ee6 <send_string+0xb6>
80001ec4:	fdc42783          	lw	a5,-36(s0)
80001ec8:	43dc                	lw	a5,4(a5)
80001eca:	853e                	mv	a0,a5
80001ecc:	c8cfe0ef          	jal	ra,80000358 <serial_intr_is_send_enable>
80001ed0:	87aa                	mv	a5,a0
80001ed2:	eb91                	bnez	a5,80001ee6 <send_string+0xb6>
80001ed4:	fdc42783          	lw	a5,-36(s0)
80001ed8:	43dc                	lw	a5,4(a5)
80001eda:	853e                	mv	a0,a5
80001edc:	cb4fe0ef          	jal	ra,80000390 <serial_intr_send_enable>
80001ee0:	fdc42503          	lw	a0,-36(s0)
80001ee4:	35f9                	jal	80001db2 <send_char>
80001ee6:	0001                	nop
80001ee8:	50b2                	lw	ra,44(sp)
80001eea:	5422                	lw	s0,40(sp)
80001eec:	6145                	addi	sp,sp,48
80001eee:	8082                	ret

80001ef0 <consdrv_intrproc>:
80001ef0:	7179                	addi	sp,sp,-48
80001ef2:	d606                	sw	ra,44(sp)
80001ef4:	d422                	sw	s0,40(sp)
80001ef6:	1800                	addi	s0,sp,48
80001ef8:	fca42e23          	sw	a0,-36(s0)
80001efc:	fdc42783          	lw	a5,-36(s0)
80001f00:	43dc                	lw	a5,4(a5)
80001f02:	853e                	mv	a0,a5
80001f04:	bb4fe0ef          	jal	ra,800002b8 <serial_is_recv_enable>
80001f08:	87aa                	mv	a5,a0
80001f0a:	cfd9                	beqz	a5,80001fa8 <consdrv_intrproc+0xb8>
80001f0c:	fdc42783          	lw	a5,-36(s0)
80001f10:	43dc                	lw	a5,4(a5)
80001f12:	853e                	mv	a0,a5
80001f14:	c04fe0ef          	jal	ra,80000318 <serial_recv_byte>
80001f18:	87aa                	mv	a5,a0
80001f1a:	fef405a3          	sb	a5,-21(s0)
80001f1e:	feb44703          	lbu	a4,-21(s0)
80001f22:	47b5                	li	a5,13
80001f24:	00f71563          	bne	a4,a5,80001f2e <consdrv_intrproc+0x3e>
80001f28:	47a9                	li	a5,10
80001f2a:	fef405a3          	sb	a5,-21(s0)
80001f2e:	feb40793          	addi	a5,s0,-21
80001f32:	4605                	li	a2,1
80001f34:	85be                	mv	a1,a5
80001f36:	fdc42503          	lw	a0,-36(s0)
80001f3a:	3ddd                	jal	80001e30 <send_string>
80001f3c:	fdc42783          	lw	a5,-36(s0)
80001f40:	439c                	lw	a5,0(a5)
80001f42:	c3bd                	beqz	a5,80001fa8 <consdrv_intrproc+0xb8>
80001f44:	feb44703          	lbu	a4,-21(s0)
80001f48:	47a9                	li	a5,10
80001f4a:	02f70363          	beq	a4,a5,80001f70 <consdrv_intrproc+0x80>
80001f4e:	fdc42783          	lw	a5,-36(s0)
80001f52:	47d8                	lw	a4,12(a5)
80001f54:	fdc42783          	lw	a5,-36(s0)
80001f58:	4bdc                	lw	a5,20(a5)
80001f5a:	00178613          	addi	a2,a5,1
80001f5e:	fdc42683          	lw	a3,-36(s0)
80001f62:	cad0                	sw	a2,20(a3)
80001f64:	97ba                	add	a5,a5,a4
80001f66:	feb44703          	lbu	a4,-21(s0)
80001f6a:	00e78023          	sb	a4,0(a5)
80001f6e:	a82d                	j	80001fa8 <consdrv_intrproc+0xb8>
80001f70:	4561                	li	a0,24
80001f72:	3655                	jal	80001b16 <kx_kmalloc>
80001f74:	fea42623          	sw	a0,-20(s0)
80001f78:	fdc42783          	lw	a5,-36(s0)
80001f7c:	47d8                	lw	a4,12(a5)
80001f7e:	fdc42783          	lw	a5,-36(s0)
80001f82:	4bdc                	lw	a5,20(a5)
80001f84:	863e                	mv	a2,a5
80001f86:	85ba                	mv	a1,a4
80001f88:	fec42503          	lw	a0,-20(s0)
80001f8c:	d6efe0ef          	jal	ra,800004fa <memcpy>
80001f90:	fdc42783          	lw	a5,-36(s0)
80001f94:	4bdc                	lw	a5,20(a5)
80001f96:	fec42603          	lw	a2,-20(s0)
80001f9a:	85be                	mv	a1,a5
80001f9c:	4501                	li	a0,0
80001f9e:	3ec1                	jal	80001b6e <kx_send>
80001fa0:	fdc42783          	lw	a5,-36(s0)
80001fa4:	0007aa23          	sw	zero,20(a5)
80001fa8:	fdc42783          	lw	a5,-36(s0)
80001fac:	43dc                	lw	a5,4(a5)
80001fae:	853e                	mv	a0,a5
80001fb0:	a86fe0ef          	jal	ra,80000236 <serial_is_send_enable>
80001fb4:	87aa                	mv	a5,a0
80001fb6:	c39d                	beqz	a5,80001fdc <consdrv_intrproc+0xec>
80001fb8:	fdc42783          	lw	a5,-36(s0)
80001fbc:	439c                	lw	a5,0(a5)
80001fbe:	c789                	beqz	a5,80001fc8 <consdrv_intrproc+0xd8>
80001fc0:	fdc42783          	lw	a5,-36(s0)
80001fc4:	4b9c                	lw	a5,16(a5)
80001fc6:	eb81                	bnez	a5,80001fd6 <consdrv_intrproc+0xe6>
80001fc8:	fdc42783          	lw	a5,-36(s0)
80001fcc:	43dc                	lw	a5,4(a5)
80001fce:	853e                	mv	a0,a5
80001fd0:	bf8fe0ef          	jal	ra,800003c8 <serial_intr_send_disable>
80001fd4:	a021                	j	80001fdc <consdrv_intrproc+0xec>
80001fd6:	fdc42503          	lw	a0,-36(s0)
80001fda:	3be1                	jal	80001db2 <send_char>
80001fdc:	4781                	li	a5,0
80001fde:	853e                	mv	a0,a5
80001fe0:	50b2                	lw	ra,44(sp)
80001fe2:	5422                	lw	s0,40(sp)
80001fe4:	6145                	addi	sp,sp,48
80001fe6:	8082                	ret

80001fe8 <consdrv_intr>:
80001fe8:	1101                	addi	sp,sp,-32
80001fea:	ce06                	sw	ra,28(sp)
80001fec:	cc22                	sw	s0,24(sp)
80001fee:	1000                	addi	s0,sp,32
80001ff0:	fe042623          	sw	zero,-20(s0)
80001ff4:	a891                	j	80002048 <consdrv_intr+0x60>
80001ff6:	fec42703          	lw	a4,-20(s0)
80001ffa:	87ba                	mv	a5,a4
80001ffc:	0786                	slli	a5,a5,0x1
80001ffe:	97ba                	add	a5,a5,a4
80002000:	078e                	slli	a5,a5,0x3
80002002:	00001717          	auipc	a4,0x1
80002006:	64e70713          	addi	a4,a4,1614 # 80003650 <consreg>
8000200a:	97ba                	add	a5,a5,a4
8000200c:	fef42423          	sw	a5,-24(s0)
80002010:	fe842783          	lw	a5,-24(s0)
80002014:	439c                	lw	a5,0(a5)
80002016:	c785                	beqz	a5,8000203e <consdrv_intr+0x56>
80002018:	fe842783          	lw	a5,-24(s0)
8000201c:	43dc                	lw	a5,4(a5)
8000201e:	853e                	mv	a0,a5
80002020:	a16fe0ef          	jal	ra,80000236 <serial_is_send_enable>
80002024:	87aa                	mv	a5,a0
80002026:	eb89                	bnez	a5,80002038 <consdrv_intr+0x50>
80002028:	fe842783          	lw	a5,-24(s0)
8000202c:	43dc                	lw	a5,4(a5)
8000202e:	853e                	mv	a0,a5
80002030:	a88fe0ef          	jal	ra,800002b8 <serial_is_recv_enable>
80002034:	87aa                	mv	a5,a0
80002036:	c781                	beqz	a5,8000203e <consdrv_intr+0x56>
80002038:	fe842503          	lw	a0,-24(s0)
8000203c:	3d55                	jal	80001ef0 <consdrv_intrproc>
8000203e:	fec42783          	lw	a5,-20(s0)
80002042:	0785                	addi	a5,a5,1
80002044:	fef42623          	sw	a5,-20(s0)
80002048:	fec42783          	lw	a5,-20(s0)
8000204c:	faf055e3          	blez	a5,80001ff6 <consdrv_intr+0xe>
80002050:	0001                	nop
80002052:	40f2                	lw	ra,28(sp)
80002054:	4462                	lw	s0,24(sp)
80002056:	6105                	addi	sp,sp,32
80002058:	8082                	ret

8000205a <consdrv_init>:
8000205a:	1141                	addi	sp,sp,-16
8000205c:	c606                	sw	ra,12(sp)
8000205e:	c422                	sw	s0,8(sp)
80002060:	0800                	addi	s0,sp,16
80002062:	4661                	li	a2,24
80002064:	4581                	li	a1,0
80002066:	00001517          	auipc	a0,0x1
8000206a:	5ea50513          	addi	a0,a0,1514 # 80003650 <consreg>
8000206e:	c3afe0ef          	jal	ra,800004a8 <memset>
80002072:	4781                	li	a5,0
80002074:	853e                	mv	a0,a5
80002076:	40b2                	lw	ra,12(sp)
80002078:	4422                	lw	s0,8(sp)
8000207a:	0141                	addi	sp,sp,16
8000207c:	8082                	ret

8000207e <consdrv_command>:
8000207e:	7139                	addi	sp,sp,-64
80002080:	de06                	sw	ra,60(sp)
80002082:	dc22                	sw	s0,56(sp)
80002084:	0080                	addi	s0,sp,64
80002086:	fca42e23          	sw	a0,-36(s0)
8000208a:	fcb42c23          	sw	a1,-40(s0)
8000208e:	fcc42a23          	sw	a2,-44(s0)
80002092:	fcd42823          	sw	a3,-48(s0)
80002096:	fce42623          	sw	a4,-52(s0)
8000209a:	fcc42783          	lw	a5,-52(s0)
8000209e:	0007c783          	lbu	a5,0(a5)
800020a2:	07500713          	li	a4,117
800020a6:	00e78763          	beq	a5,a4,800020b4 <consdrv_command+0x36>
800020aa:	07700713          	li	a4,119
800020ae:	04e78963          	beq	a5,a4,80002100 <consdrv_command+0x82>
800020b2:	a8a5                	j	8000212a <consdrv_command+0xac>
800020b4:	fdc42783          	lw	a5,-36(s0)
800020b8:	fd842703          	lw	a4,-40(s0)
800020bc:	c398                	sw	a4,0(a5)
800020be:	fcc42783          	lw	a5,-52(s0)
800020c2:	0785                	addi	a5,a5,1
800020c4:	0007c783          	lbu	a5,0(a5)
800020c8:	fd078713          	addi	a4,a5,-48
800020cc:	fdc42783          	lw	a5,-36(s0)
800020d0:	c3d8                	sw	a4,4(a5)
800020d2:	4561                	li	a0,24
800020d4:	8f1ff0ef          	jal	ra,800019c4 <kz_kmalloc>
800020d8:	872a                	mv	a4,a0
800020da:	fdc42783          	lw	a5,-36(s0)
800020de:	c798                	sw	a4,8(a5)
800020e0:	4561                	li	a0,24
800020e2:	8e3ff0ef          	jal	ra,800019c4 <kz_kmalloc>
800020e6:	872a                	mv	a4,a0
800020e8:	fdc42783          	lw	a5,-36(s0)
800020ec:	c7d8                	sw	a4,12(a5)
800020ee:	fdc42783          	lw	a5,-36(s0)
800020f2:	0007a823          	sw	zero,16(a5)
800020f6:	fdc42783          	lw	a5,-36(s0)
800020fa:	0007aa23          	sw	zero,20(a5)
800020fe:	a035                	j	8000212a <consdrv_command+0xac>
80002100:	300477f3          	csrrci	a5,mstatus,8
80002104:	fef42623          	sw	a5,-20(s0)
80002108:	fcc42783          	lw	a5,-52(s0)
8000210c:	00178713          	addi	a4,a5,1
80002110:	fd042783          	lw	a5,-48(s0)
80002114:	17fd                	addi	a5,a5,-1
80002116:	863e                	mv	a2,a5
80002118:	85ba                	mv	a1,a4
8000211a:	fdc42503          	lw	a0,-36(s0)
8000211e:	3b09                	jal	80001e30 <send_string>
80002120:	300467f3          	csrrsi	a5,mstatus,8
80002124:	fef42423          	sw	a5,-24(s0)
80002128:	0001                	nop
8000212a:	4781                	li	a5,0
8000212c:	853e                	mv	a0,a5
8000212e:	50f2                	lw	ra,60(sp)
80002130:	5462                	lw	s0,56(sp)
80002132:	6121                	addi	sp,sp,64
80002134:	8082                	ret

80002136 <consdrv_main>:
80002136:	7179                	addi	sp,sp,-48
80002138:	d606                	sw	ra,44(sp)
8000213a:	d422                	sw	s0,40(sp)
8000213c:	1800                	addi	s0,sp,48
8000213e:	fca42e23          	sw	a0,-36(s0)
80002142:	fcb42c23          	sw	a1,-40(s0)
80002146:	3f11                	jal	8000205a <consdrv_init>
80002148:	00000597          	auipc	a1,0x0
8000214c:	ea058593          	addi	a1,a1,-352 # 80001fe8 <consdrv_intr>
80002150:	4509                	li	a0,2
80002152:	95fff0ef          	jal	ra,80001ab0 <kz_setintr>
80002156:	fe040713          	addi	a4,s0,-32
8000215a:	fe440793          	addi	a5,s0,-28
8000215e:	863a                	mv	a2,a4
80002160:	85be                	mv	a1,a5
80002162:	4505                	li	a0,1
80002164:	909ff0ef          	jal	ra,80001a6c <kz_recv>
80002168:	fea42623          	sw	a0,-20(s0)
8000216c:	fe042783          	lw	a5,-32(s0)
80002170:	0007c783          	lbu	a5,0(a5)
80002174:	fd078793          	addi	a5,a5,-48
80002178:	fef42423          	sw	a5,-24(s0)
8000217c:	fe842703          	lw	a4,-24(s0)
80002180:	87ba                	mv	a5,a4
80002182:	0786                	slli	a5,a5,0x1
80002184:	97ba                	add	a5,a5,a4
80002186:	078e                	slli	a5,a5,0x3
80002188:	00001717          	auipc	a4,0x1
8000218c:	4c870713          	addi	a4,a4,1224 # 80003650 <consreg>
80002190:	00e78533          	add	a0,a5,a4
80002194:	fe442783          	lw	a5,-28(s0)
80002198:	fff78693          	addi	a3,a5,-1
8000219c:	fe042783          	lw	a5,-32(s0)
800021a0:	0785                	addi	a5,a5,1
800021a2:	873e                	mv	a4,a5
800021a4:	fe842603          	lw	a2,-24(s0)
800021a8:	fec42583          	lw	a1,-20(s0)
800021ac:	3dc9                	jal	8000207e <consdrv_command>
800021ae:	fe042783          	lw	a5,-32(s0)
800021b2:	853e                	mv	a0,a5
800021b4:	83dff0ef          	jal	ra,800019f0 <kz_kmfree>
800021b8:	bf79                	j	80002156 <consdrv_main+0x20>

800021ba <send_use>:
800021ba:	7179                	addi	sp,sp,-48
800021bc:	d606                	sw	ra,44(sp)
800021be:	d422                	sw	s0,40(sp)
800021c0:	1800                	addi	s0,sp,48
800021c2:	fca42e23          	sw	a0,-36(s0)
800021c6:	450d                	li	a0,3
800021c8:	ffcff0ef          	jal	ra,800019c4 <kz_kmalloc>
800021cc:	fea42623          	sw	a0,-20(s0)
800021d0:	fec42783          	lw	a5,-20(s0)
800021d4:	03000713          	li	a4,48
800021d8:	00e78023          	sb	a4,0(a5)
800021dc:	fec42783          	lw	a5,-20(s0)
800021e0:	0785                	addi	a5,a5,1
800021e2:	07500713          	li	a4,117
800021e6:	00e78023          	sb	a4,0(a5)
800021ea:	fdc42783          	lw	a5,-36(s0)
800021ee:	0ff7f713          	andi	a4,a5,255
800021f2:	fec42783          	lw	a5,-20(s0)
800021f6:	0789                	addi	a5,a5,2
800021f8:	03070713          	addi	a4,a4,48
800021fc:	0ff77713          	andi	a4,a4,255
80002200:	00e78023          	sb	a4,0(a5)
80002204:	fec42603          	lw	a2,-20(s0)
80002208:	458d                	li	a1,3
8000220a:	4505                	li	a0,1
8000220c:	811ff0ef          	jal	ra,80001a1c <kz_send>
80002210:	0001                	nop
80002212:	50b2                	lw	ra,44(sp)
80002214:	5422                	lw	s0,40(sp)
80002216:	6145                	addi	sp,sp,48
80002218:	8082                	ret

8000221a <send_write>:
8000221a:	7179                	addi	sp,sp,-48
8000221c:	d606                	sw	ra,44(sp)
8000221e:	d422                	sw	s0,40(sp)
80002220:	1800                	addi	s0,sp,48
80002222:	fca42e23          	sw	a0,-36(s0)
80002226:	fdc42503          	lw	a0,-36(s0)
8000222a:	bb6fe0ef          	jal	ra,800005e0 <strlen>
8000222e:	fea42623          	sw	a0,-20(s0)
80002232:	fec42783          	lw	a5,-20(s0)
80002236:	0789                	addi	a5,a5,2
80002238:	853e                	mv	a0,a5
8000223a:	f8aff0ef          	jal	ra,800019c4 <kz_kmalloc>
8000223e:	fea42423          	sw	a0,-24(s0)
80002242:	fe842783          	lw	a5,-24(s0)
80002246:	03000713          	li	a4,48
8000224a:	00e78023          	sb	a4,0(a5)
8000224e:	fe842783          	lw	a5,-24(s0)
80002252:	0785                	addi	a5,a5,1
80002254:	07700713          	li	a4,119
80002258:	00e78023          	sb	a4,0(a5)
8000225c:	fe842783          	lw	a5,-24(s0)
80002260:	0789                	addi	a5,a5,2
80002262:	fec42603          	lw	a2,-20(s0)
80002266:	fdc42583          	lw	a1,-36(s0)
8000226a:	853e                	mv	a0,a5
8000226c:	a8efe0ef          	jal	ra,800004fa <memcpy>
80002270:	fec42783          	lw	a5,-20(s0)
80002274:	0789                	addi	a5,a5,2
80002276:	fe842603          	lw	a2,-24(s0)
8000227a:	85be                	mv	a1,a5
8000227c:	4505                	li	a0,1
8000227e:	f9eff0ef          	jal	ra,80001a1c <kz_send>
80002282:	0001                	nop
80002284:	50b2                	lw	ra,44(sp)
80002286:	5422                	lw	s0,40(sp)
80002288:	6145                	addi	sp,sp,48
8000228a:	8082                	ret

8000228c <command_main>:
8000228c:	7179                	addi	sp,sp,-48
8000228e:	d606                	sw	ra,44(sp)
80002290:	d422                	sw	s0,40(sp)
80002292:	1800                	addi	s0,sp,48
80002294:	fca42e23          	sw	a0,-36(s0)
80002298:	fcb42c23          	sw	a1,-40(s0)
8000229c:	4501                	li	a0,0
8000229e:	3f31                	jal	800021ba <send_use>
800022a0:	00001517          	auipc	a0,0x1
800022a4:	fd050513          	addi	a0,a0,-48 # 80003270 <rodata_start+0x94>
800022a8:	3f8d                	jal	8000221a <send_write>
800022aa:	fec40713          	addi	a4,s0,-20
800022ae:	fe840793          	addi	a5,s0,-24
800022b2:	863a                	mv	a2,a4
800022b4:	85be                	mv	a1,a5
800022b6:	4501                	li	a0,0
800022b8:	fb4ff0ef          	jal	ra,80001a6c <kz_recv>
800022bc:	fec42783          	lw	a5,-20(s0)
800022c0:	fe842703          	lw	a4,-24(s0)
800022c4:	97ba                	add	a5,a5,a4
800022c6:	00078023          	sb	zero,0(a5)
800022ca:	fec42783          	lw	a5,-20(s0)
800022ce:	4615                	li	a2,5
800022d0:	00001597          	auipc	a1,0x1
800022d4:	fac58593          	addi	a1,a1,-84 # 8000327c <rodata_start+0xa0>
800022d8:	853e                	mv	a0,a5
800022da:	c06fe0ef          	jal	ra,800006e0 <strncmp>
800022de:	87aa                	mv	a5,a0
800022e0:	ef81                	bnez	a5,800022f8 <command_main+0x6c>
800022e2:	fec42783          	lw	a5,-20(s0)
800022e6:	0795                	addi	a5,a5,5
800022e8:	853e                	mv	a0,a5
800022ea:	3f05                	jal	8000221a <send_write>
800022ec:	00001517          	auipc	a0,0x1
800022f0:	f9850513          	addi	a0,a0,-104 # 80003284 <rodata_start+0xa8>
800022f4:	371d                	jal	8000221a <send_write>
800022f6:	a031                	j	80002302 <command_main+0x76>
800022f8:	00001517          	auipc	a0,0x1
800022fc:	f9050513          	addi	a0,a0,-112 # 80003288 <rodata_start+0xac>
80002300:	3f29                	jal	8000221a <send_write>
80002302:	fec42783          	lw	a5,-20(s0)
80002306:	853e                	mv	a0,a5
80002308:	ee8ff0ef          	jal	ra,800019f0 <kz_kmfree>
8000230c:	bf51                	j	800022a0 <command_main+0x14>

Disassembly of section .text.entry:

80002400 <vtrap_entry>:
80002400:	a041                	j	80002480 <sync_trap>
80002402:	0001                	nop
80002404:	59d0006f          	j	800031a0 <handle_local_interrupt0>
80002408:	5990006f          	j	800031a0 <handle_local_interrupt0>
8000240c:	aa31                	j	80002528 <vmsi_Handler>
8000240e:	0001                	nop
80002410:	5910006f          	j	800031a0 <handle_local_interrupt0>
80002414:	58d0006f          	j	800031a0 <handle_local_interrupt0>
80002418:	5890006f          	j	800031a0 <handle_local_interrupt0>
8000241c:	aa55                	j	800025d0 <vmti_Handler>
8000241e:	0001                	nop
80002420:	5810006f          	j	800031a0 <handle_local_interrupt0>
80002424:	57d0006f          	j	800031a0 <handle_local_interrupt0>
80002428:	5790006f          	j	800031a0 <handle_local_interrupt0>
8000242c:	a4b1                	j	80002678 <vmei_Handler>
8000242e:	0001                	nop
80002430:	5710006f          	j	800031a0 <handle_local_interrupt0>
80002434:	56d0006f          	j	800031a0 <handle_local_interrupt0>
80002438:	5690006f          	j	800031a0 <handle_local_interrupt0>
8000243c:	5650006f          	j	800031a0 <handle_local_interrupt0>
80002440:	a4c5                	j	80002720 <vlip_Handler0>
80002442:	0001                	nop
80002444:	a651                	j	800027c8 <vlip_Handler1>
80002446:	0001                	nop
80002448:	a125                	j	80002870 <vlip_Handler2>
8000244a:	0001                	nop
8000244c:	a1f1                	j	80002918 <vlip_Handler3>
8000244e:	0001                	nop
80002450:	ab85                	j	800029c0 <vlip_Handler4>
80002452:	0001                	nop
80002454:	ad11                	j	80002a68 <vlip_Handler5>
80002456:	0001                	nop
80002458:	ad65                	j	80002b10 <vlip_Handler6>
8000245a:	0001                	nop
8000245c:	afb1                	j	80002bb8 <vlip_Handler7>
8000245e:	0001                	nop
80002460:	0010006f          	j	80002c60 <vlip_Handler8>
80002464:	0a50006f          	j	80002d08 <vlip_Handler9>
80002468:	1490006f          	j	80002db0 <vlip_Handler10>
8000246c:	1ed0006f          	j	80002e58 <vlip_Handler11>
80002470:	2910006f          	j	80002f00 <vlip_Handler12>
80002474:	3350006f          	j	80002fa8 <vlip_Handler13>
80002478:	3d90006f          	j	80003050 <vlip_Handler14>
8000247c:	47d0006f          	j	800030f8 <vlip_Handler15>

80002480 <sync_trap>:
80002480:	f7810113          	addi	sp,sp,-136
80002484:	c206                	sw	ra,4(sp)
80002486:	c60e                	sw	gp,12(sp)
80002488:	c812                	sw	tp,16(sp)
8000248a:	ca16                	sw	t0,20(sp)
8000248c:	cc1a                	sw	t1,24(sp)
8000248e:	ce1e                	sw	t2,28(sp)
80002490:	d022                	sw	s0,32(sp)
80002492:	d226                	sw	s1,36(sp)
80002494:	d42a                	sw	a0,40(sp)
80002496:	d62e                	sw	a1,44(sp)
80002498:	d832                	sw	a2,48(sp)
8000249a:	da36                	sw	a3,52(sp)
8000249c:	dc3a                	sw	a4,56(sp)
8000249e:	de3e                	sw	a5,60(sp)
800024a0:	c0c2                	sw	a6,64(sp)
800024a2:	c2c6                	sw	a7,68(sp)
800024a4:	c4ca                	sw	s2,72(sp)
800024a6:	c6ce                	sw	s3,76(sp)
800024a8:	c8d2                	sw	s4,80(sp)
800024aa:	cad6                	sw	s5,84(sp)
800024ac:	ccda                	sw	s6,88(sp)
800024ae:	cede                	sw	s7,92(sp)
800024b0:	d0e2                	sw	s8,96(sp)
800024b2:	d2e6                	sw	s9,100(sp)
800024b4:	d4ea                	sw	s10,104(sp)
800024b6:	d6ee                	sw	s11,108(sp)
800024b8:	d8f2                	sw	t3,112(sp)
800024ba:	daf6                	sw	t4,116(sp)
800024bc:	dcfa                	sw	t5,120(sp)
800024be:	defe                	sw	t6,124(sp)
800024c0:	341022f3          	csrr	t0,mepc
800024c4:	c316                	sw	t0,132(sp)
800024c6:	850a                	mv	a0,sp
800024c8:	828a                	mv	t0,sp
800024ca:	007fe117          	auipc	sp,0x7fe
800024ce:	b3610113          	addi	sp,sp,-1226 # 80800000 <intrstack>
800024d2:	1171                	addi	sp,sp,-4
800024d4:	c016                	sw	t0,0(sp)
800024d6:	990ff0ef          	jal	ra,80001666 <handle_sync_trap>
800024da:	4282                	lw	t0,0(sp)
800024dc:	8116                	mv	sp,t0
800024de:	429a                	lw	t0,132(sp)
800024e0:	34129073          	csrw	mepc,t0
800024e4:	4092                	lw	ra,4(sp)
800024e6:	41b2                	lw	gp,12(sp)
800024e8:	4242                	lw	tp,16(sp)
800024ea:	42d2                	lw	t0,20(sp)
800024ec:	4362                	lw	t1,24(sp)
800024ee:	43f2                	lw	t2,28(sp)
800024f0:	5402                	lw	s0,32(sp)
800024f2:	5492                	lw	s1,36(sp)
800024f4:	5522                	lw	a0,40(sp)
800024f6:	55b2                	lw	a1,44(sp)
800024f8:	5642                	lw	a2,48(sp)
800024fa:	56d2                	lw	a3,52(sp)
800024fc:	5762                	lw	a4,56(sp)
800024fe:	57f2                	lw	a5,60(sp)
80002500:	4806                	lw	a6,64(sp)
80002502:	4896                	lw	a7,68(sp)
80002504:	4926                	lw	s2,72(sp)
80002506:	49b6                	lw	s3,76(sp)
80002508:	4a46                	lw	s4,80(sp)
8000250a:	4ad6                	lw	s5,84(sp)
8000250c:	4b66                	lw	s6,88(sp)
8000250e:	4bf6                	lw	s7,92(sp)
80002510:	5c06                	lw	s8,96(sp)
80002512:	5c96                	lw	s9,100(sp)
80002514:	5d26                	lw	s10,104(sp)
80002516:	5db6                	lw	s11,108(sp)
80002518:	5e46                	lw	t3,112(sp)
8000251a:	5ed6                	lw	t4,116(sp)
8000251c:	5f66                	lw	t5,120(sp)
8000251e:	5ff6                	lw	t6,124(sp)
80002520:	08810113          	addi	sp,sp,136
80002524:	30200073          	mret

80002528 <vmsi_Handler>:
80002528:	f7810113          	addi	sp,sp,-136
8000252c:	c206                	sw	ra,4(sp)
8000252e:	c60e                	sw	gp,12(sp)
80002530:	c812                	sw	tp,16(sp)
80002532:	ca16                	sw	t0,20(sp)
80002534:	cc1a                	sw	t1,24(sp)
80002536:	ce1e                	sw	t2,28(sp)
80002538:	d022                	sw	s0,32(sp)
8000253a:	d226                	sw	s1,36(sp)
8000253c:	d42a                	sw	a0,40(sp)
8000253e:	d62e                	sw	a1,44(sp)
80002540:	d832                	sw	a2,48(sp)
80002542:	da36                	sw	a3,52(sp)
80002544:	dc3a                	sw	a4,56(sp)
80002546:	de3e                	sw	a5,60(sp)
80002548:	c0c2                	sw	a6,64(sp)
8000254a:	c2c6                	sw	a7,68(sp)
8000254c:	c4ca                	sw	s2,72(sp)
8000254e:	c6ce                	sw	s3,76(sp)
80002550:	c8d2                	sw	s4,80(sp)
80002552:	cad6                	sw	s5,84(sp)
80002554:	ccda                	sw	s6,88(sp)
80002556:	cede                	sw	s7,92(sp)
80002558:	d0e2                	sw	s8,96(sp)
8000255a:	d2e6                	sw	s9,100(sp)
8000255c:	d4ea                	sw	s10,104(sp)
8000255e:	d6ee                	sw	s11,108(sp)
80002560:	d8f2                	sw	t3,112(sp)
80002562:	daf6                	sw	t4,116(sp)
80002564:	dcfa                	sw	t5,120(sp)
80002566:	defe                	sw	t6,124(sp)
80002568:	341022f3          	csrr	t0,mepc
8000256c:	c316                	sw	t0,132(sp)
8000256e:	850a                	mv	a0,sp
80002570:	828a                	mv	t0,sp
80002572:	007fe117          	auipc	sp,0x7fe
80002576:	a8e10113          	addi	sp,sp,-1394 # 80800000 <intrstack>
8000257a:	1171                	addi	sp,sp,-4
8000257c:	c016                	sw	t0,0(sp)
8000257e:	423000ef          	jal	ra,800031a0 <handle_local_interrupt0>
80002582:	4282                	lw	t0,0(sp)
80002584:	8116                	mv	sp,t0
80002586:	429a                	lw	t0,132(sp)
80002588:	34129073          	csrw	mepc,t0
8000258c:	4092                	lw	ra,4(sp)
8000258e:	41b2                	lw	gp,12(sp)
80002590:	4242                	lw	tp,16(sp)
80002592:	42d2                	lw	t0,20(sp)
80002594:	4362                	lw	t1,24(sp)
80002596:	43f2                	lw	t2,28(sp)
80002598:	5402                	lw	s0,32(sp)
8000259a:	5492                	lw	s1,36(sp)
8000259c:	5522                	lw	a0,40(sp)
8000259e:	55b2                	lw	a1,44(sp)
800025a0:	5642                	lw	a2,48(sp)
800025a2:	56d2                	lw	a3,52(sp)
800025a4:	5762                	lw	a4,56(sp)
800025a6:	57f2                	lw	a5,60(sp)
800025a8:	4806                	lw	a6,64(sp)
800025aa:	4896                	lw	a7,68(sp)
800025ac:	4926                	lw	s2,72(sp)
800025ae:	49b6                	lw	s3,76(sp)
800025b0:	4a46                	lw	s4,80(sp)
800025b2:	4ad6                	lw	s5,84(sp)
800025b4:	4b66                	lw	s6,88(sp)
800025b6:	4bf6                	lw	s7,92(sp)
800025b8:	5c06                	lw	s8,96(sp)
800025ba:	5c96                	lw	s9,100(sp)
800025bc:	5d26                	lw	s10,104(sp)
800025be:	5db6                	lw	s11,108(sp)
800025c0:	5e46                	lw	t3,112(sp)
800025c2:	5ed6                	lw	t4,116(sp)
800025c4:	5f66                	lw	t5,120(sp)
800025c6:	5ff6                	lw	t6,124(sp)
800025c8:	08810113          	addi	sp,sp,136
800025cc:	30200073          	mret

800025d0 <vmti_Handler>:
800025d0:	f7810113          	addi	sp,sp,-136
800025d4:	c206                	sw	ra,4(sp)
800025d6:	c60e                	sw	gp,12(sp)
800025d8:	c812                	sw	tp,16(sp)
800025da:	ca16                	sw	t0,20(sp)
800025dc:	cc1a                	sw	t1,24(sp)
800025de:	ce1e                	sw	t2,28(sp)
800025e0:	d022                	sw	s0,32(sp)
800025e2:	d226                	sw	s1,36(sp)
800025e4:	d42a                	sw	a0,40(sp)
800025e6:	d62e                	sw	a1,44(sp)
800025e8:	d832                	sw	a2,48(sp)
800025ea:	da36                	sw	a3,52(sp)
800025ec:	dc3a                	sw	a4,56(sp)
800025ee:	de3e                	sw	a5,60(sp)
800025f0:	c0c2                	sw	a6,64(sp)
800025f2:	c2c6                	sw	a7,68(sp)
800025f4:	c4ca                	sw	s2,72(sp)
800025f6:	c6ce                	sw	s3,76(sp)
800025f8:	c8d2                	sw	s4,80(sp)
800025fa:	cad6                	sw	s5,84(sp)
800025fc:	ccda                	sw	s6,88(sp)
800025fe:	cede                	sw	s7,92(sp)
80002600:	d0e2                	sw	s8,96(sp)
80002602:	d2e6                	sw	s9,100(sp)
80002604:	d4ea                	sw	s10,104(sp)
80002606:	d6ee                	sw	s11,108(sp)
80002608:	d8f2                	sw	t3,112(sp)
8000260a:	daf6                	sw	t4,116(sp)
8000260c:	dcfa                	sw	t5,120(sp)
8000260e:	defe                	sw	t6,124(sp)
80002610:	341022f3          	csrr	t0,mepc
80002614:	c316                	sw	t0,132(sp)
80002616:	850a                	mv	a0,sp
80002618:	828a                	mv	t0,sp
8000261a:	007fe117          	auipc	sp,0x7fe
8000261e:	9e610113          	addi	sp,sp,-1562 # 80800000 <intrstack>
80002622:	1171                	addi	sp,sp,-4
80002624:	c016                	sw	t0,0(sp)
80002626:	37b000ef          	jal	ra,800031a0 <handle_local_interrupt0>
8000262a:	4282                	lw	t0,0(sp)
8000262c:	8116                	mv	sp,t0
8000262e:	429a                	lw	t0,132(sp)
80002630:	34129073          	csrw	mepc,t0
80002634:	4092                	lw	ra,4(sp)
80002636:	41b2                	lw	gp,12(sp)
80002638:	4242                	lw	tp,16(sp)
8000263a:	42d2                	lw	t0,20(sp)
8000263c:	4362                	lw	t1,24(sp)
8000263e:	43f2                	lw	t2,28(sp)
80002640:	5402                	lw	s0,32(sp)
80002642:	5492                	lw	s1,36(sp)
80002644:	5522                	lw	a0,40(sp)
80002646:	55b2                	lw	a1,44(sp)
80002648:	5642                	lw	a2,48(sp)
8000264a:	56d2                	lw	a3,52(sp)
8000264c:	5762                	lw	a4,56(sp)
8000264e:	57f2                	lw	a5,60(sp)
80002650:	4806                	lw	a6,64(sp)
80002652:	4896                	lw	a7,68(sp)
80002654:	4926                	lw	s2,72(sp)
80002656:	49b6                	lw	s3,76(sp)
80002658:	4a46                	lw	s4,80(sp)
8000265a:	4ad6                	lw	s5,84(sp)
8000265c:	4b66                	lw	s6,88(sp)
8000265e:	4bf6                	lw	s7,92(sp)
80002660:	5c06                	lw	s8,96(sp)
80002662:	5c96                	lw	s9,100(sp)
80002664:	5d26                	lw	s10,104(sp)
80002666:	5db6                	lw	s11,108(sp)
80002668:	5e46                	lw	t3,112(sp)
8000266a:	5ed6                	lw	t4,116(sp)
8000266c:	5f66                	lw	t5,120(sp)
8000266e:	5ff6                	lw	t6,124(sp)
80002670:	08810113          	addi	sp,sp,136
80002674:	30200073          	mret

80002678 <vmei_Handler>:
80002678:	f7810113          	addi	sp,sp,-136
8000267c:	c206                	sw	ra,4(sp)
8000267e:	c60e                	sw	gp,12(sp)
80002680:	c812                	sw	tp,16(sp)
80002682:	ca16                	sw	t0,20(sp)
80002684:	cc1a                	sw	t1,24(sp)
80002686:	ce1e                	sw	t2,28(sp)
80002688:	d022                	sw	s0,32(sp)
8000268a:	d226                	sw	s1,36(sp)
8000268c:	d42a                	sw	a0,40(sp)
8000268e:	d62e                	sw	a1,44(sp)
80002690:	d832                	sw	a2,48(sp)
80002692:	da36                	sw	a3,52(sp)
80002694:	dc3a                	sw	a4,56(sp)
80002696:	de3e                	sw	a5,60(sp)
80002698:	c0c2                	sw	a6,64(sp)
8000269a:	c2c6                	sw	a7,68(sp)
8000269c:	c4ca                	sw	s2,72(sp)
8000269e:	c6ce                	sw	s3,76(sp)
800026a0:	c8d2                	sw	s4,80(sp)
800026a2:	cad6                	sw	s5,84(sp)
800026a4:	ccda                	sw	s6,88(sp)
800026a6:	cede                	sw	s7,92(sp)
800026a8:	d0e2                	sw	s8,96(sp)
800026aa:	d2e6                	sw	s9,100(sp)
800026ac:	d4ea                	sw	s10,104(sp)
800026ae:	d6ee                	sw	s11,108(sp)
800026b0:	d8f2                	sw	t3,112(sp)
800026b2:	daf6                	sw	t4,116(sp)
800026b4:	dcfa                	sw	t5,120(sp)
800026b6:	defe                	sw	t6,124(sp)
800026b8:	341022f3          	csrr	t0,mepc
800026bc:	c316                	sw	t0,132(sp)
800026be:	850a                	mv	a0,sp
800026c0:	828a                	mv	t0,sp
800026c2:	007fe117          	auipc	sp,0x7fe
800026c6:	93e10113          	addi	sp,sp,-1730 # 80800000 <intrstack>
800026ca:	1171                	addi	sp,sp,-4
800026cc:	c016                	sw	t0,0(sp)
800026ce:	822ff0ef          	jal	ra,800016f0 <handle_m_external_interrupt>
800026d2:	4282                	lw	t0,0(sp)
800026d4:	8116                	mv	sp,t0
800026d6:	429a                	lw	t0,132(sp)
800026d8:	34129073          	csrw	mepc,t0
800026dc:	4092                	lw	ra,4(sp)
800026de:	41b2                	lw	gp,12(sp)
800026e0:	4242                	lw	tp,16(sp)
800026e2:	42d2                	lw	t0,20(sp)
800026e4:	4362                	lw	t1,24(sp)
800026e6:	43f2                	lw	t2,28(sp)
800026e8:	5402                	lw	s0,32(sp)
800026ea:	5492                	lw	s1,36(sp)
800026ec:	5522                	lw	a0,40(sp)
800026ee:	55b2                	lw	a1,44(sp)
800026f0:	5642                	lw	a2,48(sp)
800026f2:	56d2                	lw	a3,52(sp)
800026f4:	5762                	lw	a4,56(sp)
800026f6:	57f2                	lw	a5,60(sp)
800026f8:	4806                	lw	a6,64(sp)
800026fa:	4896                	lw	a7,68(sp)
800026fc:	4926                	lw	s2,72(sp)
800026fe:	49b6                	lw	s3,76(sp)
80002700:	4a46                	lw	s4,80(sp)
80002702:	4ad6                	lw	s5,84(sp)
80002704:	4b66                	lw	s6,88(sp)
80002706:	4bf6                	lw	s7,92(sp)
80002708:	5c06                	lw	s8,96(sp)
8000270a:	5c96                	lw	s9,100(sp)
8000270c:	5d26                	lw	s10,104(sp)
8000270e:	5db6                	lw	s11,108(sp)
80002710:	5e46                	lw	t3,112(sp)
80002712:	5ed6                	lw	t4,116(sp)
80002714:	5f66                	lw	t5,120(sp)
80002716:	5ff6                	lw	t6,124(sp)
80002718:	08810113          	addi	sp,sp,136
8000271c:	30200073          	mret

80002720 <vlip_Handler0>:
80002720:	f7810113          	addi	sp,sp,-136
80002724:	c206                	sw	ra,4(sp)
80002726:	c60e                	sw	gp,12(sp)
80002728:	c812                	sw	tp,16(sp)
8000272a:	ca16                	sw	t0,20(sp)
8000272c:	cc1a                	sw	t1,24(sp)
8000272e:	ce1e                	sw	t2,28(sp)
80002730:	d022                	sw	s0,32(sp)
80002732:	d226                	sw	s1,36(sp)
80002734:	d42a                	sw	a0,40(sp)
80002736:	d62e                	sw	a1,44(sp)
80002738:	d832                	sw	a2,48(sp)
8000273a:	da36                	sw	a3,52(sp)
8000273c:	dc3a                	sw	a4,56(sp)
8000273e:	de3e                	sw	a5,60(sp)
80002740:	c0c2                	sw	a6,64(sp)
80002742:	c2c6                	sw	a7,68(sp)
80002744:	c4ca                	sw	s2,72(sp)
80002746:	c6ce                	sw	s3,76(sp)
80002748:	c8d2                	sw	s4,80(sp)
8000274a:	cad6                	sw	s5,84(sp)
8000274c:	ccda                	sw	s6,88(sp)
8000274e:	cede                	sw	s7,92(sp)
80002750:	d0e2                	sw	s8,96(sp)
80002752:	d2e6                	sw	s9,100(sp)
80002754:	d4ea                	sw	s10,104(sp)
80002756:	d6ee                	sw	s11,108(sp)
80002758:	d8f2                	sw	t3,112(sp)
8000275a:	daf6                	sw	t4,116(sp)
8000275c:	dcfa                	sw	t5,120(sp)
8000275e:	defe                	sw	t6,124(sp)
80002760:	341022f3          	csrr	t0,mepc
80002764:	c316                	sw	t0,132(sp)
80002766:	850a                	mv	a0,sp
80002768:	828a                	mv	t0,sp
8000276a:	007fe117          	auipc	sp,0x7fe
8000276e:	89610113          	addi	sp,sp,-1898 # 80800000 <intrstack>
80002772:	1171                	addi	sp,sp,-4
80002774:	c016                	sw	t0,0(sp)
80002776:	22b000ef          	jal	ra,800031a0 <handle_local_interrupt0>
8000277a:	4282                	lw	t0,0(sp)
8000277c:	8116                	mv	sp,t0
8000277e:	429a                	lw	t0,132(sp)
80002780:	34129073          	csrw	mepc,t0
80002784:	4092                	lw	ra,4(sp)
80002786:	41b2                	lw	gp,12(sp)
80002788:	4242                	lw	tp,16(sp)
8000278a:	42d2                	lw	t0,20(sp)
8000278c:	4362                	lw	t1,24(sp)
8000278e:	43f2                	lw	t2,28(sp)
80002790:	5402                	lw	s0,32(sp)
80002792:	5492                	lw	s1,36(sp)
80002794:	5522                	lw	a0,40(sp)
80002796:	55b2                	lw	a1,44(sp)
80002798:	5642                	lw	a2,48(sp)
8000279a:	56d2                	lw	a3,52(sp)
8000279c:	5762                	lw	a4,56(sp)
8000279e:	57f2                	lw	a5,60(sp)
800027a0:	4806                	lw	a6,64(sp)
800027a2:	4896                	lw	a7,68(sp)
800027a4:	4926                	lw	s2,72(sp)
800027a6:	49b6                	lw	s3,76(sp)
800027a8:	4a46                	lw	s4,80(sp)
800027aa:	4ad6                	lw	s5,84(sp)
800027ac:	4b66                	lw	s6,88(sp)
800027ae:	4bf6                	lw	s7,92(sp)
800027b0:	5c06                	lw	s8,96(sp)
800027b2:	5c96                	lw	s9,100(sp)
800027b4:	5d26                	lw	s10,104(sp)
800027b6:	5db6                	lw	s11,108(sp)
800027b8:	5e46                	lw	t3,112(sp)
800027ba:	5ed6                	lw	t4,116(sp)
800027bc:	5f66                	lw	t5,120(sp)
800027be:	5ff6                	lw	t6,124(sp)
800027c0:	08810113          	addi	sp,sp,136
800027c4:	30200073          	mret

800027c8 <vlip_Handler1>:
800027c8:	f7810113          	addi	sp,sp,-136
800027cc:	c206                	sw	ra,4(sp)
800027ce:	c60e                	sw	gp,12(sp)
800027d0:	c812                	sw	tp,16(sp)
800027d2:	ca16                	sw	t0,20(sp)
800027d4:	cc1a                	sw	t1,24(sp)
800027d6:	ce1e                	sw	t2,28(sp)
800027d8:	d022                	sw	s0,32(sp)
800027da:	d226                	sw	s1,36(sp)
800027dc:	d42a                	sw	a0,40(sp)
800027de:	d62e                	sw	a1,44(sp)
800027e0:	d832                	sw	a2,48(sp)
800027e2:	da36                	sw	a3,52(sp)
800027e4:	dc3a                	sw	a4,56(sp)
800027e6:	de3e                	sw	a5,60(sp)
800027e8:	c0c2                	sw	a6,64(sp)
800027ea:	c2c6                	sw	a7,68(sp)
800027ec:	c4ca                	sw	s2,72(sp)
800027ee:	c6ce                	sw	s3,76(sp)
800027f0:	c8d2                	sw	s4,80(sp)
800027f2:	cad6                	sw	s5,84(sp)
800027f4:	ccda                	sw	s6,88(sp)
800027f6:	cede                	sw	s7,92(sp)
800027f8:	d0e2                	sw	s8,96(sp)
800027fa:	d2e6                	sw	s9,100(sp)
800027fc:	d4ea                	sw	s10,104(sp)
800027fe:	d6ee                	sw	s11,108(sp)
80002800:	d8f2                	sw	t3,112(sp)
80002802:	daf6                	sw	t4,116(sp)
80002804:	dcfa                	sw	t5,120(sp)
80002806:	defe                	sw	t6,124(sp)
80002808:	341022f3          	csrr	t0,mepc
8000280c:	c316                	sw	t0,132(sp)
8000280e:	850a                	mv	a0,sp
80002810:	828a                	mv	t0,sp
80002812:	007fd117          	auipc	sp,0x7fd
80002816:	7ee10113          	addi	sp,sp,2030 # 80800000 <intrstack>
8000281a:	1171                	addi	sp,sp,-4
8000281c:	c016                	sw	t0,0(sp)
8000281e:	183000ef          	jal	ra,800031a0 <handle_local_interrupt0>
80002822:	4282                	lw	t0,0(sp)
80002824:	8116                	mv	sp,t0
80002826:	429a                	lw	t0,132(sp)
80002828:	34129073          	csrw	mepc,t0
8000282c:	4092                	lw	ra,4(sp)
8000282e:	41b2                	lw	gp,12(sp)
80002830:	4242                	lw	tp,16(sp)
80002832:	42d2                	lw	t0,20(sp)
80002834:	4362                	lw	t1,24(sp)
80002836:	43f2                	lw	t2,28(sp)
80002838:	5402                	lw	s0,32(sp)
8000283a:	5492                	lw	s1,36(sp)
8000283c:	5522                	lw	a0,40(sp)
8000283e:	55b2                	lw	a1,44(sp)
80002840:	5642                	lw	a2,48(sp)
80002842:	56d2                	lw	a3,52(sp)
80002844:	5762                	lw	a4,56(sp)
80002846:	57f2                	lw	a5,60(sp)
80002848:	4806                	lw	a6,64(sp)
8000284a:	4896                	lw	a7,68(sp)
8000284c:	4926                	lw	s2,72(sp)
8000284e:	49b6                	lw	s3,76(sp)
80002850:	4a46                	lw	s4,80(sp)
80002852:	4ad6                	lw	s5,84(sp)
80002854:	4b66                	lw	s6,88(sp)
80002856:	4bf6                	lw	s7,92(sp)
80002858:	5c06                	lw	s8,96(sp)
8000285a:	5c96                	lw	s9,100(sp)
8000285c:	5d26                	lw	s10,104(sp)
8000285e:	5db6                	lw	s11,108(sp)
80002860:	5e46                	lw	t3,112(sp)
80002862:	5ed6                	lw	t4,116(sp)
80002864:	5f66                	lw	t5,120(sp)
80002866:	5ff6                	lw	t6,124(sp)
80002868:	08810113          	addi	sp,sp,136
8000286c:	30200073          	mret

80002870 <vlip_Handler2>:
80002870:	f7810113          	addi	sp,sp,-136
80002874:	c206                	sw	ra,4(sp)
80002876:	c60e                	sw	gp,12(sp)
80002878:	c812                	sw	tp,16(sp)
8000287a:	ca16                	sw	t0,20(sp)
8000287c:	cc1a                	sw	t1,24(sp)
8000287e:	ce1e                	sw	t2,28(sp)
80002880:	d022                	sw	s0,32(sp)
80002882:	d226                	sw	s1,36(sp)
80002884:	d42a                	sw	a0,40(sp)
80002886:	d62e                	sw	a1,44(sp)
80002888:	d832                	sw	a2,48(sp)
8000288a:	da36                	sw	a3,52(sp)
8000288c:	dc3a                	sw	a4,56(sp)
8000288e:	de3e                	sw	a5,60(sp)
80002890:	c0c2                	sw	a6,64(sp)
80002892:	c2c6                	sw	a7,68(sp)
80002894:	c4ca                	sw	s2,72(sp)
80002896:	c6ce                	sw	s3,76(sp)
80002898:	c8d2                	sw	s4,80(sp)
8000289a:	cad6                	sw	s5,84(sp)
8000289c:	ccda                	sw	s6,88(sp)
8000289e:	cede                	sw	s7,92(sp)
800028a0:	d0e2                	sw	s8,96(sp)
800028a2:	d2e6                	sw	s9,100(sp)
800028a4:	d4ea                	sw	s10,104(sp)
800028a6:	d6ee                	sw	s11,108(sp)
800028a8:	d8f2                	sw	t3,112(sp)
800028aa:	daf6                	sw	t4,116(sp)
800028ac:	dcfa                	sw	t5,120(sp)
800028ae:	defe                	sw	t6,124(sp)
800028b0:	341022f3          	csrr	t0,mepc
800028b4:	c316                	sw	t0,132(sp)
800028b6:	850a                	mv	a0,sp
800028b8:	828a                	mv	t0,sp
800028ba:	007fd117          	auipc	sp,0x7fd
800028be:	74610113          	addi	sp,sp,1862 # 80800000 <intrstack>
800028c2:	1171                	addi	sp,sp,-4
800028c4:	c016                	sw	t0,0(sp)
800028c6:	0db000ef          	jal	ra,800031a0 <handle_local_interrupt0>
800028ca:	4282                	lw	t0,0(sp)
800028cc:	8116                	mv	sp,t0
800028ce:	429a                	lw	t0,132(sp)
800028d0:	34129073          	csrw	mepc,t0
800028d4:	4092                	lw	ra,4(sp)
800028d6:	41b2                	lw	gp,12(sp)
800028d8:	4242                	lw	tp,16(sp)
800028da:	42d2                	lw	t0,20(sp)
800028dc:	4362                	lw	t1,24(sp)
800028de:	43f2                	lw	t2,28(sp)
800028e0:	5402                	lw	s0,32(sp)
800028e2:	5492                	lw	s1,36(sp)
800028e4:	5522                	lw	a0,40(sp)
800028e6:	55b2                	lw	a1,44(sp)
800028e8:	5642                	lw	a2,48(sp)
800028ea:	56d2                	lw	a3,52(sp)
800028ec:	5762                	lw	a4,56(sp)
800028ee:	57f2                	lw	a5,60(sp)
800028f0:	4806                	lw	a6,64(sp)
800028f2:	4896                	lw	a7,68(sp)
800028f4:	4926                	lw	s2,72(sp)
800028f6:	49b6                	lw	s3,76(sp)
800028f8:	4a46                	lw	s4,80(sp)
800028fa:	4ad6                	lw	s5,84(sp)
800028fc:	4b66                	lw	s6,88(sp)
800028fe:	4bf6                	lw	s7,92(sp)
80002900:	5c06                	lw	s8,96(sp)
80002902:	5c96                	lw	s9,100(sp)
80002904:	5d26                	lw	s10,104(sp)
80002906:	5db6                	lw	s11,108(sp)
80002908:	5e46                	lw	t3,112(sp)
8000290a:	5ed6                	lw	t4,116(sp)
8000290c:	5f66                	lw	t5,120(sp)
8000290e:	5ff6                	lw	t6,124(sp)
80002910:	08810113          	addi	sp,sp,136
80002914:	30200073          	mret

80002918 <vlip_Handler3>:
80002918:	f7810113          	addi	sp,sp,-136
8000291c:	c206                	sw	ra,4(sp)
8000291e:	c60e                	sw	gp,12(sp)
80002920:	c812                	sw	tp,16(sp)
80002922:	ca16                	sw	t0,20(sp)
80002924:	cc1a                	sw	t1,24(sp)
80002926:	ce1e                	sw	t2,28(sp)
80002928:	d022                	sw	s0,32(sp)
8000292a:	d226                	sw	s1,36(sp)
8000292c:	d42a                	sw	a0,40(sp)
8000292e:	d62e                	sw	a1,44(sp)
80002930:	d832                	sw	a2,48(sp)
80002932:	da36                	sw	a3,52(sp)
80002934:	dc3a                	sw	a4,56(sp)
80002936:	de3e                	sw	a5,60(sp)
80002938:	c0c2                	sw	a6,64(sp)
8000293a:	c2c6                	sw	a7,68(sp)
8000293c:	c4ca                	sw	s2,72(sp)
8000293e:	c6ce                	sw	s3,76(sp)
80002940:	c8d2                	sw	s4,80(sp)
80002942:	cad6                	sw	s5,84(sp)
80002944:	ccda                	sw	s6,88(sp)
80002946:	cede                	sw	s7,92(sp)
80002948:	d0e2                	sw	s8,96(sp)
8000294a:	d2e6                	sw	s9,100(sp)
8000294c:	d4ea                	sw	s10,104(sp)
8000294e:	d6ee                	sw	s11,108(sp)
80002950:	d8f2                	sw	t3,112(sp)
80002952:	daf6                	sw	t4,116(sp)
80002954:	dcfa                	sw	t5,120(sp)
80002956:	defe                	sw	t6,124(sp)
80002958:	341022f3          	csrr	t0,mepc
8000295c:	c316                	sw	t0,132(sp)
8000295e:	850a                	mv	a0,sp
80002960:	828a                	mv	t0,sp
80002962:	007fd117          	auipc	sp,0x7fd
80002966:	69e10113          	addi	sp,sp,1694 # 80800000 <intrstack>
8000296a:	1171                	addi	sp,sp,-4
8000296c:	c016                	sw	t0,0(sp)
8000296e:	033000ef          	jal	ra,800031a0 <handle_local_interrupt0>
80002972:	4282                	lw	t0,0(sp)
80002974:	8116                	mv	sp,t0
80002976:	429a                	lw	t0,132(sp)
80002978:	34129073          	csrw	mepc,t0
8000297c:	4092                	lw	ra,4(sp)
8000297e:	41b2                	lw	gp,12(sp)
80002980:	4242                	lw	tp,16(sp)
80002982:	42d2                	lw	t0,20(sp)
80002984:	4362                	lw	t1,24(sp)
80002986:	43f2                	lw	t2,28(sp)
80002988:	5402                	lw	s0,32(sp)
8000298a:	5492                	lw	s1,36(sp)
8000298c:	5522                	lw	a0,40(sp)
8000298e:	55b2                	lw	a1,44(sp)
80002990:	5642                	lw	a2,48(sp)
80002992:	56d2                	lw	a3,52(sp)
80002994:	5762                	lw	a4,56(sp)
80002996:	57f2                	lw	a5,60(sp)
80002998:	4806                	lw	a6,64(sp)
8000299a:	4896                	lw	a7,68(sp)
8000299c:	4926                	lw	s2,72(sp)
8000299e:	49b6                	lw	s3,76(sp)
800029a0:	4a46                	lw	s4,80(sp)
800029a2:	4ad6                	lw	s5,84(sp)
800029a4:	4b66                	lw	s6,88(sp)
800029a6:	4bf6                	lw	s7,92(sp)
800029a8:	5c06                	lw	s8,96(sp)
800029aa:	5c96                	lw	s9,100(sp)
800029ac:	5d26                	lw	s10,104(sp)
800029ae:	5db6                	lw	s11,108(sp)
800029b0:	5e46                	lw	t3,112(sp)
800029b2:	5ed6                	lw	t4,116(sp)
800029b4:	5f66                	lw	t5,120(sp)
800029b6:	5ff6                	lw	t6,124(sp)
800029b8:	08810113          	addi	sp,sp,136
800029bc:	30200073          	mret

800029c0 <vlip_Handler4>:
800029c0:	f7810113          	addi	sp,sp,-136
800029c4:	c206                	sw	ra,4(sp)
800029c6:	c60e                	sw	gp,12(sp)
800029c8:	c812                	sw	tp,16(sp)
800029ca:	ca16                	sw	t0,20(sp)
800029cc:	cc1a                	sw	t1,24(sp)
800029ce:	ce1e                	sw	t2,28(sp)
800029d0:	d022                	sw	s0,32(sp)
800029d2:	d226                	sw	s1,36(sp)
800029d4:	d42a                	sw	a0,40(sp)
800029d6:	d62e                	sw	a1,44(sp)
800029d8:	d832                	sw	a2,48(sp)
800029da:	da36                	sw	a3,52(sp)
800029dc:	dc3a                	sw	a4,56(sp)
800029de:	de3e                	sw	a5,60(sp)
800029e0:	c0c2                	sw	a6,64(sp)
800029e2:	c2c6                	sw	a7,68(sp)
800029e4:	c4ca                	sw	s2,72(sp)
800029e6:	c6ce                	sw	s3,76(sp)
800029e8:	c8d2                	sw	s4,80(sp)
800029ea:	cad6                	sw	s5,84(sp)
800029ec:	ccda                	sw	s6,88(sp)
800029ee:	cede                	sw	s7,92(sp)
800029f0:	d0e2                	sw	s8,96(sp)
800029f2:	d2e6                	sw	s9,100(sp)
800029f4:	d4ea                	sw	s10,104(sp)
800029f6:	d6ee                	sw	s11,108(sp)
800029f8:	d8f2                	sw	t3,112(sp)
800029fa:	daf6                	sw	t4,116(sp)
800029fc:	dcfa                	sw	t5,120(sp)
800029fe:	defe                	sw	t6,124(sp)
80002a00:	341022f3          	csrr	t0,mepc
80002a04:	c316                	sw	t0,132(sp)
80002a06:	850a                	mv	a0,sp
80002a08:	828a                	mv	t0,sp
80002a0a:	007fd117          	auipc	sp,0x7fd
80002a0e:	5f610113          	addi	sp,sp,1526 # 80800000 <intrstack>
80002a12:	1171                	addi	sp,sp,-4
80002a14:	c016                	sw	t0,0(sp)
80002a16:	78a000ef          	jal	ra,800031a0 <handle_local_interrupt0>
80002a1a:	4282                	lw	t0,0(sp)
80002a1c:	8116                	mv	sp,t0
80002a1e:	429a                	lw	t0,132(sp)
80002a20:	34129073          	csrw	mepc,t0
80002a24:	4092                	lw	ra,4(sp)
80002a26:	41b2                	lw	gp,12(sp)
80002a28:	4242                	lw	tp,16(sp)
80002a2a:	42d2                	lw	t0,20(sp)
80002a2c:	4362                	lw	t1,24(sp)
80002a2e:	43f2                	lw	t2,28(sp)
80002a30:	5402                	lw	s0,32(sp)
80002a32:	5492                	lw	s1,36(sp)
80002a34:	5522                	lw	a0,40(sp)
80002a36:	55b2                	lw	a1,44(sp)
80002a38:	5642                	lw	a2,48(sp)
80002a3a:	56d2                	lw	a3,52(sp)
80002a3c:	5762                	lw	a4,56(sp)
80002a3e:	57f2                	lw	a5,60(sp)
80002a40:	4806                	lw	a6,64(sp)
80002a42:	4896                	lw	a7,68(sp)
80002a44:	4926                	lw	s2,72(sp)
80002a46:	49b6                	lw	s3,76(sp)
80002a48:	4a46                	lw	s4,80(sp)
80002a4a:	4ad6                	lw	s5,84(sp)
80002a4c:	4b66                	lw	s6,88(sp)
80002a4e:	4bf6                	lw	s7,92(sp)
80002a50:	5c06                	lw	s8,96(sp)
80002a52:	5c96                	lw	s9,100(sp)
80002a54:	5d26                	lw	s10,104(sp)
80002a56:	5db6                	lw	s11,108(sp)
80002a58:	5e46                	lw	t3,112(sp)
80002a5a:	5ed6                	lw	t4,116(sp)
80002a5c:	5f66                	lw	t5,120(sp)
80002a5e:	5ff6                	lw	t6,124(sp)
80002a60:	08810113          	addi	sp,sp,136
80002a64:	30200073          	mret

80002a68 <vlip_Handler5>:
80002a68:	f7810113          	addi	sp,sp,-136
80002a6c:	c206                	sw	ra,4(sp)
80002a6e:	c60e                	sw	gp,12(sp)
80002a70:	c812                	sw	tp,16(sp)
80002a72:	ca16                	sw	t0,20(sp)
80002a74:	cc1a                	sw	t1,24(sp)
80002a76:	ce1e                	sw	t2,28(sp)
80002a78:	d022                	sw	s0,32(sp)
80002a7a:	d226                	sw	s1,36(sp)
80002a7c:	d42a                	sw	a0,40(sp)
80002a7e:	d62e                	sw	a1,44(sp)
80002a80:	d832                	sw	a2,48(sp)
80002a82:	da36                	sw	a3,52(sp)
80002a84:	dc3a                	sw	a4,56(sp)
80002a86:	de3e                	sw	a5,60(sp)
80002a88:	c0c2                	sw	a6,64(sp)
80002a8a:	c2c6                	sw	a7,68(sp)
80002a8c:	c4ca                	sw	s2,72(sp)
80002a8e:	c6ce                	sw	s3,76(sp)
80002a90:	c8d2                	sw	s4,80(sp)
80002a92:	cad6                	sw	s5,84(sp)
80002a94:	ccda                	sw	s6,88(sp)
80002a96:	cede                	sw	s7,92(sp)
80002a98:	d0e2                	sw	s8,96(sp)
80002a9a:	d2e6                	sw	s9,100(sp)
80002a9c:	d4ea                	sw	s10,104(sp)
80002a9e:	d6ee                	sw	s11,108(sp)
80002aa0:	d8f2                	sw	t3,112(sp)
80002aa2:	daf6                	sw	t4,116(sp)
80002aa4:	dcfa                	sw	t5,120(sp)
80002aa6:	defe                	sw	t6,124(sp)
80002aa8:	341022f3          	csrr	t0,mepc
80002aac:	c316                	sw	t0,132(sp)
80002aae:	850a                	mv	a0,sp
80002ab0:	828a                	mv	t0,sp
80002ab2:	007fd117          	auipc	sp,0x7fd
80002ab6:	54e10113          	addi	sp,sp,1358 # 80800000 <intrstack>
80002aba:	1171                	addi	sp,sp,-4
80002abc:	c016                	sw	t0,0(sp)
80002abe:	6e2000ef          	jal	ra,800031a0 <handle_local_interrupt0>
80002ac2:	4282                	lw	t0,0(sp)
80002ac4:	8116                	mv	sp,t0
80002ac6:	429a                	lw	t0,132(sp)
80002ac8:	34129073          	csrw	mepc,t0
80002acc:	4092                	lw	ra,4(sp)
80002ace:	41b2                	lw	gp,12(sp)
80002ad0:	4242                	lw	tp,16(sp)
80002ad2:	42d2                	lw	t0,20(sp)
80002ad4:	4362                	lw	t1,24(sp)
80002ad6:	43f2                	lw	t2,28(sp)
80002ad8:	5402                	lw	s0,32(sp)
80002ada:	5492                	lw	s1,36(sp)
80002adc:	5522                	lw	a0,40(sp)
80002ade:	55b2                	lw	a1,44(sp)
80002ae0:	5642                	lw	a2,48(sp)
80002ae2:	56d2                	lw	a3,52(sp)
80002ae4:	5762                	lw	a4,56(sp)
80002ae6:	57f2                	lw	a5,60(sp)
80002ae8:	4806                	lw	a6,64(sp)
80002aea:	4896                	lw	a7,68(sp)
80002aec:	4926                	lw	s2,72(sp)
80002aee:	49b6                	lw	s3,76(sp)
80002af0:	4a46                	lw	s4,80(sp)
80002af2:	4ad6                	lw	s5,84(sp)
80002af4:	4b66                	lw	s6,88(sp)
80002af6:	4bf6                	lw	s7,92(sp)
80002af8:	5c06                	lw	s8,96(sp)
80002afa:	5c96                	lw	s9,100(sp)
80002afc:	5d26                	lw	s10,104(sp)
80002afe:	5db6                	lw	s11,108(sp)
80002b00:	5e46                	lw	t3,112(sp)
80002b02:	5ed6                	lw	t4,116(sp)
80002b04:	5f66                	lw	t5,120(sp)
80002b06:	5ff6                	lw	t6,124(sp)
80002b08:	08810113          	addi	sp,sp,136
80002b0c:	30200073          	mret

80002b10 <vlip_Handler6>:
80002b10:	f7810113          	addi	sp,sp,-136
80002b14:	c206                	sw	ra,4(sp)
80002b16:	c60e                	sw	gp,12(sp)
80002b18:	c812                	sw	tp,16(sp)
80002b1a:	ca16                	sw	t0,20(sp)
80002b1c:	cc1a                	sw	t1,24(sp)
80002b1e:	ce1e                	sw	t2,28(sp)
80002b20:	d022                	sw	s0,32(sp)
80002b22:	d226                	sw	s1,36(sp)
80002b24:	d42a                	sw	a0,40(sp)
80002b26:	d62e                	sw	a1,44(sp)
80002b28:	d832                	sw	a2,48(sp)
80002b2a:	da36                	sw	a3,52(sp)
80002b2c:	dc3a                	sw	a4,56(sp)
80002b2e:	de3e                	sw	a5,60(sp)
80002b30:	c0c2                	sw	a6,64(sp)
80002b32:	c2c6                	sw	a7,68(sp)
80002b34:	c4ca                	sw	s2,72(sp)
80002b36:	c6ce                	sw	s3,76(sp)
80002b38:	c8d2                	sw	s4,80(sp)
80002b3a:	cad6                	sw	s5,84(sp)
80002b3c:	ccda                	sw	s6,88(sp)
80002b3e:	cede                	sw	s7,92(sp)
80002b40:	d0e2                	sw	s8,96(sp)
80002b42:	d2e6                	sw	s9,100(sp)
80002b44:	d4ea                	sw	s10,104(sp)
80002b46:	d6ee                	sw	s11,108(sp)
80002b48:	d8f2                	sw	t3,112(sp)
80002b4a:	daf6                	sw	t4,116(sp)
80002b4c:	dcfa                	sw	t5,120(sp)
80002b4e:	defe                	sw	t6,124(sp)
80002b50:	341022f3          	csrr	t0,mepc
80002b54:	c316                	sw	t0,132(sp)
80002b56:	850a                	mv	a0,sp
80002b58:	828a                	mv	t0,sp
80002b5a:	007fd117          	auipc	sp,0x7fd
80002b5e:	4a610113          	addi	sp,sp,1190 # 80800000 <intrstack>
80002b62:	1171                	addi	sp,sp,-4
80002b64:	c016                	sw	t0,0(sp)
80002b66:	63a000ef          	jal	ra,800031a0 <handle_local_interrupt0>
80002b6a:	4282                	lw	t0,0(sp)
80002b6c:	8116                	mv	sp,t0
80002b6e:	429a                	lw	t0,132(sp)
80002b70:	34129073          	csrw	mepc,t0
80002b74:	4092                	lw	ra,4(sp)
80002b76:	41b2                	lw	gp,12(sp)
80002b78:	4242                	lw	tp,16(sp)
80002b7a:	42d2                	lw	t0,20(sp)
80002b7c:	4362                	lw	t1,24(sp)
80002b7e:	43f2                	lw	t2,28(sp)
80002b80:	5402                	lw	s0,32(sp)
80002b82:	5492                	lw	s1,36(sp)
80002b84:	5522                	lw	a0,40(sp)
80002b86:	55b2                	lw	a1,44(sp)
80002b88:	5642                	lw	a2,48(sp)
80002b8a:	56d2                	lw	a3,52(sp)
80002b8c:	5762                	lw	a4,56(sp)
80002b8e:	57f2                	lw	a5,60(sp)
80002b90:	4806                	lw	a6,64(sp)
80002b92:	4896                	lw	a7,68(sp)
80002b94:	4926                	lw	s2,72(sp)
80002b96:	49b6                	lw	s3,76(sp)
80002b98:	4a46                	lw	s4,80(sp)
80002b9a:	4ad6                	lw	s5,84(sp)
80002b9c:	4b66                	lw	s6,88(sp)
80002b9e:	4bf6                	lw	s7,92(sp)
80002ba0:	5c06                	lw	s8,96(sp)
80002ba2:	5c96                	lw	s9,100(sp)
80002ba4:	5d26                	lw	s10,104(sp)
80002ba6:	5db6                	lw	s11,108(sp)
80002ba8:	5e46                	lw	t3,112(sp)
80002baa:	5ed6                	lw	t4,116(sp)
80002bac:	5f66                	lw	t5,120(sp)
80002bae:	5ff6                	lw	t6,124(sp)
80002bb0:	08810113          	addi	sp,sp,136
80002bb4:	30200073          	mret

80002bb8 <vlip_Handler7>:
80002bb8:	f7810113          	addi	sp,sp,-136
80002bbc:	c206                	sw	ra,4(sp)
80002bbe:	c60e                	sw	gp,12(sp)
80002bc0:	c812                	sw	tp,16(sp)
80002bc2:	ca16                	sw	t0,20(sp)
80002bc4:	cc1a                	sw	t1,24(sp)
80002bc6:	ce1e                	sw	t2,28(sp)
80002bc8:	d022                	sw	s0,32(sp)
80002bca:	d226                	sw	s1,36(sp)
80002bcc:	d42a                	sw	a0,40(sp)
80002bce:	d62e                	sw	a1,44(sp)
80002bd0:	d832                	sw	a2,48(sp)
80002bd2:	da36                	sw	a3,52(sp)
80002bd4:	dc3a                	sw	a4,56(sp)
80002bd6:	de3e                	sw	a5,60(sp)
80002bd8:	c0c2                	sw	a6,64(sp)
80002bda:	c2c6                	sw	a7,68(sp)
80002bdc:	c4ca                	sw	s2,72(sp)
80002bde:	c6ce                	sw	s3,76(sp)
80002be0:	c8d2                	sw	s4,80(sp)
80002be2:	cad6                	sw	s5,84(sp)
80002be4:	ccda                	sw	s6,88(sp)
80002be6:	cede                	sw	s7,92(sp)
80002be8:	d0e2                	sw	s8,96(sp)
80002bea:	d2e6                	sw	s9,100(sp)
80002bec:	d4ea                	sw	s10,104(sp)
80002bee:	d6ee                	sw	s11,108(sp)
80002bf0:	d8f2                	sw	t3,112(sp)
80002bf2:	daf6                	sw	t4,116(sp)
80002bf4:	dcfa                	sw	t5,120(sp)
80002bf6:	defe                	sw	t6,124(sp)
80002bf8:	341022f3          	csrr	t0,mepc
80002bfc:	c316                	sw	t0,132(sp)
80002bfe:	850a                	mv	a0,sp
80002c00:	828a                	mv	t0,sp
80002c02:	007fd117          	auipc	sp,0x7fd
80002c06:	3fe10113          	addi	sp,sp,1022 # 80800000 <intrstack>
80002c0a:	1171                	addi	sp,sp,-4
80002c0c:	c016                	sw	t0,0(sp)
80002c0e:	592000ef          	jal	ra,800031a0 <handle_local_interrupt0>
80002c12:	4282                	lw	t0,0(sp)
80002c14:	8116                	mv	sp,t0
80002c16:	429a                	lw	t0,132(sp)
80002c18:	34129073          	csrw	mepc,t0
80002c1c:	4092                	lw	ra,4(sp)
80002c1e:	41b2                	lw	gp,12(sp)
80002c20:	4242                	lw	tp,16(sp)
80002c22:	42d2                	lw	t0,20(sp)
80002c24:	4362                	lw	t1,24(sp)
80002c26:	43f2                	lw	t2,28(sp)
80002c28:	5402                	lw	s0,32(sp)
80002c2a:	5492                	lw	s1,36(sp)
80002c2c:	5522                	lw	a0,40(sp)
80002c2e:	55b2                	lw	a1,44(sp)
80002c30:	5642                	lw	a2,48(sp)
80002c32:	56d2                	lw	a3,52(sp)
80002c34:	5762                	lw	a4,56(sp)
80002c36:	57f2                	lw	a5,60(sp)
80002c38:	4806                	lw	a6,64(sp)
80002c3a:	4896                	lw	a7,68(sp)
80002c3c:	4926                	lw	s2,72(sp)
80002c3e:	49b6                	lw	s3,76(sp)
80002c40:	4a46                	lw	s4,80(sp)
80002c42:	4ad6                	lw	s5,84(sp)
80002c44:	4b66                	lw	s6,88(sp)
80002c46:	4bf6                	lw	s7,92(sp)
80002c48:	5c06                	lw	s8,96(sp)
80002c4a:	5c96                	lw	s9,100(sp)
80002c4c:	5d26                	lw	s10,104(sp)
80002c4e:	5db6                	lw	s11,108(sp)
80002c50:	5e46                	lw	t3,112(sp)
80002c52:	5ed6                	lw	t4,116(sp)
80002c54:	5f66                	lw	t5,120(sp)
80002c56:	5ff6                	lw	t6,124(sp)
80002c58:	08810113          	addi	sp,sp,136
80002c5c:	30200073          	mret

80002c60 <vlip_Handler8>:
80002c60:	f7810113          	addi	sp,sp,-136
80002c64:	c206                	sw	ra,4(sp)
80002c66:	c60e                	sw	gp,12(sp)
80002c68:	c812                	sw	tp,16(sp)
80002c6a:	ca16                	sw	t0,20(sp)
80002c6c:	cc1a                	sw	t1,24(sp)
80002c6e:	ce1e                	sw	t2,28(sp)
80002c70:	d022                	sw	s0,32(sp)
80002c72:	d226                	sw	s1,36(sp)
80002c74:	d42a                	sw	a0,40(sp)
80002c76:	d62e                	sw	a1,44(sp)
80002c78:	d832                	sw	a2,48(sp)
80002c7a:	da36                	sw	a3,52(sp)
80002c7c:	dc3a                	sw	a4,56(sp)
80002c7e:	de3e                	sw	a5,60(sp)
80002c80:	c0c2                	sw	a6,64(sp)
80002c82:	c2c6                	sw	a7,68(sp)
80002c84:	c4ca                	sw	s2,72(sp)
80002c86:	c6ce                	sw	s3,76(sp)
80002c88:	c8d2                	sw	s4,80(sp)
80002c8a:	cad6                	sw	s5,84(sp)
80002c8c:	ccda                	sw	s6,88(sp)
80002c8e:	cede                	sw	s7,92(sp)
80002c90:	d0e2                	sw	s8,96(sp)
80002c92:	d2e6                	sw	s9,100(sp)
80002c94:	d4ea                	sw	s10,104(sp)
80002c96:	d6ee                	sw	s11,108(sp)
80002c98:	d8f2                	sw	t3,112(sp)
80002c9a:	daf6                	sw	t4,116(sp)
80002c9c:	dcfa                	sw	t5,120(sp)
80002c9e:	defe                	sw	t6,124(sp)
80002ca0:	341022f3          	csrr	t0,mepc
80002ca4:	c316                	sw	t0,132(sp)
80002ca6:	850a                	mv	a0,sp
80002ca8:	828a                	mv	t0,sp
80002caa:	007fd117          	auipc	sp,0x7fd
80002cae:	35610113          	addi	sp,sp,854 # 80800000 <intrstack>
80002cb2:	1171                	addi	sp,sp,-4
80002cb4:	c016                	sw	t0,0(sp)
80002cb6:	4ea000ef          	jal	ra,800031a0 <handle_local_interrupt0>
80002cba:	4282                	lw	t0,0(sp)
80002cbc:	8116                	mv	sp,t0
80002cbe:	429a                	lw	t0,132(sp)
80002cc0:	34129073          	csrw	mepc,t0
80002cc4:	4092                	lw	ra,4(sp)
80002cc6:	41b2                	lw	gp,12(sp)
80002cc8:	4242                	lw	tp,16(sp)
80002cca:	42d2                	lw	t0,20(sp)
80002ccc:	4362                	lw	t1,24(sp)
80002cce:	43f2                	lw	t2,28(sp)
80002cd0:	5402                	lw	s0,32(sp)
80002cd2:	5492                	lw	s1,36(sp)
80002cd4:	5522                	lw	a0,40(sp)
80002cd6:	55b2                	lw	a1,44(sp)
80002cd8:	5642                	lw	a2,48(sp)
80002cda:	56d2                	lw	a3,52(sp)
80002cdc:	5762                	lw	a4,56(sp)
80002cde:	57f2                	lw	a5,60(sp)
80002ce0:	4806                	lw	a6,64(sp)
80002ce2:	4896                	lw	a7,68(sp)
80002ce4:	4926                	lw	s2,72(sp)
80002ce6:	49b6                	lw	s3,76(sp)
80002ce8:	4a46                	lw	s4,80(sp)
80002cea:	4ad6                	lw	s5,84(sp)
80002cec:	4b66                	lw	s6,88(sp)
80002cee:	4bf6                	lw	s7,92(sp)
80002cf0:	5c06                	lw	s8,96(sp)
80002cf2:	5c96                	lw	s9,100(sp)
80002cf4:	5d26                	lw	s10,104(sp)
80002cf6:	5db6                	lw	s11,108(sp)
80002cf8:	5e46                	lw	t3,112(sp)
80002cfa:	5ed6                	lw	t4,116(sp)
80002cfc:	5f66                	lw	t5,120(sp)
80002cfe:	5ff6                	lw	t6,124(sp)
80002d00:	08810113          	addi	sp,sp,136
80002d04:	30200073          	mret

80002d08 <vlip_Handler9>:
80002d08:	f7810113          	addi	sp,sp,-136
80002d0c:	c206                	sw	ra,4(sp)
80002d0e:	c60e                	sw	gp,12(sp)
80002d10:	c812                	sw	tp,16(sp)
80002d12:	ca16                	sw	t0,20(sp)
80002d14:	cc1a                	sw	t1,24(sp)
80002d16:	ce1e                	sw	t2,28(sp)
80002d18:	d022                	sw	s0,32(sp)
80002d1a:	d226                	sw	s1,36(sp)
80002d1c:	d42a                	sw	a0,40(sp)
80002d1e:	d62e                	sw	a1,44(sp)
80002d20:	d832                	sw	a2,48(sp)
80002d22:	da36                	sw	a3,52(sp)
80002d24:	dc3a                	sw	a4,56(sp)
80002d26:	de3e                	sw	a5,60(sp)
80002d28:	c0c2                	sw	a6,64(sp)
80002d2a:	c2c6                	sw	a7,68(sp)
80002d2c:	c4ca                	sw	s2,72(sp)
80002d2e:	c6ce                	sw	s3,76(sp)
80002d30:	c8d2                	sw	s4,80(sp)
80002d32:	cad6                	sw	s5,84(sp)
80002d34:	ccda                	sw	s6,88(sp)
80002d36:	cede                	sw	s7,92(sp)
80002d38:	d0e2                	sw	s8,96(sp)
80002d3a:	d2e6                	sw	s9,100(sp)
80002d3c:	d4ea                	sw	s10,104(sp)
80002d3e:	d6ee                	sw	s11,108(sp)
80002d40:	d8f2                	sw	t3,112(sp)
80002d42:	daf6                	sw	t4,116(sp)
80002d44:	dcfa                	sw	t5,120(sp)
80002d46:	defe                	sw	t6,124(sp)
80002d48:	341022f3          	csrr	t0,mepc
80002d4c:	c316                	sw	t0,132(sp)
80002d4e:	850a                	mv	a0,sp
80002d50:	828a                	mv	t0,sp
80002d52:	007fd117          	auipc	sp,0x7fd
80002d56:	2ae10113          	addi	sp,sp,686 # 80800000 <intrstack>
80002d5a:	1171                	addi	sp,sp,-4
80002d5c:	c016                	sw	t0,0(sp)
80002d5e:	442000ef          	jal	ra,800031a0 <handle_local_interrupt0>
80002d62:	4282                	lw	t0,0(sp)
80002d64:	8116                	mv	sp,t0
80002d66:	429a                	lw	t0,132(sp)
80002d68:	34129073          	csrw	mepc,t0
80002d6c:	4092                	lw	ra,4(sp)
80002d6e:	41b2                	lw	gp,12(sp)
80002d70:	4242                	lw	tp,16(sp)
80002d72:	42d2                	lw	t0,20(sp)
80002d74:	4362                	lw	t1,24(sp)
80002d76:	43f2                	lw	t2,28(sp)
80002d78:	5402                	lw	s0,32(sp)
80002d7a:	5492                	lw	s1,36(sp)
80002d7c:	5522                	lw	a0,40(sp)
80002d7e:	55b2                	lw	a1,44(sp)
80002d80:	5642                	lw	a2,48(sp)
80002d82:	56d2                	lw	a3,52(sp)
80002d84:	5762                	lw	a4,56(sp)
80002d86:	57f2                	lw	a5,60(sp)
80002d88:	4806                	lw	a6,64(sp)
80002d8a:	4896                	lw	a7,68(sp)
80002d8c:	4926                	lw	s2,72(sp)
80002d8e:	49b6                	lw	s3,76(sp)
80002d90:	4a46                	lw	s4,80(sp)
80002d92:	4ad6                	lw	s5,84(sp)
80002d94:	4b66                	lw	s6,88(sp)
80002d96:	4bf6                	lw	s7,92(sp)
80002d98:	5c06                	lw	s8,96(sp)
80002d9a:	5c96                	lw	s9,100(sp)
80002d9c:	5d26                	lw	s10,104(sp)
80002d9e:	5db6                	lw	s11,108(sp)
80002da0:	5e46                	lw	t3,112(sp)
80002da2:	5ed6                	lw	t4,116(sp)
80002da4:	5f66                	lw	t5,120(sp)
80002da6:	5ff6                	lw	t6,124(sp)
80002da8:	08810113          	addi	sp,sp,136
80002dac:	30200073          	mret

80002db0 <vlip_Handler10>:
80002db0:	f7810113          	addi	sp,sp,-136
80002db4:	c206                	sw	ra,4(sp)
80002db6:	c60e                	sw	gp,12(sp)
80002db8:	c812                	sw	tp,16(sp)
80002dba:	ca16                	sw	t0,20(sp)
80002dbc:	cc1a                	sw	t1,24(sp)
80002dbe:	ce1e                	sw	t2,28(sp)
80002dc0:	d022                	sw	s0,32(sp)
80002dc2:	d226                	sw	s1,36(sp)
80002dc4:	d42a                	sw	a0,40(sp)
80002dc6:	d62e                	sw	a1,44(sp)
80002dc8:	d832                	sw	a2,48(sp)
80002dca:	da36                	sw	a3,52(sp)
80002dcc:	dc3a                	sw	a4,56(sp)
80002dce:	de3e                	sw	a5,60(sp)
80002dd0:	c0c2                	sw	a6,64(sp)
80002dd2:	c2c6                	sw	a7,68(sp)
80002dd4:	c4ca                	sw	s2,72(sp)
80002dd6:	c6ce                	sw	s3,76(sp)
80002dd8:	c8d2                	sw	s4,80(sp)
80002dda:	cad6                	sw	s5,84(sp)
80002ddc:	ccda                	sw	s6,88(sp)
80002dde:	cede                	sw	s7,92(sp)
80002de0:	d0e2                	sw	s8,96(sp)
80002de2:	d2e6                	sw	s9,100(sp)
80002de4:	d4ea                	sw	s10,104(sp)
80002de6:	d6ee                	sw	s11,108(sp)
80002de8:	d8f2                	sw	t3,112(sp)
80002dea:	daf6                	sw	t4,116(sp)
80002dec:	dcfa                	sw	t5,120(sp)
80002dee:	defe                	sw	t6,124(sp)
80002df0:	341022f3          	csrr	t0,mepc
80002df4:	c316                	sw	t0,132(sp)
80002df6:	850a                	mv	a0,sp
80002df8:	828a                	mv	t0,sp
80002dfa:	007fd117          	auipc	sp,0x7fd
80002dfe:	20610113          	addi	sp,sp,518 # 80800000 <intrstack>
80002e02:	1171                	addi	sp,sp,-4
80002e04:	c016                	sw	t0,0(sp)
80002e06:	39a000ef          	jal	ra,800031a0 <handle_local_interrupt0>
80002e0a:	4282                	lw	t0,0(sp)
80002e0c:	8116                	mv	sp,t0
80002e0e:	429a                	lw	t0,132(sp)
80002e10:	34129073          	csrw	mepc,t0
80002e14:	4092                	lw	ra,4(sp)
80002e16:	41b2                	lw	gp,12(sp)
80002e18:	4242                	lw	tp,16(sp)
80002e1a:	42d2                	lw	t0,20(sp)
80002e1c:	4362                	lw	t1,24(sp)
80002e1e:	43f2                	lw	t2,28(sp)
80002e20:	5402                	lw	s0,32(sp)
80002e22:	5492                	lw	s1,36(sp)
80002e24:	5522                	lw	a0,40(sp)
80002e26:	55b2                	lw	a1,44(sp)
80002e28:	5642                	lw	a2,48(sp)
80002e2a:	56d2                	lw	a3,52(sp)
80002e2c:	5762                	lw	a4,56(sp)
80002e2e:	57f2                	lw	a5,60(sp)
80002e30:	4806                	lw	a6,64(sp)
80002e32:	4896                	lw	a7,68(sp)
80002e34:	4926                	lw	s2,72(sp)
80002e36:	49b6                	lw	s3,76(sp)
80002e38:	4a46                	lw	s4,80(sp)
80002e3a:	4ad6                	lw	s5,84(sp)
80002e3c:	4b66                	lw	s6,88(sp)
80002e3e:	4bf6                	lw	s7,92(sp)
80002e40:	5c06                	lw	s8,96(sp)
80002e42:	5c96                	lw	s9,100(sp)
80002e44:	5d26                	lw	s10,104(sp)
80002e46:	5db6                	lw	s11,108(sp)
80002e48:	5e46                	lw	t3,112(sp)
80002e4a:	5ed6                	lw	t4,116(sp)
80002e4c:	5f66                	lw	t5,120(sp)
80002e4e:	5ff6                	lw	t6,124(sp)
80002e50:	08810113          	addi	sp,sp,136
80002e54:	30200073          	mret

80002e58 <vlip_Handler11>:
80002e58:	f7810113          	addi	sp,sp,-136
80002e5c:	c206                	sw	ra,4(sp)
80002e5e:	c60e                	sw	gp,12(sp)
80002e60:	c812                	sw	tp,16(sp)
80002e62:	ca16                	sw	t0,20(sp)
80002e64:	cc1a                	sw	t1,24(sp)
80002e66:	ce1e                	sw	t2,28(sp)
80002e68:	d022                	sw	s0,32(sp)
80002e6a:	d226                	sw	s1,36(sp)
80002e6c:	d42a                	sw	a0,40(sp)
80002e6e:	d62e                	sw	a1,44(sp)
80002e70:	d832                	sw	a2,48(sp)
80002e72:	da36                	sw	a3,52(sp)
80002e74:	dc3a                	sw	a4,56(sp)
80002e76:	de3e                	sw	a5,60(sp)
80002e78:	c0c2                	sw	a6,64(sp)
80002e7a:	c2c6                	sw	a7,68(sp)
80002e7c:	c4ca                	sw	s2,72(sp)
80002e7e:	c6ce                	sw	s3,76(sp)
80002e80:	c8d2                	sw	s4,80(sp)
80002e82:	cad6                	sw	s5,84(sp)
80002e84:	ccda                	sw	s6,88(sp)
80002e86:	cede                	sw	s7,92(sp)
80002e88:	d0e2                	sw	s8,96(sp)
80002e8a:	d2e6                	sw	s9,100(sp)
80002e8c:	d4ea                	sw	s10,104(sp)
80002e8e:	d6ee                	sw	s11,108(sp)
80002e90:	d8f2                	sw	t3,112(sp)
80002e92:	daf6                	sw	t4,116(sp)
80002e94:	dcfa                	sw	t5,120(sp)
80002e96:	defe                	sw	t6,124(sp)
80002e98:	341022f3          	csrr	t0,mepc
80002e9c:	c316                	sw	t0,132(sp)
80002e9e:	850a                	mv	a0,sp
80002ea0:	828a                	mv	t0,sp
80002ea2:	007fd117          	auipc	sp,0x7fd
80002ea6:	15e10113          	addi	sp,sp,350 # 80800000 <intrstack>
80002eaa:	1171                	addi	sp,sp,-4
80002eac:	c016                	sw	t0,0(sp)
80002eae:	2f2000ef          	jal	ra,800031a0 <handle_local_interrupt0>
80002eb2:	4282                	lw	t0,0(sp)
80002eb4:	8116                	mv	sp,t0
80002eb6:	429a                	lw	t0,132(sp)
80002eb8:	34129073          	csrw	mepc,t0
80002ebc:	4092                	lw	ra,4(sp)
80002ebe:	41b2                	lw	gp,12(sp)
80002ec0:	4242                	lw	tp,16(sp)
80002ec2:	42d2                	lw	t0,20(sp)
80002ec4:	4362                	lw	t1,24(sp)
80002ec6:	43f2                	lw	t2,28(sp)
80002ec8:	5402                	lw	s0,32(sp)
80002eca:	5492                	lw	s1,36(sp)
80002ecc:	5522                	lw	a0,40(sp)
80002ece:	55b2                	lw	a1,44(sp)
80002ed0:	5642                	lw	a2,48(sp)
80002ed2:	56d2                	lw	a3,52(sp)
80002ed4:	5762                	lw	a4,56(sp)
80002ed6:	57f2                	lw	a5,60(sp)
80002ed8:	4806                	lw	a6,64(sp)
80002eda:	4896                	lw	a7,68(sp)
80002edc:	4926                	lw	s2,72(sp)
80002ede:	49b6                	lw	s3,76(sp)
80002ee0:	4a46                	lw	s4,80(sp)
80002ee2:	4ad6                	lw	s5,84(sp)
80002ee4:	4b66                	lw	s6,88(sp)
80002ee6:	4bf6                	lw	s7,92(sp)
80002ee8:	5c06                	lw	s8,96(sp)
80002eea:	5c96                	lw	s9,100(sp)
80002eec:	5d26                	lw	s10,104(sp)
80002eee:	5db6                	lw	s11,108(sp)
80002ef0:	5e46                	lw	t3,112(sp)
80002ef2:	5ed6                	lw	t4,116(sp)
80002ef4:	5f66                	lw	t5,120(sp)
80002ef6:	5ff6                	lw	t6,124(sp)
80002ef8:	08810113          	addi	sp,sp,136
80002efc:	30200073          	mret

80002f00 <vlip_Handler12>:
80002f00:	f7810113          	addi	sp,sp,-136
80002f04:	c206                	sw	ra,4(sp)
80002f06:	c60e                	sw	gp,12(sp)
80002f08:	c812                	sw	tp,16(sp)
80002f0a:	ca16                	sw	t0,20(sp)
80002f0c:	cc1a                	sw	t1,24(sp)
80002f0e:	ce1e                	sw	t2,28(sp)
80002f10:	d022                	sw	s0,32(sp)
80002f12:	d226                	sw	s1,36(sp)
80002f14:	d42a                	sw	a0,40(sp)
80002f16:	d62e                	sw	a1,44(sp)
80002f18:	d832                	sw	a2,48(sp)
80002f1a:	da36                	sw	a3,52(sp)
80002f1c:	dc3a                	sw	a4,56(sp)
80002f1e:	de3e                	sw	a5,60(sp)
80002f20:	c0c2                	sw	a6,64(sp)
80002f22:	c2c6                	sw	a7,68(sp)
80002f24:	c4ca                	sw	s2,72(sp)
80002f26:	c6ce                	sw	s3,76(sp)
80002f28:	c8d2                	sw	s4,80(sp)
80002f2a:	cad6                	sw	s5,84(sp)
80002f2c:	ccda                	sw	s6,88(sp)
80002f2e:	cede                	sw	s7,92(sp)
80002f30:	d0e2                	sw	s8,96(sp)
80002f32:	d2e6                	sw	s9,100(sp)
80002f34:	d4ea                	sw	s10,104(sp)
80002f36:	d6ee                	sw	s11,108(sp)
80002f38:	d8f2                	sw	t3,112(sp)
80002f3a:	daf6                	sw	t4,116(sp)
80002f3c:	dcfa                	sw	t5,120(sp)
80002f3e:	defe                	sw	t6,124(sp)
80002f40:	341022f3          	csrr	t0,mepc
80002f44:	c316                	sw	t0,132(sp)
80002f46:	850a                	mv	a0,sp
80002f48:	828a                	mv	t0,sp
80002f4a:	007fd117          	auipc	sp,0x7fd
80002f4e:	0b610113          	addi	sp,sp,182 # 80800000 <intrstack>
80002f52:	1171                	addi	sp,sp,-4
80002f54:	c016                	sw	t0,0(sp)
80002f56:	24a000ef          	jal	ra,800031a0 <handle_local_interrupt0>
80002f5a:	4282                	lw	t0,0(sp)
80002f5c:	8116                	mv	sp,t0
80002f5e:	429a                	lw	t0,132(sp)
80002f60:	34129073          	csrw	mepc,t0
80002f64:	4092                	lw	ra,4(sp)
80002f66:	41b2                	lw	gp,12(sp)
80002f68:	4242                	lw	tp,16(sp)
80002f6a:	42d2                	lw	t0,20(sp)
80002f6c:	4362                	lw	t1,24(sp)
80002f6e:	43f2                	lw	t2,28(sp)
80002f70:	5402                	lw	s0,32(sp)
80002f72:	5492                	lw	s1,36(sp)
80002f74:	5522                	lw	a0,40(sp)
80002f76:	55b2                	lw	a1,44(sp)
80002f78:	5642                	lw	a2,48(sp)
80002f7a:	56d2                	lw	a3,52(sp)
80002f7c:	5762                	lw	a4,56(sp)
80002f7e:	57f2                	lw	a5,60(sp)
80002f80:	4806                	lw	a6,64(sp)
80002f82:	4896                	lw	a7,68(sp)
80002f84:	4926                	lw	s2,72(sp)
80002f86:	49b6                	lw	s3,76(sp)
80002f88:	4a46                	lw	s4,80(sp)
80002f8a:	4ad6                	lw	s5,84(sp)
80002f8c:	4b66                	lw	s6,88(sp)
80002f8e:	4bf6                	lw	s7,92(sp)
80002f90:	5c06                	lw	s8,96(sp)
80002f92:	5c96                	lw	s9,100(sp)
80002f94:	5d26                	lw	s10,104(sp)
80002f96:	5db6                	lw	s11,108(sp)
80002f98:	5e46                	lw	t3,112(sp)
80002f9a:	5ed6                	lw	t4,116(sp)
80002f9c:	5f66                	lw	t5,120(sp)
80002f9e:	5ff6                	lw	t6,124(sp)
80002fa0:	08810113          	addi	sp,sp,136
80002fa4:	30200073          	mret

80002fa8 <vlip_Handler13>:
80002fa8:	f7810113          	addi	sp,sp,-136
80002fac:	c206                	sw	ra,4(sp)
80002fae:	c60e                	sw	gp,12(sp)
80002fb0:	c812                	sw	tp,16(sp)
80002fb2:	ca16                	sw	t0,20(sp)
80002fb4:	cc1a                	sw	t1,24(sp)
80002fb6:	ce1e                	sw	t2,28(sp)
80002fb8:	d022                	sw	s0,32(sp)
80002fba:	d226                	sw	s1,36(sp)
80002fbc:	d42a                	sw	a0,40(sp)
80002fbe:	d62e                	sw	a1,44(sp)
80002fc0:	d832                	sw	a2,48(sp)
80002fc2:	da36                	sw	a3,52(sp)
80002fc4:	dc3a                	sw	a4,56(sp)
80002fc6:	de3e                	sw	a5,60(sp)
80002fc8:	c0c2                	sw	a6,64(sp)
80002fca:	c2c6                	sw	a7,68(sp)
80002fcc:	c4ca                	sw	s2,72(sp)
80002fce:	c6ce                	sw	s3,76(sp)
80002fd0:	c8d2                	sw	s4,80(sp)
80002fd2:	cad6                	sw	s5,84(sp)
80002fd4:	ccda                	sw	s6,88(sp)
80002fd6:	cede                	sw	s7,92(sp)
80002fd8:	d0e2                	sw	s8,96(sp)
80002fda:	d2e6                	sw	s9,100(sp)
80002fdc:	d4ea                	sw	s10,104(sp)
80002fde:	d6ee                	sw	s11,108(sp)
80002fe0:	d8f2                	sw	t3,112(sp)
80002fe2:	daf6                	sw	t4,116(sp)
80002fe4:	dcfa                	sw	t5,120(sp)
80002fe6:	defe                	sw	t6,124(sp)
80002fe8:	341022f3          	csrr	t0,mepc
80002fec:	c316                	sw	t0,132(sp)
80002fee:	850a                	mv	a0,sp
80002ff0:	828a                	mv	t0,sp
80002ff2:	007fd117          	auipc	sp,0x7fd
80002ff6:	00e10113          	addi	sp,sp,14 # 80800000 <intrstack>
80002ffa:	1171                	addi	sp,sp,-4
80002ffc:	c016                	sw	t0,0(sp)
80002ffe:	1a2000ef          	jal	ra,800031a0 <handle_local_interrupt0>
80003002:	4282                	lw	t0,0(sp)
80003004:	8116                	mv	sp,t0
80003006:	429a                	lw	t0,132(sp)
80003008:	34129073          	csrw	mepc,t0
8000300c:	4092                	lw	ra,4(sp)
8000300e:	41b2                	lw	gp,12(sp)
80003010:	4242                	lw	tp,16(sp)
80003012:	42d2                	lw	t0,20(sp)
80003014:	4362                	lw	t1,24(sp)
80003016:	43f2                	lw	t2,28(sp)
80003018:	5402                	lw	s0,32(sp)
8000301a:	5492                	lw	s1,36(sp)
8000301c:	5522                	lw	a0,40(sp)
8000301e:	55b2                	lw	a1,44(sp)
80003020:	5642                	lw	a2,48(sp)
80003022:	56d2                	lw	a3,52(sp)
80003024:	5762                	lw	a4,56(sp)
80003026:	57f2                	lw	a5,60(sp)
80003028:	4806                	lw	a6,64(sp)
8000302a:	4896                	lw	a7,68(sp)
8000302c:	4926                	lw	s2,72(sp)
8000302e:	49b6                	lw	s3,76(sp)
80003030:	4a46                	lw	s4,80(sp)
80003032:	4ad6                	lw	s5,84(sp)
80003034:	4b66                	lw	s6,88(sp)
80003036:	4bf6                	lw	s7,92(sp)
80003038:	5c06                	lw	s8,96(sp)
8000303a:	5c96                	lw	s9,100(sp)
8000303c:	5d26                	lw	s10,104(sp)
8000303e:	5db6                	lw	s11,108(sp)
80003040:	5e46                	lw	t3,112(sp)
80003042:	5ed6                	lw	t4,116(sp)
80003044:	5f66                	lw	t5,120(sp)
80003046:	5ff6                	lw	t6,124(sp)
80003048:	08810113          	addi	sp,sp,136
8000304c:	30200073          	mret

80003050 <vlip_Handler14>:
80003050:	f7810113          	addi	sp,sp,-136
80003054:	c206                	sw	ra,4(sp)
80003056:	c60e                	sw	gp,12(sp)
80003058:	c812                	sw	tp,16(sp)
8000305a:	ca16                	sw	t0,20(sp)
8000305c:	cc1a                	sw	t1,24(sp)
8000305e:	ce1e                	sw	t2,28(sp)
80003060:	d022                	sw	s0,32(sp)
80003062:	d226                	sw	s1,36(sp)
80003064:	d42a                	sw	a0,40(sp)
80003066:	d62e                	sw	a1,44(sp)
80003068:	d832                	sw	a2,48(sp)
8000306a:	da36                	sw	a3,52(sp)
8000306c:	dc3a                	sw	a4,56(sp)
8000306e:	de3e                	sw	a5,60(sp)
80003070:	c0c2                	sw	a6,64(sp)
80003072:	c2c6                	sw	a7,68(sp)
80003074:	c4ca                	sw	s2,72(sp)
80003076:	c6ce                	sw	s3,76(sp)
80003078:	c8d2                	sw	s4,80(sp)
8000307a:	cad6                	sw	s5,84(sp)
8000307c:	ccda                	sw	s6,88(sp)
8000307e:	cede                	sw	s7,92(sp)
80003080:	d0e2                	sw	s8,96(sp)
80003082:	d2e6                	sw	s9,100(sp)
80003084:	d4ea                	sw	s10,104(sp)
80003086:	d6ee                	sw	s11,108(sp)
80003088:	d8f2                	sw	t3,112(sp)
8000308a:	daf6                	sw	t4,116(sp)
8000308c:	dcfa                	sw	t5,120(sp)
8000308e:	defe                	sw	t6,124(sp)
80003090:	341022f3          	csrr	t0,mepc
80003094:	c316                	sw	t0,132(sp)
80003096:	850a                	mv	a0,sp
80003098:	828a                	mv	t0,sp
8000309a:	007fd117          	auipc	sp,0x7fd
8000309e:	f6610113          	addi	sp,sp,-154 # 80800000 <intrstack>
800030a2:	1171                	addi	sp,sp,-4
800030a4:	c016                	sw	t0,0(sp)
800030a6:	0fa000ef          	jal	ra,800031a0 <handle_local_interrupt0>
800030aa:	4282                	lw	t0,0(sp)
800030ac:	8116                	mv	sp,t0
800030ae:	429a                	lw	t0,132(sp)
800030b0:	34129073          	csrw	mepc,t0
800030b4:	4092                	lw	ra,4(sp)
800030b6:	41b2                	lw	gp,12(sp)
800030b8:	4242                	lw	tp,16(sp)
800030ba:	42d2                	lw	t0,20(sp)
800030bc:	4362                	lw	t1,24(sp)
800030be:	43f2                	lw	t2,28(sp)
800030c0:	5402                	lw	s0,32(sp)
800030c2:	5492                	lw	s1,36(sp)
800030c4:	5522                	lw	a0,40(sp)
800030c6:	55b2                	lw	a1,44(sp)
800030c8:	5642                	lw	a2,48(sp)
800030ca:	56d2                	lw	a3,52(sp)
800030cc:	5762                	lw	a4,56(sp)
800030ce:	57f2                	lw	a5,60(sp)
800030d0:	4806                	lw	a6,64(sp)
800030d2:	4896                	lw	a7,68(sp)
800030d4:	4926                	lw	s2,72(sp)
800030d6:	49b6                	lw	s3,76(sp)
800030d8:	4a46                	lw	s4,80(sp)
800030da:	4ad6                	lw	s5,84(sp)
800030dc:	4b66                	lw	s6,88(sp)
800030de:	4bf6                	lw	s7,92(sp)
800030e0:	5c06                	lw	s8,96(sp)
800030e2:	5c96                	lw	s9,100(sp)
800030e4:	5d26                	lw	s10,104(sp)
800030e6:	5db6                	lw	s11,108(sp)
800030e8:	5e46                	lw	t3,112(sp)
800030ea:	5ed6                	lw	t4,116(sp)
800030ec:	5f66                	lw	t5,120(sp)
800030ee:	5ff6                	lw	t6,124(sp)
800030f0:	08810113          	addi	sp,sp,136
800030f4:	30200073          	mret

800030f8 <vlip_Handler15>:
800030f8:	f7810113          	addi	sp,sp,-136
800030fc:	c206                	sw	ra,4(sp)
800030fe:	c60e                	sw	gp,12(sp)
80003100:	c812                	sw	tp,16(sp)
80003102:	ca16                	sw	t0,20(sp)
80003104:	cc1a                	sw	t1,24(sp)
80003106:	ce1e                	sw	t2,28(sp)
80003108:	d022                	sw	s0,32(sp)
8000310a:	d226                	sw	s1,36(sp)
8000310c:	d42a                	sw	a0,40(sp)
8000310e:	d62e                	sw	a1,44(sp)
80003110:	d832                	sw	a2,48(sp)
80003112:	da36                	sw	a3,52(sp)
80003114:	dc3a                	sw	a4,56(sp)
80003116:	de3e                	sw	a5,60(sp)
80003118:	c0c2                	sw	a6,64(sp)
8000311a:	c2c6                	sw	a7,68(sp)
8000311c:	c4ca                	sw	s2,72(sp)
8000311e:	c6ce                	sw	s3,76(sp)
80003120:	c8d2                	sw	s4,80(sp)
80003122:	cad6                	sw	s5,84(sp)
80003124:	ccda                	sw	s6,88(sp)
80003126:	cede                	sw	s7,92(sp)
80003128:	d0e2                	sw	s8,96(sp)
8000312a:	d2e6                	sw	s9,100(sp)
8000312c:	d4ea                	sw	s10,104(sp)
8000312e:	d6ee                	sw	s11,108(sp)
80003130:	d8f2                	sw	t3,112(sp)
80003132:	daf6                	sw	t4,116(sp)
80003134:	dcfa                	sw	t5,120(sp)
80003136:	defe                	sw	t6,124(sp)
80003138:	341022f3          	csrr	t0,mepc
8000313c:	c316                	sw	t0,132(sp)
8000313e:	850a                	mv	a0,sp
80003140:	828a                	mv	t0,sp
80003142:	007fd117          	auipc	sp,0x7fd
80003146:	ebe10113          	addi	sp,sp,-322 # 80800000 <intrstack>
8000314a:	1171                	addi	sp,sp,-4
8000314c:	c016                	sw	t0,0(sp)
8000314e:	052000ef          	jal	ra,800031a0 <handle_local_interrupt0>
80003152:	4282                	lw	t0,0(sp)
80003154:	8116                	mv	sp,t0
80003156:	429a                	lw	t0,132(sp)
80003158:	34129073          	csrw	mepc,t0
8000315c:	4092                	lw	ra,4(sp)
8000315e:	41b2                	lw	gp,12(sp)
80003160:	4242                	lw	tp,16(sp)
80003162:	42d2                	lw	t0,20(sp)
80003164:	4362                	lw	t1,24(sp)
80003166:	43f2                	lw	t2,28(sp)
80003168:	5402                	lw	s0,32(sp)
8000316a:	5492                	lw	s1,36(sp)
8000316c:	5522                	lw	a0,40(sp)
8000316e:	55b2                	lw	a1,44(sp)
80003170:	5642                	lw	a2,48(sp)
80003172:	56d2                	lw	a3,52(sp)
80003174:	5762                	lw	a4,56(sp)
80003176:	57f2                	lw	a5,60(sp)
80003178:	4806                	lw	a6,64(sp)
8000317a:	4896                	lw	a7,68(sp)
8000317c:	4926                	lw	s2,72(sp)
8000317e:	49b6                	lw	s3,76(sp)
80003180:	4a46                	lw	s4,80(sp)
80003182:	4ad6                	lw	s5,84(sp)
80003184:	4b66                	lw	s6,88(sp)
80003186:	4bf6                	lw	s7,92(sp)
80003188:	5c06                	lw	s8,96(sp)
8000318a:	5c96                	lw	s9,100(sp)
8000318c:	5d26                	lw	s10,104(sp)
8000318e:	5db6                	lw	s11,108(sp)
80003190:	5e46                	lw	t3,112(sp)
80003192:	5ed6                	lw	t4,116(sp)
80003194:	5f66                	lw	t5,120(sp)
80003196:	5ff6                	lw	t6,124(sp)
80003198:	08810113          	addi	sp,sp,136
8000319c:	30200073          	mret

800031a0 <handle_local_interrupt0>:
800031a0:	a001                	j	800031a0 <handle_local_interrupt0>
	...

Disassembly of section .rodata:

800031dc <rodata_start>:
800031dc:	736e6f63          	bltu	t3,s6,8000391a <_end+0x252>
800031e0:	7264                	flw	fs1,100(a2)
800031e2:	0076                	c.slli	zero,0x1d
800031e4:	6d6d6f63          	bltu	s10,s6,800038c2 <_end+0x1fa>
800031e8:	6e61                	lui	t3,0x18
800031ea:	0064                	addi	s1,sp,12
800031ec:	6469                	lui	s0,0x1a
800031ee:	656c                	flw	fa1,76(a0)
800031f0:	0000                	unimp
800031f2:	0000                	unimp
800031f4:	3130                	fld	fa2,96(a0)
800031f6:	3332                	fld	ft6,296(sp)
800031f8:	3534                	fld	fa3,104(a0)
800031fa:	3736                	fld	fa4,360(sp)
800031fc:	3938                	fld	fa4,112(a0)
800031fe:	6261                	lui	tp,0x18
80003200:	66656463          	bltu	a0,t1,80003868 <_end+0x1a0>
80003204:	0000                	unimp
80003206:	0000                	unimp
80003208:	4520                	lw	s0,72(a0)
8000320a:	4958                	lw	a4,20(a0)
8000320c:	2e54                	fld	fa3,152(a2)
8000320e:	000a                	c.slli	zero,0x2
80003210:	e1da                	fsw	fs6,192(sp)
80003212:	ffff                	0xffff
80003214:	e20a                	fsw	ft2,4(sp)
80003216:	ffff                	0xffff
80003218:	e20e                	fsw	ft3,4(sp)
8000321a:	ffff                	0xffff
8000321c:	e21a                	fsw	ft6,4(sp)
8000321e:	ffff                	0xffff
80003220:	e226                	fsw	fs1,4(sp)
80003222:	ffff                	0xffff
80003224:	e23a                	fsw	fa4,4(sp)
80003226:	ffff                	0xffff
80003228:	e246                	fsw	fa7,4(sp)
8000322a:	ffff                	0xffff
8000322c:	e25a                	fsw	fs6,4(sp)
8000322e:	ffff                	0xffff
80003230:	e26e                	fsw	fs11,4(sp)
80003232:	ffff                	0xffff
80003234:	e282                	fsw	ft0,68(sp)
80003236:	ffff                	0xffff
80003238:	e2a6                	fsw	fs1,68(sp)
8000323a:	ffff                	0xffff
8000323c:	e2ca                	fsw	fs2,68(sp)
8000323e:	ffff                	0xffff
80003240:	4420                	lw	s0,72(s0)
80003242:	2e4e574f          	fnmadd.q	fa4,ft8,ft4,ft5,unknown
80003246:	6d20                	flw	fs0,88(a0)
80003248:	73756163          	bltu	a0,s7,8000396a <_end+0x2a2>
8000324c:	3a65                	jal	80002c04 <vlip_Handler7+0x4c>
8000324e:	0020                	addi	s0,sp,8
80003250:	6d20                	flw	fs0,88(a0)
80003252:	7065                	c.lui	zero,0xffff9
80003254:	00203a63          	0x203a63
80003258:	000a                	c.slli	zero,0x2
8000325a:	0000                	unimp
8000325c:	74737973          	csrrci	s2,0x747,6
80003260:	6d65                	lui	s10,0x19
80003262:	6520                	flw	fs0,72(a0)
80003264:	7272                	flw	ft4,60(sp)
80003266:	0a21726f          	jal	tp,8001a308 <_end+0x16c40>
8000326a:	0000                	unimp
8000326c:	0a61                	addi	s4,s4,24
8000326e:	0000                	unimp
80003270:	6d6d6f63          	bltu	s10,s6,8000394e <_end+0x286>
80003274:	6e61                	lui	t3,0x18
80003276:	3e64                	fld	fs1,248(a2)
80003278:	0020                	addi	s0,sp,8
8000327a:	0000                	unimp
8000327c:	6365                	lui	t1,0x19
8000327e:	6f68                	flw	fa0,92(a4)
80003280:	0020                	addi	s0,sp,8
80003282:	0000                	unimp
80003284:	000a                	c.slli	zero,0x2
80003286:	0000                	unimp
80003288:	6e75                	lui	t3,0x1d
8000328a:	776f6e6b          	0x776f6e6b
8000328e:	2e6e                	fld	ft8,216(sp)
80003290:	000a                	c.slli	zero,0x2

Disassembly of section .data:

80003294 <data_start>:
80003294:	0010                	0x10
80003296:	0000                	unimp
80003298:	0008                	0x8
8000329a:	0000                	unimp
8000329c:	0000                	unimp
8000329e:	0000                	unimp
800032a0:	0020                	addi	s0,sp,8
800032a2:	0000                	unimp
800032a4:	0008                	0x8
800032a6:	0000                	unimp
800032a8:	0000                	unimp
800032aa:	0000                	unimp
800032ac:	0040                	addi	s0,sp,4
800032ae:	0000                	unimp
800032b0:	0004                	0x4
800032b2:	0000                	unimp
800032b4:	0000                	unimp
	...

Disassembly of section .sdata:

800032b8 <sdata_start>:
800032b8:	3000                	fld	fs0,32(s0)
800032ba:	1001                	c.nop	-32

800032bc <received_val>:
800032bc:	ffff                	0xffff
800032be:	ffff                	0xffff

800032c0 <thread_stack.1281>:
800032c0:	0000                	unimp
800032c2:	805f        	0x800036c8805f

800032c4 <area.1219>:
800032c4:	36c8                	fld	fa0,168(a3)
800032c6:	8000                	0x8000

Disassembly of section .bss:

800032c8 <bss_start>:
	...

80003458 <readyque>:
	...

800034d8 <current>:
800034d8:	0000                	unimp
	...

800034dc <threads>:
	...

8000362c <handlers>:
	...

80003638 <msgboxes>:
	...

80003650 <consreg>:
	...

Disassembly of section .sbss:

80003680 <tohost>:
	...

800036c0 <fromhost>:
	...

Disassembly of section .riscv.attributes:

00000000 <freearea-0x800036c8>:
   0:	2841                	jal	90 <REGBYTES+0x8c>
   2:	0000                	unimp
   4:	7200                	flw	fs0,32(a2)
   6:	7369                	lui	t1,0xffffa
   8:	01007663          	bgeu	zero,a6,14 <REGBYTES+0x10>
   c:	001e                	c.slli	zero,0x7
   e:	0000                	unimp
  10:	7205                	lui	tp,0xfffe1
  12:	3376                	fld	ft6,376(sp)
  14:	6932                	flw	fs2,12(sp)
  16:	7032                	flw	ft0,44(sp)
  18:	5f30                	lw	a2,120(a4)
  1a:	326d                	jal	fffff9c4 <bootstack+0x7f6ff9c4>
  1c:	3070                	fld	fa2,224(s0)
  1e:	615f 7032 5f30      	0x5f307032615f
  24:	30703263          	0x30703263
	...

Disassembly of section .comment:

00000000 <.comment>:
   0:	3a434347          	fmsub.d	ft6,ft6,ft4,ft7,rmm
   4:	2820                	fld	fs0,80(s0)
   6:	736f7263          	bgeu	t5,s6,72a <REGBYTES+0x726>
   a:	6f6f7473          	csrrci	s0,0x6f6,30
   e:	2d6c                	fld	fa1,216(a0)
  10:	474e                	lw	a4,208(sp)
  12:	3120                	fld	fs0,96(a0)
  14:	322e                	fld	ft4,232(sp)
  16:	2e34                	fld	fa3,88(a2)
  18:	2e30                	fld	fa2,88(a2)
  1a:	2d36                	fld	fs10,328(sp)
  1c:	6661                	lui	a2,0x18
  1e:	6661                	lui	a2,0x18
  20:	2d396237          	lui	tp,0x2d396
  24:	6964                	flw	fs1,84(a0)
  26:	7472                	flw	fs0,60(sp)
  28:	2979                	jal	4c6 <REGBYTES+0x4c2>
  2a:	3820                	fld	fs0,112(s0)
  2c:	332e                	fld	ft6,232(sp)
  2e:	302e                	fld	ft0,232(sp)
	...

Disassembly of section .debug_line:

00000000 <.debug_line>:
       0:	0112                	slli	sp,sp,0x4
       2:	0000                	unimp
       4:	00200003          	lb	zero,2(zero) # 2 <REGBYTES-0x2>
       8:	0000                	unimp
       a:	0101                	addi	sp,sp,0
       c:	000d0efb          	0xd0efb
      10:	0101                	addi	sp,sp,0
      12:	0101                	addi	sp,sp,0
      14:	0000                	unimp
      16:	0100                	addi	s0,sp,128
      18:	0000                	unimp
      1a:	0001                	nop
      1c:	72617473          	csrrci	s0,0x726,2
      20:	7574                	flw	fa3,108(a0)
      22:	2e70                	fld	fa2,216(a2)
      24:	00000073          	ecall
      28:	0000                	unimp
      2a:	0500                	addi	s0,sp,640
      2c:	0002                	c.slli64	zero
      2e:	0000                	unimp
      30:	1a80                	addi	s0,sp,368
      32:	08090103          	lb	sp,128(s2)
      36:	0100                	addi	s0,sp,128
      38:	02090203          	lb	tp,32(s2)
      3c:	0100                	addi	s0,sp,128
      3e:	04090403          	lb	s0,64(s2)
      42:	0100                	addi	s0,sp,128
      44:	04090303          	lb	t1,64(s2)
      48:	0100                	addi	s0,sp,128
      4a:	04090103          	lb	sp,64(s2)
      4e:	0100                	addi	s0,sp,128
      50:	04090603          	lb	a2,64(s2)
      54:	0100                	addi	s0,sp,128
      56:	04090203          	lb	tp,64(s2)
      5a:	0100                	addi	s0,sp,128
      5c:	04090103          	lb	sp,64(s2)
      60:	0100                	addi	s0,sp,128
      62:	04090103          	lb	sp,64(s2)
      66:	0100                	addi	s0,sp,128
      68:	04090103          	lb	sp,64(s2)
      6c:	0100                	addi	s0,sp,128
      6e:	04090103          	lb	sp,64(s2)
      72:	0100                	addi	s0,sp,128
      74:	04090103          	lb	sp,64(s2)
      78:	0100                	addi	s0,sp,128
      7a:	04090103          	lb	sp,64(s2)
      7e:	0100                	addi	s0,sp,128
      80:	04090103          	lb	sp,64(s2)
      84:	0100                	addi	s0,sp,128
      86:	04090103          	lb	sp,64(s2)
      8a:	0100                	addi	s0,sp,128
      8c:	04090103          	lb	sp,64(s2)
      90:	0100                	addi	s0,sp,128
      92:	04090103          	lb	sp,64(s2)
      96:	0100                	addi	s0,sp,128
      98:	04090103          	lb	sp,64(s2)
      9c:	0100                	addi	s0,sp,128
      9e:	04090103          	lb	sp,64(s2)
      a2:	0100                	addi	s0,sp,128
      a4:	04090103          	lb	sp,64(s2)
      a8:	0100                	addi	s0,sp,128
      aa:	04090103          	lb	sp,64(s2)
      ae:	0100                	addi	s0,sp,128
      b0:	04090103          	lb	sp,64(s2)
      b4:	0100                	addi	s0,sp,128
      b6:	04090103          	lb	sp,64(s2)
      ba:	0100                	addi	s0,sp,128
      bc:	04090103          	lb	sp,64(s2)
      c0:	0100                	addi	s0,sp,128
      c2:	04090103          	lb	sp,64(s2)
      c6:	0100                	addi	s0,sp,128
      c8:	04090103          	lb	sp,64(s2)
      cc:	0100                	addi	s0,sp,128
      ce:	04090103          	lb	sp,64(s2)
      d2:	0100                	addi	s0,sp,128
      d4:	04090103          	lb	sp,64(s2)
      d8:	0100                	addi	s0,sp,128
      da:	04090103          	lb	sp,64(s2)
      de:	0100                	addi	s0,sp,128
      e0:	04090103          	lb	sp,64(s2)
      e4:	0100                	addi	s0,sp,128
      e6:	04090103          	lb	sp,64(s2)
      ea:	0100                	addi	s0,sp,128
      ec:	04090103          	lb	sp,64(s2)
      f0:	0100                	addi	s0,sp,128
      f2:	04090103          	lb	sp,64(s2)
      f6:	0100                	addi	s0,sp,128
      f8:	04090103          	lb	sp,64(s2)
      fc:	0100                	addi	s0,sp,128
      fe:	04090103          	lb	sp,64(s2)
     102:	0100                	addi	s0,sp,128
     104:	04090203          	lb	tp,64(s2)
     108:	0100                	addi	s0,sp,128
     10a:	04090403          	lb	s0,64(s2)
     10e:	0100                	addi	s0,sp,128
     110:	0409                	addi	s0,s0,2
     112:	0000                	unimp
     114:	0101                	addi	sp,sp,0
     116:	025c                	addi	a5,sp,260
     118:	0000                	unimp
     11a:	001d0003          	lb	zero,1(s10) # 19001 <REGBYTES+0x18ffd>
     11e:	0000                	unimp
     120:	0101                	addi	sp,sp,0
     122:	000d0efb          	0xd0efb
     126:	0101                	addi	sp,sp,0
     128:	0101                	addi	sp,sp,0
     12a:	0000                	unimp
     12c:	0100                	addi	s0,sp,128
     12e:	0000                	unimp
     130:	0001                	nop
     132:	6e69                	lui	t3,0x1a
     134:	7274                	flw	fa3,100(a2)
     136:	532e                	lw	t1,232(sp)
     138:	0000                	unimp
     13a:	0000                	unimp
     13c:	0000                	unimp
     13e:	0205                	addi	tp,tp,1
     140:	2400                	fld	fs0,8(s0)
     142:	8000                	0x8000
     144:	0100f003          	0x100f003
     148:	04090203          	lb	tp,64(s2)
     14c:	0100                	addi	s0,sp,128
     14e:	04090203          	lb	tp,64(s2)
     152:	0100                	addi	s0,sp,128
     154:	04090203          	lb	tp,64(s2)
     158:	0100                	addi	s0,sp,128
     15a:	04090203          	lb	tp,64(s2)
     15e:	0100                	addi	s0,sp,128
     160:	04090203          	lb	tp,64(s2)
     164:	0100                	addi	s0,sp,128
     166:	04090203          	lb	tp,64(s2)
     16a:	0100                	addi	s0,sp,128
     16c:	04090203          	lb	tp,64(s2)
     170:	0100                	addi	s0,sp,128
     172:	04090203          	lb	tp,64(s2)
     176:	0100                	addi	s0,sp,128
     178:	04090203          	lb	tp,64(s2)
     17c:	0100                	addi	s0,sp,128
     17e:	04090203          	lb	tp,64(s2)
     182:	0100                	addi	s0,sp,128
     184:	04090203          	lb	tp,64(s2)
     188:	0100                	addi	s0,sp,128
     18a:	04090203          	lb	tp,64(s2)
     18e:	0100                	addi	s0,sp,128
     190:	04090203          	lb	tp,64(s2)
     194:	0100                	addi	s0,sp,128
     196:	04090203          	lb	tp,64(s2)
     19a:	0100                	addi	s0,sp,128
     19c:	04090203          	lb	tp,64(s2)
     1a0:	0100                	addi	s0,sp,128
     1a2:	04090203          	lb	tp,64(s2)
     1a6:	0100                	addi	s0,sp,128
     1a8:	04090203          	lb	tp,64(s2)
     1ac:	0100                	addi	s0,sp,128
     1ae:	04090203          	lb	tp,64(s2)
     1b2:	0100                	addi	s0,sp,128
     1b4:	04090203          	lb	tp,64(s2)
     1b8:	0100                	addi	s0,sp,128
     1ba:	04090203          	lb	tp,64(s2)
     1be:	0100                	addi	s0,sp,128
     1c0:	04090203          	lb	tp,64(s2)
     1c4:	0100                	addi	s0,sp,128
     1c6:	04090203          	lb	tp,64(s2)
     1ca:	0100                	addi	s0,sp,128
     1cc:	04090203          	lb	tp,64(s2)
     1d0:	0100                	addi	s0,sp,128
     1d2:	04090203          	lb	tp,64(s2)
     1d6:	0100                	addi	s0,sp,128
     1d8:	04090203          	lb	tp,64(s2)
     1dc:	0100                	addi	s0,sp,128
     1de:	04090203          	lb	tp,64(s2)
     1e2:	0100                	addi	s0,sp,128
     1e4:	04090203          	lb	tp,64(s2)
     1e8:	0100                	addi	s0,sp,128
     1ea:	04090203          	lb	tp,64(s2)
     1ee:	0100                	addi	s0,sp,128
     1f0:	04090203          	lb	tp,64(s2)
     1f4:	0100                	addi	s0,sp,128
     1f6:	04090203          	lb	tp,64(s2)
     1fa:	0100                	addi	s0,sp,128
     1fc:	04090203          	lb	tp,64(s2)
     200:	0100                	addi	s0,sp,128
     202:	04090503          	lb	a0,64(s2)
     206:	0100                	addi	s0,sp,128
     208:	56090103          	lb	sp,1376(s2)
     20c:	0100                	addi	s0,sp,128
     20e:	04090103          	lb	sp,64(s2)
     212:	0100                	addi	s0,sp,128
     214:	4e090403          	lb	s0,1248(s2)
     218:	0100                	addi	s0,sp,128
     21a:	56090103          	lb	sp,1376(s2)
     21e:	0100                	addi	s0,sp,128
     220:	04090103          	lb	sp,64(s2)
     224:	0100                	addi	s0,sp,128
     226:	4e090403          	lb	s0,1248(s2)
     22a:	0100                	addi	s0,sp,128
     22c:	56090103          	lb	sp,1376(s2)
     230:	0100                	addi	s0,sp,128
     232:	04090103          	lb	sp,64(s2)
     236:	0100                	addi	s0,sp,128
     238:	4e090403          	lb	s0,1248(s2)
     23c:	0100                	addi	s0,sp,128
     23e:	56090103          	lb	sp,1376(s2)
     242:	0100                	addi	s0,sp,128
     244:	04090103          	lb	sp,64(s2)
     248:	0100                	addi	s0,sp,128
     24a:	4e090503          	lb	a0,1248(s2)
     24e:	0100                	addi	s0,sp,128
     250:	56090103          	lb	sp,1376(s2)
     254:	0100                	addi	s0,sp,128
     256:	04090103          	lb	sp,64(s2)
     25a:	0100                	addi	s0,sp,128
     25c:	4e090403          	lb	s0,1248(s2)
     260:	0100                	addi	s0,sp,128
     262:	56090103          	lb	sp,1376(s2)
     266:	0100                	addi	s0,sp,128
     268:	04090103          	lb	sp,64(s2)
     26c:	0100                	addi	s0,sp,128
     26e:	4e090403          	lb	s0,1248(s2)
     272:	0100                	addi	s0,sp,128
     274:	56090103          	lb	sp,1376(s2)
     278:	0100                	addi	s0,sp,128
     27a:	04090103          	lb	sp,64(s2)
     27e:	0100                	addi	s0,sp,128
     280:	4e090403          	lb	s0,1248(s2)
     284:	0100                	addi	s0,sp,128
     286:	56090103          	lb	sp,1376(s2)
     28a:	0100                	addi	s0,sp,128
     28c:	04090103          	lb	sp,64(s2)
     290:	0100                	addi	s0,sp,128
     292:	4e090403          	lb	s0,1248(s2)
     296:	0100                	addi	s0,sp,128
     298:	56090103          	lb	sp,1376(s2)
     29c:	0100                	addi	s0,sp,128
     29e:	04090103          	lb	sp,64(s2)
     2a2:	0100                	addi	s0,sp,128
     2a4:	4e090403          	lb	s0,1248(s2)
     2a8:	0100                	addi	s0,sp,128
     2aa:	56090103          	lb	sp,1376(s2)
     2ae:	0100                	addi	s0,sp,128
     2b0:	04090103          	lb	sp,64(s2)
     2b4:	0100                	addi	s0,sp,128
     2b6:	4e090403          	lb	s0,1248(s2)
     2ba:	0100                	addi	s0,sp,128
     2bc:	56090103          	lb	sp,1376(s2)
     2c0:	0100                	addi	s0,sp,128
     2c2:	04090103          	lb	sp,64(s2)
     2c6:	0100                	addi	s0,sp,128
     2c8:	4e090403          	lb	s0,1248(s2)
     2cc:	0100                	addi	s0,sp,128
     2ce:	56090103          	lb	sp,1376(s2)
     2d2:	0100                	addi	s0,sp,128
     2d4:	04090103          	lb	sp,64(s2)
     2d8:	0100                	addi	s0,sp,128
     2da:	4e090403          	lb	s0,1248(s2)
     2de:	0100                	addi	s0,sp,128
     2e0:	56090103          	lb	sp,1376(s2)
     2e4:	0100                	addi	s0,sp,128
     2e6:	04090103          	lb	sp,64(s2)
     2ea:	0100                	addi	s0,sp,128
     2ec:	4e090403          	lb	s0,1248(s2)
     2f0:	0100                	addi	s0,sp,128
     2f2:	56090103          	lb	sp,1376(s2)
     2f6:	0100                	addi	s0,sp,128
     2f8:	04090103          	lb	sp,64(s2)
     2fc:	0100                	addi	s0,sp,128
     2fe:	4e090403          	lb	s0,1248(s2)
     302:	0100                	addi	s0,sp,128
     304:	56090103          	lb	sp,1376(s2)
     308:	0100                	addi	s0,sp,128
     30a:	04090103          	lb	sp,64(s2)
     30e:	0100                	addi	s0,sp,128
     310:	4e090403          	lb	s0,1248(s2)
     314:	0100                	addi	s0,sp,128
     316:	56090103          	lb	sp,1376(s2)
     31a:	0100                	addi	s0,sp,128
     31c:	04090103          	lb	sp,64(s2)
     320:	0100                	addi	s0,sp,128
     322:	4e090403          	lb	s0,1248(s2)
     326:	0100                	addi	s0,sp,128
     328:	56090103          	lb	sp,1376(s2)
     32c:	0100                	addi	s0,sp,128
     32e:	04090103          	lb	sp,64(s2)
     332:	0100                	addi	s0,sp,128
     334:	4e090403          	lb	s0,1248(s2)
     338:	0100                	addi	s0,sp,128
     33a:	56090103          	lb	sp,1376(s2)
     33e:	0100                	addi	s0,sp,128
     340:	04090103          	lb	sp,64(s2)
     344:	0100                	addi	s0,sp,128
     346:	4e090403          	lb	s0,1248(s2)
     34a:	0100                	addi	s0,sp,128
     34c:	56090103          	lb	sp,1376(s2)
     350:	0100                	addi	s0,sp,128
     352:	04090103          	lb	sp,64(s2)
     356:	0100                	addi	s0,sp,128
     358:	4e090403          	lb	s0,1248(s2)
     35c:	0100                	addi	s0,sp,128
     35e:	56090103          	lb	sp,1376(s2)
     362:	0100                	addi	s0,sp,128
     364:	04090103          	lb	sp,64(s2)
     368:	0100                	addi	s0,sp,128
     36a:	4e092e03          	lw	t3,1248(s2)
     36e:	0100                	addi	s0,sp,128
     370:	0209                	addi	tp,tp,2
     372:	0000                	unimp
     374:	0101                	addi	sp,sp,0
     376:	00000093          	li	ra,0
     37a:	001d0003          	lb	zero,1(s10)
     37e:	0000                	unimp
     380:	0101                	addi	sp,sp,0
     382:	000d0efb          	0xd0efb
     386:	0101                	addi	sp,sp,0
     388:	0101                	addi	sp,sp,0
     38a:	0000                	unimp
     38c:	0100                	addi	s0,sp,128
     38e:	0000                	unimp
     390:	0001                	nop
     392:	616d                	addi	sp,sp,240
     394:	6e69                	lui	t3,0x1a
     396:	632e                	flw	ft6,200(sp)
     398:	0000                	unimp
     39a:	0000                	unimp
     39c:	0500                	addi	s0,sp,640
     39e:	0001                	nop
     3a0:	0205                	addi	tp,tp,1
     3a2:	009a                	slli	ra,ra,0x6
     3a4:	8000                	0x8000
     3a6:	05010a03          	lb	s4,80(sp)
     3aa:	09030303          	lb	t1,144(t1) # ffffa090 <bootstack+0x7f6fa090>
     3ae:	0010                	0x10
     3b0:	0301                	addi	t1,t1,0
     3b2:	0901                	addi	s2,s2,0
     3b4:	001e                	c.slli	zero,0x7
     3b6:	0301                	addi	t1,t1,0
     3b8:	0902                	c.slli64	s2
     3ba:	001e                	c.slli	zero,0x7
     3bc:	0301                	addi	t1,t1,0
     3be:	00060903          	lb	s2,0(a2) # 18000 <REGBYTES+0x17ffc>
     3c2:	0501                	addi	a0,a0,0
     3c4:	0005                	c.nop	1
     3c6:	0402                	c.slli64	s0
     3c8:	0301                	addi	t1,t1,0
     3ca:	0902                	c.slli64	s2
     3cc:	0008                	0x8
     3ce:	0501                	addi	a0,a0,0
     3d0:	0301                	addi	t1,t1,0
     3d2:	00060907          	0x60907
     3d6:	0501                	addi	a0,a0,0
     3d8:	09050303          	lb	t1,144(a0)
     3dc:	0008                	0x8
     3de:	0301                	addi	t1,t1,0
     3e0:	0902                	c.slli64	s2
     3e2:	0008                	0x8
     3e4:	0301                	addi	t1,t1,0
     3e6:	0901                	addi	s2,s2,0
     3e8:	0008                	0x8
     3ea:	0301                	addi	t1,t1,0
     3ec:	0901                	addi	s2,s2,0
     3ee:	000c                	0xc
     3f0:	0301                	addi	t1,t1,0
     3f2:	000e090f          	0xe090f
     3f6:	0501                	addi	a0,a0,0
     3f8:	030a                	slli	t1,t1,0x2
     3fa:	001e0903          	lb	s2,1(t3) # 1a001 <REGBYTES+0x19ffd>
     3fe:	0501                	addi	a0,a0,0
     400:	0301                	addi	t1,t1,0
     402:	0901                	addi	s2,s2,0
     404:	0002                	c.slli64	zero
     406:	0901                	addi	s2,s2,0
     408:	000a                	c.slli	zero,0x2
     40a:	0100                	addi	s0,sp,128
     40c:	5001                	c.li	zero,-32
     40e:	0000                	unimp
     410:	0300                	addi	s0,sp,384
     412:	2200                	fld	fs0,0(a2)
     414:	0000                	unimp
     416:	0100                	addi	s0,sp,128
     418:	fb01                	bnez	a4,328 <REGBYTES+0x324>
     41a:	0d0e                	slli	s10,s10,0x3
     41c:	0100                	addi	s0,sp,128
     41e:	0101                	addi	sp,sp,0
     420:	0001                	nop
     422:	0000                	unimp
     424:	0001                	nop
     426:	0100                	addi	s0,sp,128
     428:	6900                	flw	fs0,16(a0)
     42a:	746e                	flw	fs0,248(sp)
     42c:	7265                	lui	tp,0xffff9
     42e:	7572                	flw	fa0,60(sp)
     430:	7470                	flw	fa2,108(s0)
     432:	632e                	flw	ft6,200(sp)
     434:	0000                	unimp
     436:	0000                	unimp
     438:	0500                	addi	s0,sp,640
     43a:	0001                	nop
     43c:	0205                	addi	tp,tp,1
     43e:	0156                	slli	sp,sp,0x15
     440:	8000                	0x8000
     442:	0519                	addi	a0,a0,6
     444:	09010303          	lb	t1,144(sp)
     448:	0006                	c.slli	zero,0x1
     44a:	0501                	addi	a0,a0,0
     44c:	030a                	slli	t1,t1,0x2
     44e:	0902                	c.slli64	s2
     450:	0010                	0x10
     452:	0501                	addi	a0,a0,0
     454:	0301                	addi	t1,t1,0
     456:	0901                	addi	s2,s2,0
     458:	0002                	c.slli64	zero
     45a:	0901                	addi	s2,s2,0
     45c:	0008                	0x8
     45e:	0100                	addi	s0,sp,128
     460:	4601                	li	a2,0
     462:	03000003          	lb	zero,48(zero) # 30 <REGBYTES+0x2c>
     466:	da00                	sw	s0,48(a2)
     468:	0000                	unimp
     46a:	0100                	addi	s0,sp,128
     46c:	fb01                	bnez	a4,37c <REGBYTES+0x378>
     46e:	0d0e                	slli	s10,s10,0x3
     470:	0100                	addi	s0,sp,128
     472:	0101                	addi	sp,sp,0
     474:	0001                	nop
     476:	0000                	unimp
     478:	0001                	nop
     47a:	0100                	addi	s0,sp,128
     47c:	6d6f682f          	0x6d6f682f
     480:	2f65                	jal	c38 <REGBYTES+0xc34>
     482:	61677573          	csrrci	a0,0x616,14
     486:	742d782f          	0x742d782f
     48a:	736c6f6f          	jal	t5,c6bc0 <REGBYTES+0xc6bbc>
     48e:	7369722f          	0x7369722f
     492:	32337663          	bgeu	t1,gp,7be <REGBYTES+0x7ba>
     496:	682d                	lui	a6,0xb
     498:	6669                	lui	a2,0x1a
     49a:	7669                	lui	a2,0xffffa
     49c:	3165                	jal	144 <REGBYTES+0x140>
     49e:	652d                	lui	a0,0xb
     4a0:	666c                	flw	fa1,76(a2)
     4a2:	7369722f          	0x7369722f
     4a6:	32337663          	bgeu	t1,gp,7d2 <REGBYTES+0x7ce>
     4aa:	682d                	lui	a6,0xb
     4ac:	6669                	lui	a2,0x1a
     4ae:	7669                	lui	a2,0xffffa
     4b0:	3165                	jal	158 <REGBYTES+0x154>
     4b2:	652d                	lui	a0,0xb
     4b4:	666c                	flw	fa1,76(a2)
     4b6:	7379732f          	0x7379732f
     4ba:	692d                	lui	s2,0xb
     4bc:	636e                	flw	ft6,216(sp)
     4be:	756c                	flw	fa1,108(a0)
     4c0:	6564                	flw	fs1,76(a0)
     4c2:	63616d2f          	0x63616d2f
     4c6:	6968                	flw	fa0,84(a0)
     4c8:	656e                	flw	fa0,216(sp)
     4ca:	2f00                	fld	fs0,24(a4)
     4cc:	6f68                	flw	fa0,92(a4)
     4ce:	656d                	lui	a0,0x1b
     4d0:	6775732f          	0x6775732f
     4d4:	2f61                	jal	c6c <REGBYTES+0xc68>
     4d6:	2d78                	fld	fa4,216(a0)
     4d8:	6f74                	flw	fa3,92(a4)
     4da:	2f736c6f          	jal	s8,36fd0 <REGBYTES+0x36fcc>
     4de:	6972                	flw	fs2,28(sp)
     4e0:	33766373          	csrrsi	t1,mhpmevent23,12
     4e4:	2d32                	fld	fs10,264(sp)
     4e6:	6968                	flw	fa0,84(a0)
     4e8:	6966                	flw	fs2,88(sp)
     4ea:	6576                	flw	fa0,92(sp)
     4ec:	2d31                	jal	b08 <REGBYTES+0xb04>
     4ee:	6c65                	lui	s8,0x19
     4f0:	2f66                	fld	ft10,88(sp)
     4f2:	6972                	flw	fs2,28(sp)
     4f4:	33766373          	csrrsi	t1,mhpmevent23,12
     4f8:	2d32                	fld	fs10,264(sp)
     4fa:	6968                	flw	fa0,84(a0)
     4fc:	6966                	flw	fs2,88(sp)
     4fe:	6576                	flw	fa0,92(sp)
     500:	2d31                	jal	b1c <REGBYTES+0xb18>
     502:	6c65                	lui	s8,0x19
     504:	2f66                	fld	ft10,88(sp)
     506:	2d737973          	csrrci	s2,0x2d7,6
     50a:	6e69                	lui	t3,0x1a
     50c:	64756c63          	bltu	a0,t2,b64 <REGBYTES+0xb60>
     510:	2f65                	jal	cc8 <REGBYTES+0xcc4>
     512:	00737973          	csrrci	s2,0x7,6
     516:	7300                	flw	fs0,32(a4)
     518:	7265                	lui	tp,0xffff9
     51a:	6169                	addi	sp,sp,208
     51c:	2e6c                	fld	fa1,216(a2)
     51e:	00000063          	beqz	zero,51e <REGBYTES+0x51a>
     522:	5f00                	lw	s0,56(a4)
     524:	6564                	flw	fs1,76(a0)
     526:	6166                	flw	ft2,88(sp)
     528:	6c75                	lui	s8,0x1d
     52a:	5f74                	lw	a3,124(a4)
     52c:	7974                	flw	fa3,116(a0)
     52e:	6570                	flw	fa2,76(a0)
     530:	00682e73          	csrrs	t3,0x6,a6
     534:	0001                	nop
     536:	5f00                	lw	s0,56(a4)
     538:	69647473          	csrrci	s0,0x696,8
     53c:	746e                	flw	fs0,248(sp)
     53e:	682e                	flw	fa6,200(sp)
     540:	0200                	addi	s0,sp,256
     542:	0000                	unimp
     544:	0500                	addi	s0,sp,640
     546:	0001                	nop
     548:	0205                	addi	tp,tp,1
     54a:	0176                	slli	sp,sp,0x1d
     54c:	8000                	0x8000
     54e:	05013603          	0x5013603
     552:	09010323          	sb	a6,134(sp)
     556:	000a                	c.slli	zero,0x2
     558:	0501                	addi	a0,a0,0
     55a:	0306                	slli	t1,t1,0x1
     55c:	0902                	c.slli64	s2
     55e:	0016                	c.slli	zero,0x5
     560:	0501                	addi	a0,a0,0
     562:	030c                	addi	a1,sp,384
     564:	0902                	c.slli64	s2
     566:	0006                	c.slli	zero,0x1
     568:	0501                	addi	a0,a0,0
     56a:	0330                	addi	a2,sp,392
     56c:	0904                	addi	s1,sp,144
     56e:	0004                	0x4
     570:	0501                	addi	a0,a0,0
     572:	0901032f          	0x901032f
     576:	001c                	0x1c
     578:	0501                	addi	a0,a0,0
     57a:	09030303          	lb	t1,144(t1)
     57e:	001a                	c.slli	zero,0x6
     580:	0501                	addi	a0,a0,0
     582:	0351                	addi	t1,t1,20
     584:	0900                	addi	s0,sp,144
     586:	0006                	c.slli	zero,0x1
     588:	0501                	addi	a0,a0,0
     58a:	0350                	addi	a2,sp,388
     58c:	0901                	addi	s2,s2,0
     58e:	0004                	0x4
     590:	0501                	addi	a0,a0,0
     592:	030d                	addi	t1,t1,3
     594:	00100903          	lb	s2,1(zero) # 1 <REGBYTES-0x3>
     598:	0501                	addi	a0,a0,0
     59a:	0310                	addi	a2,sp,384
     59c:	0901                	addi	s2,s2,0
     59e:	000c                	0xc
     5a0:	0301                	addi	t1,t1,0
     5a2:	0901                	addi	s2,s2,0
     5a4:	0008                	0x8
     5a6:	0301                	addi	t1,t1,0
     5a8:	0901                	addi	s2,s2,0
     5aa:	0010                	0x10
     5ac:	0301                	addi	t1,t1,0
     5ae:	0901                	addi	s2,s2,0
     5b0:	0008                	0x8
     5b2:	0501                	addi	a0,a0,0
     5b4:	030a                	slli	t1,t1,0x2
     5b6:	0902                	c.slli64	s2
     5b8:	0010                	0x10
     5ba:	0501                	addi	a0,a0,0
     5bc:	0301                	addi	t1,t1,0
     5be:	0901                	addi	s2,s2,0
     5c0:	0002                	c.slli64	zero
     5c2:	0301                	addi	t1,t1,0
     5c4:	00080903          	lb	s2,0(a6) # b000 <REGBYTES+0xaffc>
     5c8:	0501                	addi	a0,a0,0
     5ca:	09010323          	sb	a6,134(sp)
     5ce:	000a                	c.slli	zero,0x2
     5d0:	0501                	addi	a0,a0,0
     5d2:	0310                	addi	a2,sp,384
     5d4:	0901                	addi	s2,s2,0
     5d6:	0016                	c.slli	zero,0x5
     5d8:	0501                	addi	a0,a0,0
     5da:	030a                	slli	t1,t1,0x2
     5dc:	0900                	addi	s0,sp,144
     5de:	0006                	c.slli	zero,0x1
     5e0:	0501                	addi	a0,a0,0
     5e2:	0301                	addi	t1,t1,0
     5e4:	0901                	addi	s2,s2,0
     5e6:	000a                	c.slli	zero,0x2
     5e8:	0301                	addi	t1,t1,0
     5ea:	00080903          	lb	s2,0(a6)
     5ee:	0501                	addi	a0,a0,0
     5f0:	09010323          	sb	a6,134(sp)
     5f4:	0012                	c.slli	zero,0x4
     5f6:	0501                	addi	a0,a0,0
     5f8:	0309                	addi	t1,t1,2
     5fa:	0902                	c.slli64	s2
     5fc:	0016                	c.slli	zero,0x5
     5fe:	0501                	addi	a0,a0,0
     600:	0402000b          	0x402000b
     604:	0301                	addi	t1,t1,0
     606:	0900                	addi	s0,sp,144
     608:	0002                	c.slli64	zero
     60a:	0501                	addi	a0,a0,0
     60c:	0009                	c.nop	2
     60e:	0402                	c.slli64	s0
     610:	0301                	addi	t1,t1,0
     612:	0900                	addi	s0,sp,144
     614:	0008                	0x8
     616:	0501                	addi	a0,a0,0
     618:	0310                	addi	a2,sp,384
     61a:	00020903          	lb	s2,0(tp) # ffff9000 <bootstack+0x7f6f9000>
     61e:	0501                	addi	a0,a0,0
     620:	030a                	slli	t1,t1,0x2
     622:	0902                	c.slli64	s2
     624:	000a                	c.slli	zero,0x2
     626:	0501                	addi	a0,a0,0
     628:	0301                	addi	t1,t1,0
     62a:	0901                	addi	s2,s2,0
     62c:	0002                	c.slli64	zero
     62e:	0301                	addi	t1,t1,0
     630:	000a0903          	lb	s2,0(s4)
     634:	0501                	addi	a0,a0,0
     636:	09020323          	sb	a6,134(tp) # 86 <REGBYTES+0x82>
     63a:	000a                	c.slli	zero,0x2
     63c:	0501                	addi	a0,a0,0
     63e:	0314                	addi	a3,sp,384
     640:	0902                	c.slli64	s2
     642:	0016                	c.slli	zero,0x5
     644:	0501                	addi	a0,a0,0
     646:	0306                	slli	t1,t1,0x1
     648:	0900                	addi	s0,sp,144
     64a:	000a                	c.slli	zero,0x2
     64c:	0501                	addi	a0,a0,0
     64e:	030c                	addi	a1,sp,384
     650:	0901                	addi	s2,s2,0
     652:	0004                	0x4
     654:	0501                	addi	a0,a0,0
     656:	0316                	slli	t1,t1,0x5
     658:	00040903          	lb	s2,0(s0) # 1a000 <REGBYTES+0x19ffc>
     65c:	0501                	addi	a0,a0,0
     65e:	09000307          	0x9000307
     662:	0006                	c.slli	zero,0x1
     664:	0501                	addi	a0,a0,0
     666:	0306                	slli	t1,t1,0x1
     668:	0901                	addi	s2,s2,0
     66a:	0004                	0x4
     66c:	0501                	addi	a0,a0,0
     66e:	0312                	slli	t1,t1,0x4
     670:	0901                	addi	s2,s2,0
     672:	0008                	0x8
     674:	0501                	addi	a0,a0,0
     676:	030c                	addi	a1,sp,384
     678:	0901                	addi	s2,s2,0
     67a:	000e                	c.slli	zero,0x3
     67c:	0301                	addi	t1,t1,0
     67e:	0902                	c.slli64	s2
     680:	0004                	0x4
     682:	0501                	addi	a0,a0,0
     684:	0301                	addi	t1,t1,0
     686:	0902                	c.slli64	s2
     688:	0002                	c.slli64	zero
     68a:	0301                	addi	t1,t1,0
     68c:	00080903          	lb	s2,0(a6)
     690:	0501                	addi	a0,a0,0
     692:	0309                	addi	t1,t1,2
     694:	000c0903          	lb	s2,0(s8) # 1d000 <REGBYTES+0x1cffc>
     698:	0501                	addi	a0,a0,0
     69a:	0402000b          	0x402000b
     69e:	0301                	addi	t1,t1,0
     6a0:	0900                	addi	s0,sp,144
     6a2:	0002                	c.slli64	zero
     6a4:	0501                	addi	a0,a0,0
     6a6:	0009                	c.nop	2
     6a8:	0402                	c.slli64	s0
     6aa:	0301                	addi	t1,t1,0
     6ac:	0900                	addi	s0,sp,144
     6ae:	0008                	0x8
     6b0:	0501                	addi	a0,a0,0
     6b2:	0305                	addi	t1,t1,1
     6b4:	00020903          	lb	s2,0(tp) # 0 <REGBYTES-0x4>
     6b8:	0501                	addi	a0,a0,0
     6ba:	0310                	addi	a2,sp,384
     6bc:	0901                	addi	s2,s2,0
     6be:	000e                	c.slli	zero,0x3
     6c0:	0501                	addi	a0,a0,0
     6c2:	030a                	slli	t1,t1,0x2
     6c4:	0902                	c.slli64	s2
     6c6:	000c                	0xc
     6c8:	0501                	addi	a0,a0,0
     6ca:	0301                	addi	t1,t1,0
     6cc:	0901                	addi	s2,s2,0
     6ce:	0004                	0x4
     6d0:	0301                	addi	t1,t1,0
     6d2:	000a0903          	lb	s2,0(s4)
     6d6:	0501                	addi	a0,a0,0
     6d8:	09010323          	sb	a6,134(sp)
     6dc:	000a                	c.slli	zero,0x2
     6de:	0501                	addi	a0,a0,0
     6e0:	030e                	slli	t1,t1,0x3
     6e2:	0901                	addi	s2,s2,0
     6e4:	0016                	c.slli	zero,0x5
     6e6:	0501                	addi	a0,a0,0
     6e8:	09000313          	li	t1,144
     6ec:	0006                	c.slli	zero,0x1
     6ee:	0501                	addi	a0,a0,0
     6f0:	0326                	slli	t1,t1,0x9
     6f2:	0900                	addi	s0,sp,144
     6f4:	0002                	c.slli64	zero
     6f6:	0501                	addi	a0,a0,0
     6f8:	0301                	addi	t1,t1,0
     6fa:	0901                	addi	s2,s2,0
     6fc:	0008                	0x8
     6fe:	0301                	addi	t1,t1,0
     700:	00080903          	lb	s2,0(a6)
     704:	0501                	addi	a0,a0,0
     706:	09010323          	sb	a6,134(sp)
     70a:	000a                	c.slli	zero,0x2
     70c:	0501                	addi	a0,a0,0
     70e:	030c                	addi	a1,sp,384
     710:	0901                	addi	s2,s2,0
     712:	0016                	c.slli	zero,0x5
     714:	0501                	addi	a0,a0,0
     716:	0301                	addi	t1,t1,0
     718:	0901                	addi	s2,s2,0
     71a:	0010                	0x10
     71c:	0301                	addi	t1,t1,0
     71e:	00080903          	lb	s2,0(a6)
     722:	0501                	addi	a0,a0,0
     724:	09010323          	sb	a6,134(sp)
     728:	000a                	c.slli	zero,0x2
     72a:	0501                	addi	a0,a0,0
     72c:	030c                	addi	a1,sp,384
     72e:	0901                	addi	s2,s2,0
     730:	0016                	c.slli	zero,0x5
     732:	0501                	addi	a0,a0,0
     734:	0301                	addi	t1,t1,0
     736:	0901                	addi	s2,s2,0
     738:	0010                	0x10
     73a:	0301                	addi	t1,t1,0
     73c:	00080903          	lb	s2,0(a6)
     740:	0501                	addi	a0,a0,0
     742:	09010323          	sb	a6,134(sp)
     746:	000a                	c.slli	zero,0x2
     748:	0501                	addi	a0,a0,0
     74a:	030e                	slli	t1,t1,0x3
     74c:	0901                	addi	s2,s2,0
     74e:	0016                	c.slli	zero,0x5
     750:	0501                	addi	a0,a0,0
     752:	09000313          	li	t1,144
     756:	0006                	c.slli	zero,0x1
     758:	0501                	addi	a0,a0,0
     75a:	0326                	slli	t1,t1,0x9
     75c:	0900                	addi	s0,sp,144
     75e:	0002                	c.slli64	zero
     760:	0501                	addi	a0,a0,0
     762:	0301                	addi	t1,t1,0
     764:	0901                	addi	s2,s2,0
     766:	0008                	0x8
     768:	0301                	addi	t1,t1,0
     76a:	00080903          	lb	s2,0(a6)
     76e:	0501                	addi	a0,a0,0
     770:	09010323          	sb	a6,134(sp)
     774:	000a                	c.slli	zero,0x2
     776:	0501                	addi	a0,a0,0
     778:	030c                	addi	a1,sp,384
     77a:	0901                	addi	s2,s2,0
     77c:	0016                	c.slli	zero,0x5
     77e:	0501                	addi	a0,a0,0
     780:	0301                	addi	t1,t1,0
     782:	0901                	addi	s2,s2,0
     784:	0010                	0x10
     786:	0301                	addi	t1,t1,0
     788:	00080903          	lb	s2,0(a6)
     78c:	0501                	addi	a0,a0,0
     78e:	09010323          	sb	a6,134(sp)
     792:	000a                	c.slli	zero,0x2
     794:	0501                	addi	a0,a0,0
     796:	030c                	addi	a1,sp,384
     798:	0901                	addi	s2,s2,0
     79a:	0016                	c.slli	zero,0x5
     79c:	0501                	addi	a0,a0,0
     79e:	0301                	addi	t1,t1,0
     7a0:	0901                	addi	s2,s2,0
     7a2:	0010                	0x10
     7a4:	0901                	addi	s2,s2,0
     7a6:	0008                	0x8
     7a8:	0100                	addi	s0,sp,128
     7aa:	5101                	li	sp,-32
     7ac:	03000007          	0x3000007
     7b0:	d700                	sw	s0,40(a4)
     7b2:	0000                	unimp
     7b4:	0100                	addi	s0,sp,128
     7b6:	fb01                	bnez	a4,6c6 <REGBYTES+0x6c2>
     7b8:	0d0e                	slli	s10,s10,0x3
     7ba:	0100                	addi	s0,sp,128
     7bc:	0101                	addi	sp,sp,0
     7be:	0001                	nop
     7c0:	0000                	unimp
     7c2:	0001                	nop
     7c4:	0100                	addi	s0,sp,128
     7c6:	6d6f682f          	0x6d6f682f
     7ca:	2f65                	jal	f82 <REGBYTES+0xf7e>
     7cc:	61677573          	csrrci	a0,0x616,14
     7d0:	742d782f          	0x742d782f
     7d4:	736c6f6f          	jal	t5,c6f0a <REGBYTES+0xc6f06>
     7d8:	7369722f          	0x7369722f
     7dc:	32337663          	bgeu	t1,gp,b08 <REGBYTES+0xb04>
     7e0:	682d                	lui	a6,0xb
     7e2:	6669                	lui	a2,0x1a
     7e4:	7669                	lui	a2,0xffffa
     7e6:	3165                	jal	48e <REGBYTES+0x48a>
     7e8:	652d                	lui	a0,0xb
     7ea:	666c                	flw	fa1,76(a2)
     7ec:	7369722f          	0x7369722f
     7f0:	32337663          	bgeu	t1,gp,b1c <REGBYTES+0xb18>
     7f4:	682d                	lui	a6,0xb
     7f6:	6669                	lui	a2,0x1a
     7f8:	7669                	lui	a2,0xffffa
     7fa:	3165                	jal	4a2 <REGBYTES+0x49e>
     7fc:	652d                	lui	a0,0xb
     7fe:	666c                	flw	fa1,76(a2)
     800:	7379732f          	0x7379732f
     804:	692d                	lui	s2,0xb
     806:	636e                	flw	ft6,216(sp)
     808:	756c                	flw	fa1,108(a0)
     80a:	6564                	flw	fs1,76(a0)
     80c:	63616d2f          	0x63616d2f
     810:	6968                	flw	fa0,84(a0)
     812:	656e                	flw	fa0,216(sp)
     814:	2f00                	fld	fs0,24(a4)
     816:	6f68                	flw	fa0,92(a4)
     818:	656d                	lui	a0,0x1b
     81a:	6775732f          	0x6775732f
     81e:	2f61                	jal	fb6 <REGBYTES+0xfb2>
     820:	2d78                	fld	fa4,216(a0)
     822:	6f74                	flw	fa3,92(a4)
     824:	2f736c6f          	jal	s8,3731a <REGBYTES+0x37316>
     828:	6972                	flw	fs2,28(sp)
     82a:	33766373          	csrrsi	t1,mhpmevent23,12
     82e:	2d32                	fld	fs10,264(sp)
     830:	6968                	flw	fa0,84(a0)
     832:	6966                	flw	fs2,88(sp)
     834:	6576                	flw	fa0,92(sp)
     836:	2d31                	jal	e52 <REGBYTES+0xe4e>
     838:	6c65                	lui	s8,0x19
     83a:	2f66                	fld	ft10,88(sp)
     83c:	6972                	flw	fs2,28(sp)
     83e:	33766373          	csrrsi	t1,mhpmevent23,12
     842:	2d32                	fld	fs10,264(sp)
     844:	6968                	flw	fa0,84(a0)
     846:	6966                	flw	fs2,88(sp)
     848:	6576                	flw	fa0,92(sp)
     84a:	2d31                	jal	e66 <REGBYTES+0xe62>
     84c:	6c65                	lui	s8,0x19
     84e:	2f66                	fld	ft10,88(sp)
     850:	2d737973          	csrrci	s2,0x2d7,6
     854:	6e69                	lui	t3,0x1a
     856:	64756c63          	bltu	a0,t2,eae <REGBYTES+0xeaa>
     85a:	2f65                	jal	1012 <REGBYTES+0x100e>
     85c:	00737973          	csrrci	s2,0x7,6
     860:	6c00                	flw	fs0,24(s0)
     862:	6269                	lui	tp,0x1a
     864:	632e                	flw	ft6,200(sp)
     866:	0000                	unimp
     868:	0000                	unimp
     86a:	645f 6665 7561      	0x75616665645f
     870:	746c                	flw	fa1,108(s0)
     872:	745f 7079 7365      	0x73657079745f
     878:	682e                	flw	fa6,200(sp)
     87a:	0100                	addi	s0,sp,128
     87c:	0000                	unimp
     87e:	735f 6474 6e69      	0x6e696474735f
     884:	2e74                	fld	fa3,216(a2)
     886:	0068                	addi	a0,sp,12
     888:	0002                	c.slli64	zero
     88a:	0000                	unimp
     88c:	0105                	addi	sp,sp,1
     88e:	0500                	addi	s0,sp,640
     890:	a802                	fsd	ft0,16(sp)
     892:	0004                	0x4
     894:	1980                	addi	s0,sp,240
     896:	0a05                	addi	s4,s4,1
     898:	12090203          	lb	tp,288(s2) # b120 <REGBYTES+0xb11c>
     89c:	0100                	addi	s0,sp,128
     89e:	0305                	addi	t1,t1,1
     8a0:	08090003          	lb	zero,128(s2)
     8a4:	0100                	addi	s0,sp,128
     8a6:	0805                	addi	a6,a6,1
     8a8:	0200                	addi	s0,sp,256
     8aa:	0304                	addi	s1,sp,384
     8ac:	02090103          	lb	sp,32(s2)
     8b0:	0100                	addi	s0,sp,128
     8b2:	0c05                	addi	s8,s8,1
     8b4:	0200                	addi	s0,sp,256
     8b6:	0304                	addi	s1,sp,384
     8b8:	0c090003          	lb	zero,192(s2)
     8bc:	0100                	addi	s0,sp,128
     8be:	1b05                	addi	s6,s6,-31
     8c0:	0200                	addi	s0,sp,256
     8c2:	0304                	addi	s1,sp,384
     8c4:	0c097f03          	0xc097f03
     8c8:	0100                	addi	s0,sp,128
     8ca:	0305                	addi	t1,t1,1
     8cc:	0200                	addi	s0,sp,256
     8ce:	0104                	addi	s1,sp,128
     8d0:	0a090003          	lb	zero,160(s2)
     8d4:	0100                	addi	s0,sp,128
     8d6:	0a05                	addi	s4,s4,1
     8d8:	08090303          	lb	t1,128(s2)
     8dc:	0100                	addi	s0,sp,128
     8de:	0105                	addi	sp,sp,1
     8e0:	04090103          	lb	sp,64(s2)
     8e4:	0100                	addi	s0,sp,128
     8e6:	08090303          	lb	t1,128(s2)
     8ea:	0100                	addi	s0,sp,128
     8ec:	0905                	addi	s2,s2,1
     8ee:	12090103          	lb	sp,288(s2)
     8f2:	0100                	addi	s0,sp,128
     8f4:	0f05                	addi	t5,t5,1
     8f6:	08090103          	lb	sp,128(s2)
     8fa:	0100                	addi	s0,sp,128
     8fc:	0305                	addi	t1,t1,1
     8fe:	08090103          	lb	sp,128(s2)
     902:	0100                	addi	s0,sp,128
     904:	1105                	addi	sp,sp,-31
     906:	0200                	addi	s0,sp,256
     908:	0204                	addi	s1,sp,256
     90a:	02090103          	lb	sp,32(s2)
     90e:	0100                	addi	s0,sp,128
     910:	0805                	addi	a6,a6,1
     912:	0200                	addi	s0,sp,256
     914:	0204                	addi	s1,sp,256
     916:	0c090003          	lb	zero,192(s2)
     91a:	0100                	addi	s0,sp,128
     91c:	0e05                	addi	t3,t3,1
     91e:	0200                	addi	s0,sp,256
     920:	0204                	addi	s1,sp,256
     922:	0c090003          	lb	zero,192(s2)
     926:	0100                	addi	s0,sp,128
     928:	0c05                	addi	s8,s8,1
     92a:	0200                	addi	s0,sp,256
     92c:	0204                	addi	s1,sp,256
     92e:	04090003          	lb	zero,64(s2)
     932:	0100                	addi	s0,sp,128
     934:	1605                	addi	a2,a2,-31
     936:	0200                	addi	s0,sp,256
     938:	0204                	addi	s1,sp,256
     93a:	04097f03          	0x4097f03
     93e:	0100                	addi	s0,sp,128
     940:	0305                	addi	t1,t1,1
     942:	0200                	addi	s0,sp,256
     944:	0104                	addi	s1,sp,128
     946:	0a090003          	lb	zero,160(s2)
     94a:	0100                	addi	s0,sp,128
     94c:	0a05                	addi	s4,s4,1
     94e:	08090303          	lb	t1,128(s2)
     952:	0100                	addi	s0,sp,128
     954:	0105                	addi	sp,sp,1
     956:	04090103          	lb	sp,64(s2)
     95a:	0100                	addi	s0,sp,128
     95c:	08090303          	lb	t1,128(s2)
     960:	0100                	addi	s0,sp,128
     962:	0f05                	addi	t5,t5,1
     964:	12090103          	lb	sp,288(s2)
     968:	0100                	addi	s0,sp,128
     96a:	1905                	addi	s2,s2,-31
     96c:	08090003          	lb	zero,128(s2)
     970:	0100                	addi	s0,sp,128
     972:	0305                	addi	t1,t1,1
     974:	08090103          	lb	sp,128(s2)
     978:	0100                	addi	s0,sp,128
     97a:	0905                	addi	s2,s2,1
     97c:	02090103          	lb	sp,32(s2)
     980:	0100                	addi	s0,sp,128
     982:	1005                	c.nop	-31
     984:	08090003          	lb	zero,128(s2)
     988:	0100                	addi	s0,sp,128
     98a:	0805                	addi	a6,a6,1
     98c:	08090003          	lb	zero,128(s2)
     990:	0100                	addi	s0,sp,128
     992:	0f05                	addi	t5,t5,1
     994:	04090103          	lb	sp,64(s2)
     998:	0100                	addi	s0,sp,128
     99a:	1505                	addi	a0,a0,-31
     99c:	08090003          	lb	zero,128(s2)
     9a0:	0100                	addi	s0,sp,128
     9a2:	1e05                	addi	t3,t3,-31
     9a4:	08090003          	lb	zero,128(s2)
     9a8:	0100                	addi	s0,sp,128
     9aa:	0200                	addi	s0,sp,256
     9ac:	0104                	addi	s1,sp,128
     9ae:	0306                	slli	t1,t1,0x1
     9b0:	0900                	addi	s0,sp,144
     9b2:	0004                	0x4
     9b4:	0001                	nop
     9b6:	0402                	c.slli64	s0
     9b8:	0302                	c.slli64	t1
     9ba:	0900                	addi	s0,sp,144
     9bc:	0004                	0x4
     9be:	0501                	addi	a0,a0,0
     9c0:	02030607          	0x2030607
     9c4:	0409                	addi	s0,s0,2
     9c6:	0100                	addi	s0,sp,128
     9c8:	0a090103          	lb	sp,160(s2)
     9cc:	0100                	addi	s0,sp,128
     9ce:	1605                	addi	a2,a2,-31
     9d0:	0a097b03          	0xa097b03
     9d4:	0100                	addi	s0,sp,128
     9d6:	0305                	addi	t1,t1,1
     9d8:	0200                	addi	s0,sp,256
     9da:	0104                	addi	s1,sp,128
     9dc:	0a090003          	lb	zero,160(s2)
     9e0:	0100                	addi	s0,sp,128
     9e2:	0a05                	addi	s4,s4,1
     9e4:	08090803          	lb	a6,128(s2)
     9e8:	0100                	addi	s0,sp,128
     9ea:	0105                	addi	sp,sp,1
     9ec:	02090103          	lb	sp,32(s2)
     9f0:	0100                	addi	s0,sp,128
     9f2:	08090503          	lb	a0,128(s2)
     9f6:	0100                	addi	s0,sp,128
     9f8:	0c05                	addi	s8,s8,1
     9fa:	0a090203          	lb	tp,160(s2)
     9fe:	0100                	addi	s0,sp,128
     a00:	0305                	addi	t1,t1,1
     a02:	04090003          	lb	zero,64(s2)
     a06:	0100                	addi	s0,sp,128
     a08:	1605                	addi	a2,a2,-31
     a0a:	0200                	addi	s0,sp,256
     a0c:	0304                	addi	s1,sp,384
     a0e:	02090003          	lb	zero,32(s2)
     a12:	0100                	addi	s0,sp,128
     a14:	1d05                	addi	s10,s10,-31
     a16:	0200                	addi	s0,sp,256
     a18:	0304                	addi	s1,sp,384
     a1a:	0a090003          	lb	zero,160(s2)
     a1e:	0100                	addi	s0,sp,128
     a20:	1105                	addi	sp,sp,-31
     a22:	0200                	addi	s0,sp,256
     a24:	0104                	addi	s1,sp,128
     a26:	0a090003          	lb	zero,160(s2)
     a2a:	0100                	addi	s0,sp,128
     a2c:	0305                	addi	t1,t1,1
     a2e:	0200                	addi	s0,sp,256
     a30:	0104                	addi	s1,sp,128
     a32:	08090003          	lb	zero,128(s2)
     a36:	0100                	addi	s0,sp,128
     a38:	0a05                	addi	s4,s4,1
     a3a:	02090303          	lb	t1,32(s2)
     a3e:	0100                	addi	s0,sp,128
     a40:	0105                	addi	sp,sp,1
     a42:	04090103          	lb	sp,64(s2)
     a46:	0100                	addi	s0,sp,128
     a48:	08090303          	lb	t1,128(s2)
     a4c:	0100                	addi	s0,sp,128
     a4e:	0905                	addi	s2,s2,1
     a50:	0e090103          	lb	sp,224(s2)
     a54:	0100                	addi	s0,sp,128
     a56:	0c05                	addi	s8,s8,1
     a58:	08090203          	lb	tp,128(s2)
     a5c:	0100                	addi	s0,sp,128
     a5e:	0a05                	addi	s4,s4,1
     a60:	08090003          	lb	zero,128(s2)
     a64:	0100                	addi	s0,sp,128
     a66:	08090103          	lb	sp,128(s2)
     a6a:	0100                	addi	s0,sp,128
     a6c:	0805                	addi	a6,a6,1
     a6e:	08090003          	lb	zero,128(s2)
     a72:	0100                	addi	s0,sp,128
     a74:	0e05                	addi	t3,t3,1
     a76:	02097e03          	0x2097e03
     a7a:	0100                	addi	s0,sp,128
     a7c:	1505                	addi	a0,a0,-31
     a7e:	0a090003          	lb	zero,160(s2)
     a82:	0100                	addi	s0,sp,128
     a84:	0a05                	addi	s4,s4,1
     a86:	0a090103          	lb	sp,160(s2)
     a8a:	0100                	addi	s0,sp,128
     a8c:	0505                	addi	a0,a0,1
     a8e:	02090103          	lb	sp,32(s2)
     a92:	0100                	addi	s0,sp,128
     a94:	0a05                	addi	s4,s4,1
     a96:	02090303          	lb	t1,32(s2)
     a9a:	0100                	addi	s0,sp,128
     a9c:	0105                	addi	sp,sp,1
     a9e:	04090103          	lb	sp,64(s2)
     aa2:	0100                	addi	s0,sp,128
     aa4:	08090303          	lb	t1,128(s2)
     aa8:	0100                	addi	s0,sp,128
     aaa:	0905                	addi	s2,s2,1
     aac:	0e090103          	lb	sp,224(s2)
     ab0:	0100                	addi	s0,sp,128
     ab2:	02090103          	lb	sp,32(s2)
     ab6:	0100                	addi	s0,sp,128
     ab8:	1005                	c.nop	-31
     aba:	08090003          	lb	zero,128(s2)
     abe:	0100                	addi	s0,sp,128
     ac0:	0805                	addi	a6,a6,1
     ac2:	08090003          	lb	zero,128(s2)
     ac6:	0100                	addi	s0,sp,128
     ac8:	0f05                	addi	t5,t5,1
     aca:	04090103          	lb	sp,64(s2)
     ace:	0100                	addi	s0,sp,128
     ad0:	1505                	addi	a0,a0,-31
     ad2:	08090003          	lb	zero,128(s2)
     ad6:	0100                	addi	s0,sp,128
     ad8:	1e05                	addi	t3,t3,-31
     ada:	08090003          	lb	zero,128(s2)
     ade:	0100                	addi	s0,sp,128
     ae0:	0200                	addi	s0,sp,256
     ae2:	0104                	addi	s1,sp,128
     ae4:	0306                	slli	t1,t1,0x1
     ae6:	0900                	addi	s0,sp,144
     ae8:	0004                	0x4
     aea:	0001                	nop
     aec:	0402                	c.slli64	s0
     aee:	0302                	c.slli64	t1
     af0:	0900                	addi	s0,sp,144
     af2:	0004                	0x4
     af4:	0501                	addi	a0,a0,0
     af6:	02030607          	0x2030607
     afa:	0409                	addi	s0,s0,2
     afc:	0100                	addi	s0,sp,128
     afe:	0a090103          	lb	sp,160(s2)
     b02:	0100                	addi	s0,sp,128
     b04:	0a05                	addi	s4,s4,1
     b06:	0a097b03          	0xa097b03
     b0a:	0100                	addi	s0,sp,128
     b0c:	0905                	addi	s2,s2,1
     b0e:	08090003          	lb	zero,128(s2)
     b12:	0100                	addi	s0,sp,128
     b14:	1105                	addi	sp,sp,-31
     b16:	0200                	addi	s0,sp,256
     b18:	0104                	addi	s1,sp,128
     b1a:	02090003          	lb	zero,32(s2)
     b1e:	0100                	addi	s0,sp,128
     b20:	0e05                	addi	t3,t3,1
     b22:	0200                	addi	s0,sp,256
     b24:	0104                	addi	s1,sp,128
     b26:	08090003          	lb	zero,128(s2)
     b2a:	0100                	addi	s0,sp,128
     b2c:	0a05                	addi	s4,s4,1
     b2e:	02090803          	lb	a6,32(s2)
     b32:	0100                	addi	s0,sp,128
     b34:	0105                	addi	sp,sp,1
     b36:	02090103          	lb	sp,32(s2)
     b3a:	0100                	addi	s0,sp,128
     b3c:	08090303          	lb	t1,128(s2)
     b40:	0100                	addi	s0,sp,128
     b42:	0905                	addi	s2,s2,1
     b44:	12090103          	lb	sp,288(s2)
     b48:	0100                	addi	s0,sp,128
     b4a:	02090103          	lb	sp,32(s2)
     b4e:	0100                	addi	s0,sp,128
     b50:	1005                	c.nop	-31
     b52:	08090003          	lb	zero,128(s2)
     b56:	0100                	addi	s0,sp,128
     b58:	0805                	addi	a6,a6,1
     b5a:	08090003          	lb	zero,128(s2)
     b5e:	0100                	addi	s0,sp,128
     b60:	0f05                	addi	t5,t5,1
     b62:	04090103          	lb	sp,64(s2)
     b66:	0100                	addi	s0,sp,128
     b68:	1505                	addi	a0,a0,-31
     b6a:	08090003          	lb	zero,128(s2)
     b6e:	0100                	addi	s0,sp,128
     b70:	1e05                	addi	t3,t3,-31
     b72:	08090003          	lb	zero,128(s2)
     b76:	0100                	addi	s0,sp,128
     b78:	0200                	addi	s0,sp,256
     b7a:	0104                	addi	s1,sp,128
     b7c:	0306                	slli	t1,t1,0x1
     b7e:	0900                	addi	s0,sp,144
     b80:	0004                	0x4
     b82:	0001                	nop
     b84:	0402                	c.slli64	s0
     b86:	0302                	c.slli64	t1
     b88:	0900                	addi	s0,sp,144
     b8a:	0004                	0x4
     b8c:	0501                	addi	a0,a0,0
     b8e:	02030607          	0x2030607
     b92:	0409                	addi	s0,s0,2
     b94:	0100                	addi	s0,sp,128
     b96:	0a090103          	lb	sp,160(s2)
     b9a:	0100                	addi	s0,sp,128
     b9c:	0805                	addi	a6,a6,1
     b9e:	0a090103          	lb	sp,160(s2)
     ba2:	0100                	addi	s0,sp,128
     ba4:	0b05                	addi	s6,s6,1
     ba6:	0a097a03          	0xa097a03
     baa:	0100                	addi	s0,sp,128
     bac:	0905                	addi	s2,s2,1
     bae:	08090003          	lb	zero,128(s2)
     bb2:	0100                	addi	s0,sp,128
     bb4:	1205                	addi	tp,tp,-31
     bb6:	0200                	addi	s0,sp,256
     bb8:	0204                	addi	s1,sp,256
     bba:	02090003          	lb	zero,32(s2)
     bbe:	0100                	addi	s0,sp,128
     bc0:	0f05                	addi	t5,t5,1
     bc2:	0200                	addi	s0,sp,256
     bc4:	0204                	addi	s1,sp,256
     bc6:	08090003          	lb	zero,128(s2)
     bca:	0100                	addi	s0,sp,128
     bcc:	1705                	addi	a4,a4,-31
     bce:	0200                	addi	s0,sp,256
     bd0:	0304                	addi	s1,sp,384
     bd2:	02090003          	lb	zero,32(s2)
     bd6:	0100                	addi	s0,sp,128
     bd8:	0a05                	addi	s4,s4,1
     bda:	08090903          	lb	s2,128(s2)
     bde:	0100                	addi	s0,sp,128
     be0:	0105                	addi	sp,sp,1
     be2:	02090103          	lb	sp,32(s2)
     be6:	0100                	addi	s0,sp,128
     be8:	08090603          	lb	a2,128(s2)
     bec:	0100                	addi	s0,sp,128
     bee:	0b05                	addi	s6,s6,1
     bf0:	0a090103          	lb	sp,160(s2)
     bf4:	0100                	addi	s0,sp,128
     bf6:	1d05                	addi	s10,s10,-31
     bf8:	0e090203          	lb	tp,224(s2)
     bfc:	0100                	addi	s0,sp,128
     bfe:	0705                	addi	a4,a4,1
     c00:	04090003          	lb	zero,64(s2)
     c04:	0100                	addi	s0,sp,128
     c06:	0905                	addi	s2,s2,1
     c08:	08090203          	lb	tp,128(s2)
     c0c:	0100                	addi	s0,sp,128
     c0e:	0105                	addi	sp,sp,1
     c10:	08090103          	lb	sp,128(s2)
     c14:	0100                	addi	s0,sp,128
     c16:	0a090403          	lb	s0,160(s2)
     c1a:	0100                	addi	s0,sp,128
     c1c:	1105                	addi	sp,sp,-31
     c1e:	2c090303          	lb	t1,704(s2)
     c22:	0100                	addi	s0,sp,128
     c24:	0f05                	addi	t5,t5,1
     c26:	0a090003          	lb	zero,160(s2)
     c2a:	0100                	addi	s0,sp,128
     c2c:	1105                	addi	sp,sp,-31
     c2e:	06090103          	lb	sp,96(s2)
     c32:	0100                	addi	s0,sp,128
     c34:	0f05                	addi	t5,t5,1
     c36:	0a090003          	lb	zero,160(s2)
     c3a:	0100                	addi	s0,sp,128
     c3c:	1105                	addi	sp,sp,-31
     c3e:	06090103          	lb	sp,96(s2)
     c42:	0100                	addi	s0,sp,128
     c44:	0f05                	addi	t5,t5,1
     c46:	0a090003          	lb	zero,160(s2)
     c4a:	0100                	addi	s0,sp,128
     c4c:	1105                	addi	sp,sp,-31
     c4e:	06090103          	lb	sp,96(s2)
     c52:	0100                	addi	s0,sp,128
     c54:	0f05                	addi	t5,t5,1
     c56:	0a090003          	lb	zero,160(s2)
     c5a:	0100                	addi	s0,sp,128
     c5c:	0205                	addi	tp,tp,1
     c5e:	06090103          	lb	sp,96(s2)
     c62:	0100                	addi	s0,sp,128
     c64:	0e05                	addi	t3,t3,1
     c66:	04090103          	lb	sp,64(s2)
     c6a:	0100                	addi	s0,sp,128
     c6c:	0c05                	addi	s8,s8,1
     c6e:	0a090003          	lb	zero,160(s2)
     c72:	0100                	addi	s0,sp,128
     c74:	1205                	addi	tp,tp,-31
     c76:	0e090603          	lb	a2,224(s2)
     c7a:	0100                	addi	s0,sp,128
     c7c:	0105                	addi	sp,sp,1
     c7e:	06090103          	lb	sp,96(s2)
     c82:	0100                	addi	s0,sp,128
     c84:	0e090503          	lb	a0,224(s2)
     c88:	0100                	addi	s0,sp,128
     c8a:	0605                	addi	a2,a2,1
     c8c:	0e090103          	lb	sp,224(s2)
     c90:	0100                	addi	s0,sp,128
     c92:	0505                	addi	a0,a0,1
     c94:	0a090103          	lb	sp,160(s2)
     c98:	0100                	addi	s0,sp,128
     c9a:	0a05                	addi	s4,s4,1
     c9c:	06090203          	lb	tp,96(s2)
     ca0:	0100                	addi	s0,sp,128
     ca2:	0105                	addi	sp,sp,1
     ca4:	0c090103          	lb	sp,192(s2)
     ca8:	0100                	addi	s0,sp,128
     caa:	0a090303          	lb	t1,160(s2)
     cae:	0100                	addi	s0,sp,128
     cb0:	1505                	addi	a0,a0,-31
     cb2:	08090103          	lb	sp,128(s2)
     cb6:	0100                	addi	s0,sp,128
     cb8:	0505                	addi	a0,a0,1
     cba:	0a090103          	lb	sp,160(s2)
     cbe:	0100                	addi	s0,sp,128
     cc0:	0200                	addi	s0,sp,256
     cc2:	0104                	addi	s1,sp,128
     cc4:	0306                	slli	t1,t1,0x1
     cc6:	0900                	addi	s0,sp,144
     cc8:	000a                	c.slli	zero,0x2
     cca:	0001                	nop
     ccc:	0402                	c.slli64	s0
     cce:	0302                	c.slli64	t1
     cd0:	0900                	addi	s0,sp,144
     cd2:	0006                	c.slli	zero,0x1
     cd4:	0001                	nop
     cd6:	0402                	c.slli64	s0
     cd8:	0304                	addi	s1,sp,384
     cda:	0900                	addi	s0,sp,144
     cdc:	0002                	c.slli64	zero
     cde:	0501                	addi	a0,a0,0
     ce0:	04020003          	lb	zero,64(tp) # 1a040 <REGBYTES+0x1a03c>
     ce4:	0604                	addi	s1,sp,768
     ce6:	04090103          	lb	sp,64(s2)
     cea:	0100                	addi	s0,sp,128
     cec:	0a05                	addi	s4,s4,1
     cee:	0200                	addi	s0,sp,256
     cf0:	0404                	addi	s1,sp,512
     cf2:	08090103          	lb	sp,128(s2)
     cf6:	0100                	addi	s0,sp,128
     cf8:	0105                	addi	sp,sp,1
     cfa:	0200                	addi	s0,sp,256
     cfc:	0404                	addi	s1,sp,512
     cfe:	04090103          	lb	sp,64(s2)
     d02:	0100                	addi	s0,sp,128
     d04:	0a090303          	lb	t1,160(s2)
     d08:	0100                	addi	s0,sp,128
     d0a:	0905                	addi	s2,s2,1
     d0c:	0c090103          	lb	sp,192(s2)
     d10:	0100                	addi	s0,sp,128
     d12:	0f05                	addi	t5,t5,1
     d14:	02090103          	lb	sp,32(s2)
     d18:	0100                	addi	s0,sp,128
     d1a:	0505                	addi	a0,a0,1
     d1c:	0c090003          	lb	zero,192(s2)
     d20:	0100                	addi	s0,sp,128
     d22:	0a05                	addi	s4,s4,1
     d24:	08097f03          	0x8097f03
     d28:	0100                	addi	s0,sp,128
     d2a:	0905                	addi	s2,s2,1
     d2c:	08090003          	lb	zero,128(s2)
     d30:	0100                	addi	s0,sp,128
     d32:	0a05                	addi	s4,s4,1
     d34:	02090303          	lb	t1,32(s2)
     d38:	0100                	addi	s0,sp,128
     d3a:	0105                	addi	sp,sp,1
     d3c:	02090103          	lb	sp,32(s2)
     d40:	0100                	addi	s0,sp,128
     d42:	0a090303          	lb	t1,160(s2)
     d46:	0100                	addi	s0,sp,128
     d48:	0505                	addi	a0,a0,1
     d4a:	0e090203          	lb	tp,224(s2)
     d4e:	0100                	addi	s0,sp,128
     d50:	0f05                	addi	t5,t5,1
     d52:	04090303          	lb	t1,64(s2)
     d56:	0100                	addi	s0,sp,128
     d58:	3a05                	jal	688 <REGBYTES+0x684>
     d5a:	04090003          	lb	zero,64(s2)
     d5e:	0100                	addi	s0,sp,128
     d60:	0f05                	addi	t5,t5,1
     d62:	08090003          	lb	zero,128(s2)
     d66:	0100                	addi	s0,sp,128
     d68:	0d05                	addi	s10,s10,1
     d6a:	10090003          	lb	zero,256(s2)
     d6e:	0100                	addi	s0,sp,128
     d70:	0905                	addi	s2,s2,1
     d72:	04090103          	lb	sp,64(s2)
     d76:	0100                	addi	s0,sp,128
     d78:	0105                	addi	sp,sp,1
     d7a:	04090003          	lb	zero,64(s2)
     d7e:	0100                	addi	s0,sp,128
     d80:	0905                	addi	s2,s2,1
     d82:	02090103          	lb	sp,32(s2)
     d86:	0100                	addi	s0,sp,128
     d88:	0105                	addi	sp,sp,1
     d8a:	04090003          	lb	zero,64(s2)
     d8e:	0100                	addi	s0,sp,128
     d90:	0705                	addi	a4,a4,1
     d92:	0200                	addi	s0,sp,256
     d94:	0304                	addi	s1,sp,384
     d96:	02090103          	lb	sp,32(s2)
     d9a:	0100                	addi	s0,sp,128
     d9c:	0805                	addi	a6,a6,1
     d9e:	0200                	addi	s0,sp,256
     da0:	0304                	addi	s1,sp,384
     da2:	10090103          	lb	sp,256(s2)
     da6:	0100                	addi	s0,sp,128
     da8:	0e05                	addi	t3,t3,1
     daa:	0200                	addi	s0,sp,256
     dac:	0304                	addi	s1,sp,384
     dae:	0c090003          	lb	zero,192(s2)
     db2:	0100                	addi	s0,sp,128
     db4:	1605                	addi	a2,a2,-31
     db6:	0200                	addi	s0,sp,256
     db8:	0304                	addi	s1,sp,384
     dba:	12097e03          	0x12097e03
     dbe:	0100                	addi	s0,sp,128
     dc0:	0105                	addi	sp,sp,1
     dc2:	0200                	addi	s0,sp,256
     dc4:	0104                	addi	s1,sp,128
     dc6:	0a090003          	lb	zero,160(s2)
     dca:	0100                	addi	s0,sp,128
     dcc:	1205                	addi	tp,tp,-31
     dce:	0200                	addi	s0,sp,256
     dd0:	0204                	addi	s1,sp,256
     dd2:	0e097f03          	0xe097f03
     dd6:	0100                	addi	s0,sp,128
     dd8:	0105                	addi	sp,sp,1
     dda:	0200                	addi	s0,sp,256
     ddc:	0104                	addi	s1,sp,128
     dde:	0a090003          	lb	zero,160(s2)
     de2:	0100                	addi	s0,sp,128
     de4:	0805                	addi	a6,a6,1
     de6:	08090703          	lb	a4,128(s2)
     dea:	0100                	addi	s0,sp,128
     dec:	0105                	addi	sp,sp,1
     dee:	02090203          	lb	tp,32(s2)
     df2:	0100                	addi	s0,sp,128
     df4:	0c090303          	lb	t1,192(s2)
     df8:	0100                	addi	s0,sp,128
     dfa:	0705                	addi	a4,a4,1
     dfc:	0c090103          	lb	sp,192(s2)
     e00:	0100                	addi	s0,sp,128
     e02:	0905                	addi	s2,s2,1
     e04:	04090403          	lb	s0,64(s2)
     e08:	0100                	addi	s0,sp,128
     e0a:	0805                	addi	a6,a6,1
     e0c:	08090103          	lb	sp,128(s2)
     e10:	0100                	addi	s0,sp,128
     e12:	0905                	addi	s2,s2,1
     e14:	0a090103          	lb	sp,160(s2)
     e18:	0100                	addi	s0,sp,128
     e1a:	0a05                	addi	s4,s4,1
     e1c:	04090103          	lb	sp,64(s2)
     e20:	0100                	addi	s0,sp,128
     e22:	0805                	addi	a6,a6,1
     e24:	0e090003          	lb	zero,224(s2)
     e28:	0100                	addi	s0,sp,128
     e2a:	0e05                	addi	t3,t3,1
     e2c:	06090003          	lb	zero,96(s2)
     e30:	0100                	addi	s0,sp,128
     e32:	0305                	addi	t1,t1,1
     e34:	08090103          	lb	sp,128(s2)
     e38:	0100                	addi	s0,sp,128
     e3a:	0c05                	addi	s8,s8,1
     e3c:	06090203          	lb	tp,96(s2)
     e40:	0100                	addi	s0,sp,128
     e42:	0105                	addi	sp,sp,1
     e44:	06090103          	lb	sp,96(s2)
     e48:	0100                	addi	s0,sp,128
     e4a:	0a090403          	lb	s0,160(s2)
     e4e:	0100                	addi	s0,sp,128
     e50:	0505                	addi	a0,a0,1
     e52:	10090403          	lb	s0,256(s2)
     e56:	0100                	addi	s0,sp,128
     e58:	0605                	addi	a2,a2,1
     e5a:	0a090103          	lb	sp,160(s2)
     e5e:	0100                	addi	s0,sp,128
     e60:	0a05                	addi	s4,s4,1
     e62:	0c090003          	lb	zero,192(s2)
     e66:	0100                	addi	s0,sp,128
     e68:	0605                	addi	a2,a2,1
     e6a:	04090203          	lb	tp,64(s2)
     e6e:	0100                	addi	s0,sp,128
     e70:	0e05                	addi	t3,t3,1
     e72:	0200                	addi	s0,sp,256
     e74:	0104                	addi	s1,sp,128
     e76:	06090003          	lb	zero,96(s2)
     e7a:	0100                	addi	s0,sp,128
     e7c:	0b05                	addi	s6,s6,1
     e7e:	06090103          	lb	sp,96(s2)
     e82:	0100                	addi	s0,sp,128
     e84:	0905                	addi	s2,s2,1
     e86:	0a090203          	lb	tp,160(s2)
     e8a:	0100                	addi	s0,sp,128
     e8c:	2705                	jal	15ac <REGBYTES+0x15a8>
     e8e:	02090103          	lb	sp,32(s2)
     e92:	0100                	addi	s0,sp,128
     e94:	0805                	addi	a6,a6,1
     e96:	08090003          	lb	zero,128(s2)
     e9a:	0100                	addi	s0,sp,128
     e9c:	2005                	jal	ebc <REGBYTES+0xeb8>
     e9e:	0c090003          	lb	zero,192(s2)
     ea2:	0100                	addi	s0,sp,128
     ea4:	0c05                	addi	s8,s8,1
     ea6:	0e090003          	lb	zero,224(s2)
     eaa:	0100                	addi	s0,sp,128
     eac:	0b05                	addi	s6,s6,1
     eae:	04090103          	lb	sp,64(s2)
     eb2:	0100                	addi	s0,sp,128
     eb4:	0805                	addi	a6,a6,1
     eb6:	0a090103          	lb	sp,160(s2)
     eba:	0100                	addi	s0,sp,128
     ebc:	1705                	addi	a4,a4,-31
     ebe:	0200                	addi	s0,sp,256
     ec0:	0104                	addi	s1,sp,128
     ec2:	06090003          	lb	zero,96(s2)
     ec6:	0100                	addi	s0,sp,128
     ec8:	0905                	addi	s2,s2,1
     eca:	0a097d03          	0xa097d03
     ece:	0100                	addi	s0,sp,128
     ed0:	1005                	c.nop	-31
     ed2:	0200                	addi	s0,sp,256
     ed4:	0104                	addi	s1,sp,128
     ed6:	06090003          	lb	zero,96(s2)
     eda:	0100                	addi	s0,sp,128
     edc:	06090603          	lb	a2,96(s2)
     ee0:	0100                	addi	s0,sp,128
     ee2:	0305                	addi	t1,t1,1
     ee4:	06090003          	lb	zero,96(s2)
     ee8:	0100                	addi	s0,sp,128
     eea:	0a05                	addi	s4,s4,1
     eec:	04090203          	lb	tp,64(s2)
     ef0:	0100                	addi	s0,sp,128
     ef2:	0105                	addi	sp,sp,1
     ef4:	02090103          	lb	sp,32(s2)
     ef8:	0100                	addi	s0,sp,128
     efa:	0a09                	addi	s4,s4,2
     efc:	0000                	unimp
     efe:	0101                	addi	sp,sp,0
     f00:	0cf5                	addi	s9,s9,29
     f02:	0000                	unimp
     f04:	01020003          	lb	zero,16(tp) # 10 <REGBYTES+0xc>
     f08:	0000                	unimp
     f0a:	0101                	addi	sp,sp,0
     f0c:	000d0efb          	0xd0efb
     f10:	0101                	addi	sp,sp,0
     f12:	0101                	addi	sp,sp,0
     f14:	0000                	unimp
     f16:	0100                	addi	s0,sp,128
     f18:	0000                	unimp
     f1a:	2f01                	jal	162a <REGBYTES+0x1626>
     f1c:	6f68                	flw	fa0,92(a4)
     f1e:	656d                	lui	a0,0x1b
     f20:	6775732f          	0x6775732f
     f24:	2f61                	jal	16bc <REGBYTES+0x16b8>
     f26:	2d78                	fld	fa4,216(a0)
     f28:	6f74                	flw	fa3,92(a4)
     f2a:	2f736c6f          	jal	s8,37a20 <REGBYTES+0x37a1c>
     f2e:	6972                	flw	fs2,28(sp)
     f30:	33766373          	csrrsi	t1,mhpmevent23,12
     f34:	2d32                	fld	fs10,264(sp)
     f36:	6968                	flw	fa0,84(a0)
     f38:	6966                	flw	fs2,88(sp)
     f3a:	6576                	flw	fa0,92(sp)
     f3c:	2d31                	jal	1558 <REGBYTES+0x1554>
     f3e:	6c65                	lui	s8,0x19
     f40:	2f66                	fld	ft10,88(sp)
     f42:	6972                	flw	fs2,28(sp)
     f44:	33766373          	csrrsi	t1,mhpmevent23,12
     f48:	2d32                	fld	fs10,264(sp)
     f4a:	6968                	flw	fa0,84(a0)
     f4c:	6966                	flw	fs2,88(sp)
     f4e:	6576                	flw	fa0,92(sp)
     f50:	2d31                	jal	156c <REGBYTES+0x1568>
     f52:	6c65                	lui	s8,0x19
     f54:	2f66                	fld	ft10,88(sp)
     f56:	2d737973          	csrrci	s2,0x2d7,6
     f5a:	6e69                	lui	t3,0x1a
     f5c:	64756c63          	bltu	a0,t2,15b4 <REGBYTES+0x15b0>
     f60:	2f65                	jal	1718 <REGBYTES+0x1714>
     f62:	616d                	addi	sp,sp,240
     f64:	6e696863          	bltu	s2,t1,1654 <REGBYTES+0x1650>
     f68:	0065                	c.nop	25
     f6a:	6d6f682f          	0x6d6f682f
     f6e:	2f65                	jal	1726 <REGBYTES+0x1722>
     f70:	61677573          	csrrci	a0,0x616,14
     f74:	742d782f          	0x742d782f
     f78:	736c6f6f          	jal	t5,c76ae <REGBYTES+0xc76aa>
     f7c:	7369722f          	0x7369722f
     f80:	32337663          	bgeu	t1,gp,12ac <REGBYTES+0x12a8>
     f84:	682d                	lui	a6,0xb
     f86:	6669                	lui	a2,0x1a
     f88:	7669                	lui	a2,0xffffa
     f8a:	3165                	jal	c32 <REGBYTES+0xc2e>
     f8c:	652d                	lui	a0,0xb
     f8e:	666c                	flw	fa1,76(a2)
     f90:	7369722f          	0x7369722f
     f94:	32337663          	bgeu	t1,gp,12c0 <REGBYTES+0x12bc>
     f98:	682d                	lui	a6,0xb
     f9a:	6669                	lui	a2,0x1a
     f9c:	7669                	lui	a2,0xffffa
     f9e:	3165                	jal	c46 <REGBYTES+0xc42>
     fa0:	652d                	lui	a0,0xb
     fa2:	666c                	flw	fa1,76(a2)
     fa4:	7379732f          	0x7379732f
     fa8:	692d                	lui	s2,0xb
     faa:	636e                	flw	ft6,216(sp)
     fac:	756c                	flw	fa1,108(a0)
     fae:	6564                	flw	fs1,76(a0)
     fb0:	7379732f          	0x7379732f
     fb4:	0000                	unimp
     fb6:	6f7a6f6b          	0x6f7a6f6b
     fba:	00632e73          	csrrs	t3,0x6,t1
     fbe:	0000                	unimp
     fc0:	5f00                	lw	s0,56(a4)
     fc2:	6564                	flw	fs1,76(a0)
     fc4:	6166                	flw	ft2,88(sp)
     fc6:	6c75                	lui	s8,0x1d
     fc8:	5f74                	lw	a3,124(a4)
     fca:	7974                	flw	fa3,116(a0)
     fcc:	6570                	flw	fa2,76(a0)
     fce:	00682e73          	csrrs	t3,0x6,a6
     fd2:	0001                	nop
     fd4:	5f00                	lw	s0,56(a4)
     fd6:	69647473          	csrrci	s0,0x696,8
     fda:	746e                	flw	fs0,248(sp)
     fdc:	682e                	flw	fa6,200(sp)
     fde:	0200                	addi	s0,sp,256
     fe0:	0000                	unimp
     fe2:	6564                	flw	fs1,76(a0)
     fe4:	6966                	flw	fs2,88(sp)
     fe6:	656e                	flw	fa0,216(sp)
     fe8:	00682e73          	csrrs	t3,0x6,a6
     fec:	0000                	unimp
     fee:	6900                	flw	fs0,16(a0)
     ff0:	746e                	flw	fs0,248(sp)
     ff2:	7265                	lui	tp,0xffff9
     ff4:	7572                	flw	fa0,60(sp)
     ff6:	7470                	flw	fa2,108(s0)
     ff8:	682e                	flw	fa6,200(sp)
     ffa:	0000                	unimp
     ffc:	0000                	unimp
     ffe:	63737973          	csrrci	s2,0x637,6
    1002:	6c61                	lui	s8,0x18
    1004:	2e6c                	fld	fa1,216(a2)
    1006:	0068                	addi	a0,sp,12
    1008:	0000                	unimp
    100a:	0000                	unimp
    100c:	0105                	addi	sp,sp,1
    100e:	0500                	addi	s0,sp,640
    1010:	8402                	jr	s0
    1012:	000a                	c.slli	zero,0x2
    1014:	0380                	addi	s0,sp,448
    1016:	00dd                	addi	ra,ra,23
    1018:	0501                	addi	a0,a0,0
    101a:	0901030f          	0x901030f
    101e:	0006                	c.slli	zero,0x1
    1020:	0501                	addi	a0,a0,0
    1022:	0306                	slli	t1,t1,0x1
    1024:	0900                	addi	s0,sp,144
    1026:	000a                	c.slli	zero,0x2
    1028:	0501                	addi	a0,a0,0
    102a:	030c                	addi	a1,sp,384
    102c:	0901                	addi	s2,s2,0
    102e:	0002                	c.slli64	zero
    1030:	0501                	addi	a0,a0,0
    1032:	0310                	addi	a2,sp,384
    1034:	0902                	c.slli64	s2
    1036:	0004                	0x4
    1038:	0501                	addi	a0,a0,0
    103a:	0318                	addi	a4,sp,384
    103c:	0900                	addi	s0,sp,144
    103e:	000c                	0xc
    1040:	0501                	addi	a0,a0,0
    1042:	0306                	slli	t1,t1,0x1
    1044:	0900                	addi	s0,sp,144
    1046:	0002                	c.slli64	zero
    1048:	0501                	addi	a0,a0,0
    104a:	030c                	addi	a1,sp,384
    104c:	0901                	addi	s2,s2,0
    104e:	0002                	c.slli64	zero
    1050:	0501                	addi	a0,a0,0
    1052:	032d                	addi	t1,t1,11
    1054:	00040903          	lb	s2,0(s0)
    1058:	0501                	addi	a0,a0,0
    105a:	09000313          	li	t1,144
    105e:	000a                	c.slli	zero,0x2
    1060:	0501                	addi	a0,a0,0
    1062:	032d                	addi	t1,t1,11
    1064:	0900                	addi	s0,sp,144
    1066:	000c                	0xc
    1068:	0501                	addi	a0,a0,0
    106a:	0324                	addi	s1,sp,392
    106c:	0900                	addi	s0,sp,144
    106e:	0002                	c.slli64	zero
    1070:	0501                	addi	a0,a0,0
    1072:	09010317          	auipc	t1,0x9010
    1076:	000e                	c.slli	zero,0x3
    1078:	0501                	addi	a0,a0,0
    107a:	0322                	slli	t1,t1,0x8
    107c:	0900                	addi	s0,sp,144
    107e:	000c                	0xc
    1080:	0501                	addi	a0,a0,0
    1082:	0306                	slli	t1,t1,0x1
    1084:	0900                	addi	s0,sp,144
    1086:	000e                	c.slli	zero,0x3
    1088:	0501                	addi	a0,a0,0
    108a:	0315                	addi	t1,t1,5
    108c:	0901                	addi	s2,s2,0
    108e:	0002                	c.slli64	zero
    1090:	0501                	addi	a0,a0,0
    1092:	0326                	slli	t1,t1,0x9
    1094:	0900                	addi	s0,sp,144
    1096:	000c                	0xc
    1098:	0501                	addi	a0,a0,0
    109a:	0312                	slli	t1,t1,0x4
    109c:	0902                	c.slli64	s2
    109e:	0010                	0x10
    10a0:	0501                	addi	a0,a0,0
    10a2:	030a                	slli	t1,t1,0x2
    10a4:	0901                	addi	s2,s2,0
    10a6:	001a                	c.slli	zero,0x6
    10a8:	0501                	addi	a0,a0,0
    10aa:	0311                	addi	t1,t1,4
    10ac:	0900                	addi	s0,sp,144
    10ae:	000a                	c.slli	zero,0x2
    10b0:	0501                	addi	a0,a0,0
    10b2:	030a                	slli	t1,t1,0x2
    10b4:	0902                	c.slli64	s2
    10b6:	0004                	0x4
    10b8:	0501                	addi	a0,a0,0
    10ba:	0301                	addi	t1,t1,0
    10bc:	0901                	addi	s2,s2,0
    10be:	0002                	c.slli64	zero
    10c0:	0301                	addi	t1,t1,0
    10c2:	0906                	slli	s2,s2,0x1
    10c4:	0008                	0x8
    10c6:	0501                	addi	a0,a0,0
    10c8:	0902030f          	0x902030f
    10cc:	0006                	c.slli	zero,0x1
    10ce:	0501                	addi	a0,a0,0
    10d0:	0306                	slli	t1,t1,0x1
    10d2:	0900                	addi	s0,sp,144
    10d4:	000a                	c.slli	zero,0x2
    10d6:	0501                	addi	a0,a0,0
    10d8:	030c                	addi	a1,sp,384
    10da:	0901                	addi	s2,s2,0
    10dc:	0002                	c.slli64	zero
    10de:	0501                	addi	a0,a0,0
    10e0:	030e                	slli	t1,t1,0x3
    10e2:	0902                	c.slli64	s2
    10e4:	0004                	0x4
    10e6:	0501                	addi	a0,a0,0
    10e8:	0316                	slli	t1,t1,0x5
    10ea:	0900                	addi	s0,sp,144
    10ec:	000c                	0xc
    10ee:	0501                	addi	a0,a0,0
    10f0:	0306                	slli	t1,t1,0x1
    10f2:	0900                	addi	s0,sp,144
    10f4:	0002                	c.slli64	zero
    10f6:	0501                	addi	a0,a0,0
    10f8:	030c                	addi	a1,sp,384
    10fa:	0902                	c.slli64	s2
    10fc:	0002                	c.slli64	zero
    10fe:	0501                	addi	a0,a0,0
    1100:	09030317          	auipc	t1,0x9030
    1104:	0004                	0x4
    1106:	0501                	addi	a0,a0,0
    1108:	0322                	slli	t1,t1,0x8
    110a:	0900                	addi	s0,sp,144
    110c:	000c                	0xc
    110e:	0501                	addi	a0,a0,0
    1110:	0306                	slli	t1,t1,0x1
    1112:	0900                	addi	s0,sp,144
    1114:	000e                	c.slli	zero,0x3
    1116:	0501                	addi	a0,a0,0
    1118:	0315                	addi	t1,t1,5
    111a:	0901                	addi	s2,s2,0
    111c:	0002                	c.slli64	zero
    111e:	0501                	addi	a0,a0,0
    1120:	0320                	addi	s0,sp,392
    1122:	0900                	addi	s0,sp,144
    1124:	000c                	0xc
    1126:	0501                	addi	a0,a0,0
    1128:	032c                	addi	a1,sp,392
    112a:	0900                	addi	s0,sp,144
    112c:	000e                	c.slli	zero,0x3
    112e:	0501                	addi	a0,a0,0
    1130:	0315                	addi	t1,t1,5
    1132:	0902                	c.slli64	s2
    1134:	000e                	c.slli	zero,0x3
    1136:	0501                	addi	a0,a0,0
    1138:	0326                	slli	t1,t1,0x9
    113a:	0900                	addi	s0,sp,144
    113c:	000c                	0xc
    113e:	0501                	addi	a0,a0,0
    1140:	09020313          	addi	t1,tp,144 # ffff9090 <bootstack+0x7f6f9090>
    1144:	0018                	0x18
    1146:	0501                	addi	a0,a0,0
    1148:	0324                	addi	s1,sp,392
    114a:	0900                	addi	s0,sp,144
    114c:	000c                	0xc
    114e:	0501                	addi	a0,a0,0
    1150:	0312                	slli	t1,t1,0x4
    1152:	0901                	addi	s2,s2,0
    1154:	0018                	0x18
    1156:	0501                	addi	a0,a0,0
    1158:	030a                	slli	t1,t1,0x2
    115a:	0902                	c.slli64	s2
    115c:	001c                	0x1c
    115e:	0501                	addi	a0,a0,0
    1160:	0301                	addi	t1,t1,0
    1162:	0901                	addi	s2,s2,0
    1164:	0002                	c.slli64	zero
    1166:	0301                	addi	t1,t1,0
    1168:	0902                	c.slli64	s2
    116a:	0008                	0x8
    116c:	0501                	addi	a0,a0,0
    116e:	0315                	addi	t1,t1,5
    1170:	0904                	addi	s1,sp,144
    1172:	0018                	0x18
    1174:	0501                	addi	a0,a0,0
    1176:	0306                	slli	t1,t1,0x1
    1178:	0901                	addi	s2,s2,0
    117a:	000a                	c.slli	zero,0x2
    117c:	0501                	addi	a0,a0,0
    117e:	0305                	addi	t1,t1,1
    1180:	0901                	addi	s2,s2,0
    1182:	0006                	c.slli	zero,0x1
    1184:	0501                	addi	a0,a0,0
    1186:	0312                	slli	t1,t1,0x4
    1188:	0901                	addi	s2,s2,0
    118a:	0004                	0x4
    118c:	0301                	addi	t1,t1,0
    118e:	0901                	addi	s2,s2,0
    1190:	0008                	0x8
    1192:	0301                	addi	t1,t1,0
    1194:	0901                	addi	s2,s2,0
    1196:	000a                	c.slli	zero,0x2
    1198:	0301                	addi	t1,t1,0
    119a:	0901                	addi	s2,s2,0
    119c:	000a                	c.slli	zero,0x2
    119e:	0501                	addi	a0,a0,0
    11a0:	030c                	addi	a1,sp,384
    11a2:	000a0903          	lb	s2,0(s4)
    11a6:	0501                	addi	a0,a0,0
    11a8:	0306                	slli	t1,t1,0x1
    11aa:	0900                	addi	s0,sp,144
    11ac:	0006                	c.slli	zero,0x1
    11ae:	0501                	addi	a0,a0,0
    11b0:	030a                	slli	t1,t1,0x2
    11b2:	0901                	addi	s2,s2,0
    11b4:	0002                	c.slli64	zero
    11b6:	0501                	addi	a0,a0,0
    11b8:	09000317          	auipc	t1,0x9000
    11bc:	0006                	c.slli	zero,0x1
    11be:	0501                	addi	a0,a0,0
    11c0:	0311                	addi	t1,t1,4
    11c2:	0902                	c.slli64	s2
    11c4:	0008                	0x8
    11c6:	0501                	addi	a0,a0,0
    11c8:	0902030f          	0x902030f
    11cc:	000a                	c.slli	zero,0x2
    11ce:	0501                	addi	a0,a0,0
    11d0:	0301                	addi	t1,t1,0
    11d2:	0901                	addi	s2,s2,0
    11d4:	000a                	c.slli	zero,0x2
    11d6:	0301                	addi	t1,t1,0
    11d8:	000a0903          	lb	s2,0(s4)
    11dc:	0501                	addi	a0,a0,0
    11de:	0306                	slli	t1,t1,0x1
    11e0:	0905                	addi	s2,s2,1
    11e2:	000c                	0xc
    11e4:	0501                	addi	a0,a0,0
    11e6:	09010313          	addi	t1,sp,144
    11ea:	000a                	c.slli	zero,0x2
    11ec:	0501                	addi	a0,a0,0
    11ee:	0900030f          	0x900030f
    11f2:	0006                	c.slli	zero,0x1
    11f4:	0501                	addi	a0,a0,0
    11f6:	030c                	addi	a1,sp,384
    11f8:	0901                	addi	s2,s2,0
    11fa:	0006                	c.slli	zero,0x1
    11fc:	0501                	addi	a0,a0,0
    11fe:	0306                	slli	t1,t1,0x1
    1200:	0900                	addi	s0,sp,144
    1202:	0006                	c.slli	zero,0x1
    1204:	0501                	addi	a0,a0,0
    1206:	0311                	addi	t1,t1,4
    1208:	0901                	addi	s2,s2,0
    120a:	0002                	c.slli64	zero
    120c:	0501                	addi	a0,a0,0
    120e:	030c                	addi	a1,sp,384
    1210:	0901                	addi	s2,s2,0
    1212:	0008                	0x8
    1214:	0301                	addi	t1,t1,0
    1216:	00080903          	lb	s2,0(a6) # b000 <REGBYTES+0xaffc>
    121a:	0501                	addi	a0,a0,0
    121c:	0305                	addi	t1,t1,1
    121e:	0900                	addi	s0,sp,144
    1220:	0006                	c.slli	zero,0x1
    1222:	0501                	addi	a0,a0,0
    1224:	0326                	slli	t1,t1,0x9
    1226:	0901                	addi	s2,s2,0
    1228:	0006                	c.slli	zero,0x1
    122a:	0501                	addi	a0,a0,0
    122c:	0314                	addi	a3,sp,384
    122e:	0900                	addi	s0,sp,144
    1230:	0006                	c.slli	zero,0x1
    1232:	0501                	addi	a0,a0,0
    1234:	0312                	slli	t1,t1,0x4
    1236:	0900                	addi	s0,sp,144
    1238:	0002                	c.slli64	zero
    123a:	0501                	addi	a0,a0,0
    123c:	0311                	addi	t1,t1,4
    123e:	0901                	addi	s2,s2,0
    1240:	0006                	c.slli	zero,0x1
    1242:	0501                	addi	a0,a0,0
    1244:	0306                	slli	t1,t1,0x1
    1246:	0900                	addi	s0,sp,144
    1248:	0006                	c.slli	zero,0x1
    124a:	0501                	addi	a0,a0,0
    124c:	0311                	addi	t1,t1,4
    124e:	0901                	addi	s2,s2,0
    1250:	0002                	c.slli64	zero
    1252:	0501                	addi	a0,a0,0
    1254:	0324                	addi	s1,sp,392
    1256:	0900                	addi	s0,sp,144
    1258:	0006                	c.slli	zero,0x1
    125a:	0501                	addi	a0,a0,0
    125c:	0319                	addi	t1,t1,6
    125e:	0900                	addi	s0,sp,144
    1260:	0006                	c.slli	zero,0x1
    1262:	0501                	addi	a0,a0,0
    1264:	0311                	addi	t1,t1,4
    1266:	0901                	addi	s2,s2,0
    1268:	0002                	c.slli64	zero
    126a:	0501                	addi	a0,a0,0
    126c:	0306                	slli	t1,t1,0x1
    126e:	0900                	addi	s0,sp,144
    1270:	0006                	c.slli	zero,0x1
    1272:	0501                	addi	a0,a0,0
    1274:	0311                	addi	t1,t1,4
    1276:	0901                	addi	s2,s2,0
    1278:	0002                	c.slli64	zero
    127a:	0501                	addi	a0,a0,0
    127c:	0321                	addi	t1,t1,8
    127e:	0900                	addi	s0,sp,144
    1280:	0006                	c.slli	zero,0x1
    1282:	0501                	addi	a0,a0,0
    1284:	0316                	slli	t1,t1,0x5
    1286:	0900                	addi	s0,sp,144
    1288:	0006                	c.slli	zero,0x1
    128a:	0501                	addi	a0,a0,0
    128c:	09030313          	addi	t1,t1,144 # 9001248 <REGBYTES+0x9001244>
    1290:	0002                	c.slli64	zero
    1292:	0501                	addi	a0,a0,0
    1294:	09040303          	lb	t1,144(s0)
    1298:	0008                	0x8
    129a:	0501                	addi	a0,a0,0
    129c:	0301                	addi	t1,t1,0
    129e:	0901                	addi	s2,s2,0
    12a0:	0008                	0x8
    12a2:	0301                	addi	t1,t1,0
    12a4:	0906                	slli	s2,s2,0x1
    12a6:	000a                	c.slli	zero,0x2
    12a8:	0501                	addi	a0,a0,0
    12aa:	09010303          	lb	t1,144(sp)
    12ae:	0008                	0x8
    12b0:	0501                	addi	a0,a0,0
    12b2:	0301                	addi	t1,t1,0
    12b4:	0901                	addi	s2,s2,0
    12b6:	0004                	0x4
    12b8:	0301                	addi	t1,t1,0
    12ba:	0906                	slli	s2,s2,0x1
    12bc:	000a                	c.slli	zero,0x2
    12be:	0501                	addi	a0,a0,0
    12c0:	030c                	addi	a1,sp,384
    12c2:	0904                	addi	s1,sp,144
    12c4:	000c                	0xc
    12c6:	0501                	addi	a0,a0,0
    12c8:	09000303          	lb	t1,144(zero) # 90 <REGBYTES+0x8c>
    12cc:	0006                	c.slli	zero,0x1
    12ce:	0301                	addi	t1,t1,0
    12d0:	0901                	addi	s2,s2,0
    12d2:	0012                	c.slli	zero,0x4
    12d4:	0501                	addi	a0,a0,0
    12d6:	0301                	addi	t1,t1,0
    12d8:	0901                	addi	s2,s2,0
    12da:	0002                	c.slli64	zero
    12dc:	0301                	addi	t1,t1,0
    12de:	0909                	addi	s2,s2,2
    12e0:	000a                	c.slli	zero,0x2
    12e2:	0501                	addi	a0,a0,0
    12e4:	030a                	slli	t1,t1,0x2
    12e6:	0908                	addi	a0,sp,144
    12e8:	0020                	addi	s0,sp,8
    12ea:	0501                	addi	a0,a0,0
    12ec:	09000303          	lb	t1,144(zero) # 90 <REGBYTES+0x8c>
    12f0:	0004                	0x4
    12f2:	0501                	addi	a0,a0,0
    12f4:	0309                	addi	t1,t1,2
    12f6:	0901                	addi	s2,s2,0
    12f8:	0002                	c.slli64	zero
    12fa:	0501                	addi	a0,a0,0
    12fc:	09010313          	addi	t1,sp,144
    1300:	001a                	c.slli	zero,0x6
    1302:	0501                	addi	a0,a0,0
    1304:	0308                	addi	a0,sp,384
    1306:	0900                	addi	s0,sp,144
    1308:	0006                	c.slli	zero,0x1
    130a:	0501                	addi	a0,a0,0
    130c:	0021                	c.nop	8
    130e:	0402                	c.slli64	s0
    1310:	0302                	c.slli64	t1
    1312:	097e                	slli	s2,s2,0x1f
    1314:	0002                	c.slli64	zero
    1316:	0501                	addi	a0,a0,0
    1318:	04020003          	lb	zero,64(tp) # 40 <REGBYTES+0x3c>
    131c:	0301                	addi	t1,t1,0
    131e:	0900                	addi	s0,sp,144
    1320:	000a                	c.slli	zero,0x2
    1322:	0501                	addi	a0,a0,0
    1324:	09040307          	0x9040307
    1328:	000c                	0xc
    132a:	0501                	addi	a0,a0,0
    132c:	0306                	slli	t1,t1,0x1
    132e:	0902                	c.slli64	s2
    1330:	0002                	c.slli64	zero
    1332:	0501                	addi	a0,a0,0
    1334:	030c                	addi	a1,sp,384
    1336:	0902                	c.slli64	s2
    1338:	000a                	c.slli	zero,0x2
    133a:	0501                	addi	a0,a0,0
    133c:	09030303          	lb	t1,144(t1)
    1340:	0004                	0x4
    1342:	0501                	addi	a0,a0,0
    1344:	030d                	addi	t1,t1,3
    1346:	0901                	addi	s2,s2,0
    1348:	000e                	c.slli	zero,0x3
    134a:	0501                	addi	a0,a0,0
    134c:	09000303          	lb	t1,144(zero) # 90 <REGBYTES+0x8c>
    1350:	0006                	c.slli	zero,0x1
    1352:	0501                	addi	a0,a0,0
    1354:	030d                	addi	t1,t1,3
    1356:	0901                	addi	s2,s2,0
    1358:	000a                	c.slli	zero,0x2
    135a:	0501                	addi	a0,a0,0
    135c:	0311                	addi	t1,t1,4
    135e:	0901                	addi	s2,s2,0
    1360:	0008                	0x8
    1362:	0501                	addi	a0,a0,0
    1364:	030e                	slli	t1,t1,0x3
    1366:	0901                	addi	s2,s2,0
    1368:	000a                	c.slli	zero,0x2
    136a:	0501                	addi	a0,a0,0
    136c:	0312                	slli	t1,t1,0x4
    136e:	0902                	c.slli64	s2
    1370:	0008                	0x8
    1372:	0301                	addi	t1,t1,0
    1374:	0901                	addi	s2,s2,0
    1376:	000a                	c.slli	zero,0x2
    1378:	0301                	addi	t1,t1,0
    137a:	0901                	addi	s2,s2,0
    137c:	000a                	c.slli	zero,0x2
    137e:	0501                	addi	a0,a0,0
    1380:	09030303          	lb	t1,144(t1)
    1384:	000a                	c.slli	zero,0x2
    1386:	0501                	addi	a0,a0,0
    1388:	0310                	addi	a2,sp,384
    138a:	0901                	addi	s2,s2,0
    138c:	0016                	c.slli	zero,0x5
    138e:	0501                	addi	a0,a0,0
    1390:	030e                	slli	t1,t1,0x3
    1392:	0901                	addi	s2,s2,0
    1394:	001a                	c.slli	zero,0x6
    1396:	0501                	addi	a0,a0,0
    1398:	0306                	slli	t1,t1,0x1
    139a:	00100907          	0x100907
    139e:	0501                	addi	a0,a0,0
    13a0:	0902030b          	0x902030b
    13a4:	000a                	c.slli	zero,0x2
    13a6:	0501                	addi	a0,a0,0
    13a8:	030d                	addi	t1,t1,3
    13aa:	0900                	addi	s0,sp,144
    13ac:	000a                	c.slli	zero,0x2
    13ae:	0501                	addi	a0,a0,0
    13b0:	0900030b          	0x900030b
    13b4:	0008                	0x8
    13b6:	0301                	addi	t1,t1,0
    13b8:	00060903          	lb	s2,0(a2) # ffffa000 <bootstack+0x7f6fa000>
    13bc:	0501                	addi	a0,a0,0
    13be:	030d                	addi	t1,t1,3
    13c0:	0900                	addi	s0,sp,144
    13c2:	000a                	c.slli	zero,0x2
    13c4:	0501                	addi	a0,a0,0
    13c6:	0900030b          	0x900030b
    13ca:	0008                	0x8
    13cc:	0501                	addi	a0,a0,0
    13ce:	031a                	slli	t1,t1,0x6
    13d0:	0901                	addi	s2,s2,0
    13d2:	0006                	c.slli	zero,0x1
    13d4:	0001                	nop
    13d6:	0402                	c.slli64	s0
    13d8:	0601                	addi	a2,a2,0
    13da:	06090003          	lb	zero,96(s2) # b060 <REGBYTES+0xb05c>
    13de:	0100                	addi	s0,sp,128
    13e0:	0200                	addi	s0,sp,256
    13e2:	0204                	addi	s1,sp,256
    13e4:	04090003          	lb	zero,64(s2)
    13e8:	0100                	addi	s0,sp,128
    13ea:	0b05                	addi	s6,s6,1
    13ec:	0200                	addi	s0,sp,256
    13ee:	0404                	addi	s1,sp,512
    13f0:	0306                	slli	t1,t1,0x1
    13f2:	0900                	addi	s0,sp,144
    13f4:	0002                	c.slli64	zero
    13f6:	0001                	nop
    13f8:	0402                	c.slli64	s0
    13fa:	0304                	addi	s1,sp,384
    13fc:	0902                	c.slli64	s2
    13fe:	0010                	0x10
    1400:	0001                	nop
    1402:	0402                	c.slli64	s0
    1404:	0304                	addi	s1,sp,384
    1406:	0901                	addi	s2,s2,0
    1408:	0012                	c.slli	zero,0x4
    140a:	0001                	nop
    140c:	0402                	c.slli64	s0
    140e:	0304                	addi	s1,sp,384
    1410:	0901                	addi	s2,s2,0
    1412:	0012                	c.slli	zero,0x4
    1414:	0001                	nop
    1416:	0402                	c.slli64	s0
    1418:	0304                	addi	s1,sp,384
    141a:	0901                	addi	s2,s2,0
    141c:	0012                	c.slli	zero,0x4
    141e:	0001                	nop
    1420:	0402                	c.slli64	s0
    1422:	0304                	addi	s1,sp,384
    1424:	0901                	addi	s2,s2,0
    1426:	0012                	c.slli	zero,0x4
    1428:	0001                	nop
    142a:	0402                	c.slli64	s0
    142c:	0304                	addi	s1,sp,384
    142e:	0901                	addi	s2,s2,0
    1430:	0012                	c.slli	zero,0x4
    1432:	0001                	nop
    1434:	0402                	c.slli64	s0
    1436:	0304                	addi	s1,sp,384
    1438:	0901                	addi	s2,s2,0
    143a:	0012                	c.slli	zero,0x4
    143c:	0001                	nop
    143e:	0402                	c.slli64	s0
    1440:	0304                	addi	s1,sp,384
    1442:	0901                	addi	s2,s2,0
    1444:	0012                	c.slli	zero,0x4
    1446:	0001                	nop
    1448:	0402                	c.slli64	s0
    144a:	0304                	addi	s1,sp,384
    144c:	0901                	addi	s2,s2,0
    144e:	0012                	c.slli	zero,0x4
    1450:	0001                	nop
    1452:	0402                	c.slli64	s0
    1454:	0304                	addi	s1,sp,384
    1456:	0901                	addi	s2,s2,0
    1458:	0012                	c.slli	zero,0x4
    145a:	0001                	nop
    145c:	0402                	c.slli64	s0
    145e:	0304                	addi	s1,sp,384
    1460:	0901                	addi	s2,s2,0
    1462:	0012                	c.slli	zero,0x4
    1464:	0001                	nop
    1466:	0402                	c.slli64	s0
    1468:	0304                	addi	s1,sp,384
    146a:	0901                	addi	s2,s2,0
    146c:	0012                	c.slli	zero,0x4
    146e:	0001                	nop
    1470:	0402                	c.slli64	s0
    1472:	0304                	addi	s1,sp,384
    1474:	0901                	addi	s2,s2,0
    1476:	0012                	c.slli	zero,0x4
    1478:	0001                	nop
    147a:	0402                	c.slli64	s0
    147c:	0304                	addi	s1,sp,384
    147e:	0901                	addi	s2,s2,0
    1480:	0012                	c.slli	zero,0x4
    1482:	0001                	nop
    1484:	0402                	c.slli64	s0
    1486:	0304                	addi	s1,sp,384
    1488:	0901                	addi	s2,s2,0
    148a:	0012                	c.slli	zero,0x4
    148c:	0001                	nop
    148e:	0402                	c.slli64	s0
    1490:	0304                	addi	s1,sp,384
    1492:	0901                	addi	s2,s2,0
    1494:	0012                	c.slli	zero,0x4
    1496:	0001                	nop
    1498:	0402                	c.slli64	s0
    149a:	0304                	addi	s1,sp,384
    149c:	0901                	addi	s2,s2,0
    149e:	0012                	c.slli	zero,0x4
    14a0:	0001                	nop
    14a2:	0402                	c.slli64	s0
    14a4:	0304                	addi	s1,sp,384
    14a6:	0901                	addi	s2,s2,0
    14a8:	0012                	c.slli	zero,0x4
    14aa:	0001                	nop
    14ac:	0402                	c.slli64	s0
    14ae:	0304                	addi	s1,sp,384
    14b0:	0901                	addi	s2,s2,0
    14b2:	0012                	c.slli	zero,0x4
    14b4:	0001                	nop
    14b6:	0402                	c.slli64	s0
    14b8:	0304                	addi	s1,sp,384
    14ba:	0901                	addi	s2,s2,0
    14bc:	0012                	c.slli	zero,0x4
    14be:	0001                	nop
    14c0:	0402                	c.slli64	s0
    14c2:	0304                	addi	s1,sp,384
    14c4:	0901                	addi	s2,s2,0
    14c6:	0012                	c.slli	zero,0x4
    14c8:	0001                	nop
    14ca:	0402                	c.slli64	s0
    14cc:	0304                	addi	s1,sp,384
    14ce:	0901                	addi	s2,s2,0
    14d0:	0012                	c.slli	zero,0x4
    14d2:	0501                	addi	a0,a0,0
    14d4:	000d                	c.nop	3
    14d6:	0402                	c.slli64	s0
    14d8:	0304                	addi	s1,sp,384
    14da:	0900                	addi	s0,sp,144
    14dc:	000a                	c.slli	zero,0x2
    14de:	0501                	addi	a0,a0,0
    14e0:	0402000b          	0x402000b
    14e4:	0304                	addi	s1,sp,384
    14e6:	0900                	addi	s0,sp,144
    14e8:	0004                	0x4
    14ea:	0001                	nop
    14ec:	0402                	c.slli64	s0
    14ee:	0304                	addi	s1,sp,384
    14f0:	0901                	addi	s2,s2,0
    14f2:	0006                	c.slli	zero,0x1
    14f4:	0001                	nop
    14f6:	0402                	c.slli64	s0
    14f8:	0304                	addi	s1,sp,384
    14fa:	0901                	addi	s2,s2,0
    14fc:	0012                	c.slli	zero,0x4
    14fe:	0001                	nop
    1500:	0402                	c.slli64	s0
    1502:	0304                	addi	s1,sp,384
    1504:	0901                	addi	s2,s2,0
    1506:	0012                	c.slli	zero,0x4
    1508:	0001                	nop
    150a:	0402                	c.slli64	s0
    150c:	0304                	addi	s1,sp,384
    150e:	0901                	addi	s2,s2,0
    1510:	0012                	c.slli	zero,0x4
    1512:	0001                	nop
    1514:	0402                	c.slli64	s0
    1516:	0304                	addi	s1,sp,384
    1518:	0901                	addi	s2,s2,0
    151a:	0012                	c.slli	zero,0x4
    151c:	0001                	nop
    151e:	0402                	c.slli64	s0
    1520:	0304                	addi	s1,sp,384
    1522:	0901                	addi	s2,s2,0
    1524:	0012                	c.slli	zero,0x4
    1526:	0001                	nop
    1528:	0402                	c.slli64	s0
    152a:	0304                	addi	s1,sp,384
    152c:	0901                	addi	s2,s2,0
    152e:	0012                	c.slli	zero,0x4
    1530:	0001                	nop
    1532:	0402                	c.slli64	s0
    1534:	0304                	addi	s1,sp,384
    1536:	0901                	addi	s2,s2,0
    1538:	0012                	c.slli	zero,0x4
    153a:	0001                	nop
    153c:	0402                	c.slli64	s0
    153e:	0304                	addi	s1,sp,384
    1540:	0901                	addi	s2,s2,0
    1542:	0012                	c.slli	zero,0x4
    1544:	0001                	nop
    1546:	0402                	c.slli64	s0
    1548:	0304                	addi	s1,sp,384
    154a:	0901                	addi	s2,s2,0
    154c:	0012                	c.slli	zero,0x4
    154e:	0501                	addi	a0,a0,0
    1550:	04020013          	addi	zero,tp,64 # 40 <REGBYTES+0x3c>
    1554:	0304                	addi	s1,sp,384
    1556:	00120903          	lb	s2,1(tp) # 1 <REGBYTES-0x3>
    155a:	0501                	addi	a0,a0,0
    155c:	04020003          	lb	zero,64(tp) # 40 <REGBYTES+0x3c>
    1560:	0304                	addi	s1,sp,384
    1562:	000a0903          	lb	s2,0(s4)
    1566:	0501                	addi	a0,a0,0
    1568:	0402000b          	0x402000b
    156c:	0304                	addi	s1,sp,384
    156e:	0906                	slli	s2,s2,0x1
    1570:	0002                	c.slli64	zero
    1572:	0501                	addi	a0,a0,0
    1574:	04020003          	lb	zero,64(tp) # 40 <REGBYTES+0x3c>
    1578:	0304                	addi	s1,sp,384
    157a:	0902                	c.slli64	s2
    157c:	000e                	c.slli	zero,0x3
    157e:	0501                	addi	a0,a0,0
    1580:	000a                	c.slli	zero,0x2
    1582:	0402                	c.slli64	s0
    1584:	0304                	addi	s1,sp,384
    1586:	090a                	slli	s2,s2,0x2
    1588:	0002                	c.slli64	zero
    158a:	0501                	addi	a0,a0,0
    158c:	0301                	addi	t1,t1,0
    158e:	0901                	addi	s2,s2,0
    1590:	000a                	c.slli	zero,0x2
    1592:	0301                	addi	t1,t1,0
    1594:	0906                	slli	s2,s2,0x1
    1596:	000a                	c.slli	zero,0x2
    1598:	0501                	addi	a0,a0,0
    159a:	0315                	addi	t1,t1,5
    159c:	0902                	c.slli64	s2
    159e:	0008                	0x8
    15a0:	0501                	addi	a0,a0,0
    15a2:	09000303          	lb	t1,144(zero) # 90 <REGBYTES+0x8c>
    15a6:	000c                	0xc
    15a8:	0301                	addi	t1,t1,0
    15aa:	0901                	addi	s2,s2,0
    15ac:	0006                	c.slli	zero,0x1
    15ae:	0301                	addi	t1,t1,0
    15b0:	0902                	c.slli64	s2
    15b2:	000c                	0xc
    15b4:	0501                	addi	a0,a0,0
    15b6:	030a                	slli	t1,t1,0x2
    15b8:	0902                	c.slli64	s2
    15ba:	0016                	c.slli	zero,0x5
    15bc:	0501                	addi	a0,a0,0
    15be:	0301                	addi	t1,t1,0
    15c0:	0901                	addi	s2,s2,0
    15c2:	0002                	c.slli64	zero
    15c4:	0301                	addi	t1,t1,0
    15c6:	0906                	slli	s2,s2,0x1
    15c8:	000a                	c.slli	zero,0x2
    15ca:	0501                	addi	a0,a0,0
    15cc:	09010303          	lb	t1,144(sp)
    15d0:	0008                	0x8
    15d2:	0501                	addi	a0,a0,0
    15d4:	030a                	slli	t1,t1,0x2
    15d6:	0901                	addi	s2,s2,0
    15d8:	0002                	c.slli64	zero
    15da:	0501                	addi	a0,a0,0
    15dc:	0301                	addi	t1,t1,0
    15de:	0901                	addi	s2,s2,0
    15e0:	0002                	c.slli64	zero
    15e2:	0301                	addi	t1,t1,0
    15e4:	0906                	slli	s2,s2,0x1
    15e6:	000a                	c.slli	zero,0x2
    15e8:	0501                	addi	a0,a0,0
    15ea:	030a                	slli	t1,t1,0x2
    15ec:	0902                	c.slli64	s2
    15ee:	0006                	c.slli	zero,0x1
    15f0:	0501                	addi	a0,a0,0
    15f2:	0301                	addi	t1,t1,0
    15f4:	0901                	addi	s2,s2,0
    15f6:	0002                	c.slli64	zero
    15f8:	0301                	addi	t1,t1,0
    15fa:	0906                	slli	s2,s2,0x1
    15fc:	0008                	0x8
    15fe:	0501                	addi	a0,a0,0
    1600:	09020303          	lb	t1,144(tp) # 90 <REGBYTES+0x8c>
    1604:	000c                	0xc
    1606:	0501                	addi	a0,a0,0
    1608:	030d                	addi	t1,t1,3
    160a:	00020903          	lb	s2,0(tp) # 0 <REGBYTES-0x4>
    160e:	0501                	addi	a0,a0,0
    1610:	0900030b          	0x900030b
    1614:	0004                	0x4
    1616:	0501                	addi	a0,a0,0
    1618:	09010303          	lb	t1,144(sp)
    161c:	000a                	c.slli	zero,0x2
    161e:	0501                	addi	a0,a0,0
    1620:	030a                	slli	t1,t1,0x2
    1622:	0902                	c.slli64	s2
    1624:	0002                	c.slli64	zero
    1626:	0501                	addi	a0,a0,0
    1628:	0301                	addi	t1,t1,0
    162a:	0901                	addi	s2,s2,0
    162c:	0002                	c.slli64	zero
    162e:	0301                	addi	t1,t1,0
    1630:	0906                	slli	s2,s2,0x1
    1632:	000a                	c.slli	zero,0x2
    1634:	0501                	addi	a0,a0,0
    1636:	09010303          	lb	t1,144(sp)
    163a:	0008                	0x8
    163c:	0501                	addi	a0,a0,0
    163e:	030a                	slli	t1,t1,0x2
    1640:	0901                	addi	s2,s2,0
    1642:	0002                	c.slli64	zero
    1644:	0501                	addi	a0,a0,0
    1646:	0301                	addi	t1,t1,0
    1648:	0901                	addi	s2,s2,0
    164a:	000a                	c.slli	zero,0x2
    164c:	0301                	addi	t1,t1,0
    164e:	000a0903          	lb	s2,0(s4)
    1652:	0501                	addi	a0,a0,0
    1654:	0314                	addi	a3,sp,384
    1656:	0901                	addi	s2,s2,0
    1658:	000c                	0xc
    165a:	0501                	addi	a0,a0,0
    165c:	09000307          	0x9000307
    1660:	000a                	c.slli	zero,0x2
    1662:	0501                	addi	a0,a0,0
    1664:	0306                	slli	t1,t1,0x1
    1666:	0901                	addi	s2,s2,0
    1668:	0006                	c.slli	zero,0x1
    166a:	0501                	addi	a0,a0,0
    166c:	030c                	addi	a1,sp,384
    166e:	0901                	addi	s2,s2,0
    1670:	0008                	0x8
    1672:	0501                	addi	a0,a0,0
    1674:	09000317          	auipc	t1,0x9000
    1678:	000a                	c.slli	zero,0x2
    167a:	0501                	addi	a0,a0,0
    167c:	09010303          	lb	t1,144(sp)
    1680:	0006                	c.slli	zero,0x1
    1682:	0501                	addi	a0,a0,0
    1684:	030a                	slli	t1,t1,0x2
    1686:	0901                	addi	s2,s2,0
    1688:	0002                	c.slli64	zero
    168a:	0501                	addi	a0,a0,0
    168c:	0301                	addi	t1,t1,0
    168e:	0901                	addi	s2,s2,0
    1690:	0004                	0x4
    1692:	0301                	addi	t1,t1,0
    1694:	000a0903          	lb	s2,0(s4)
    1698:	0501                	addi	a0,a0,0
    169a:	09010303          	lb	t1,144(sp)
    169e:	000c                	0xc
    16a0:	0501                	addi	a0,a0,0
    16a2:	030a                	slli	t1,t1,0x2
    16a4:	0901                	addi	s2,s2,0
    16a6:	0002                	c.slli64	zero
    16a8:	0501                	addi	a0,a0,0
    16aa:	0301                	addi	t1,t1,0
    16ac:	0901                	addi	s2,s2,0
    16ae:	000a                	c.slli	zero,0x2
    16b0:	0301                	addi	t1,t1,0
    16b2:	000a0903          	lb	s2,0(s4)
    16b6:	0501                	addi	a0,a0,0
    16b8:	09010303          	lb	t1,144(sp)
    16bc:	000c                	0xc
    16be:	0301                	addi	t1,t1,0
    16c0:	0901                	addi	s2,s2,0
    16c2:	0008                	0x8
    16c4:	0501                	addi	a0,a0,0
    16c6:	030a                	slli	t1,t1,0x2
    16c8:	0901                	addi	s2,s2,0
    16ca:	0002                	c.slli64	zero
    16cc:	0501                	addi	a0,a0,0
    16ce:	0301                	addi	t1,t1,0
    16d0:	0901                	addi	s2,s2,0
    16d2:	0002                	c.slli64	zero
    16d4:	0301                	addi	t1,t1,0
    16d6:	000a0903          	lb	s2,0(s4)
    16da:	0501                	addi	a0,a0,0
    16dc:	030e                	slli	t1,t1,0x3
    16de:	0901                	addi	s2,s2,0
    16e0:	0014                	0x14
    16e2:	0501                	addi	a0,a0,0
    16e4:	09020303          	lb	t1,144(tp) # 90 <REGBYTES+0x8c>
    16e8:	001a                	c.slli	zero,0x6
    16ea:	0301                	addi	t1,t1,0
    16ec:	0901                	addi	s2,s2,0
    16ee:	0002                	c.slli64	zero
    16f0:	0501                	addi	a0,a0,0
    16f2:	030c                	addi	a1,sp,384
    16f4:	001a0903          	lb	s2,1(s4)
    16f8:	0501                	addi	a0,a0,0
    16fa:	0306                	slli	t1,t1,0x1
    16fc:	0900                	addi	s0,sp,144
    16fe:	0006                	c.slli	zero,0x1
    1700:	0501                	addi	a0,a0,0
    1702:	0314                	addi	a3,sp,384
    1704:	0901                	addi	s2,s2,0
    1706:	0002                	c.slli64	zero
    1708:	0501                	addi	a0,a0,0
    170a:	030d                	addi	t1,t1,3
    170c:	0900                	addi	s0,sp,144
    170e:	0006                	c.slli	zero,0x1
    1710:	0501                	addi	a0,a0,0
    1712:	0305                	addi	t1,t1,1
    1714:	0901                	addi	s2,s2,0
    1716:	000a                	c.slli	zero,0x2
    1718:	0301                	addi	t1,t1,0
    171a:	0901                	addi	s2,s2,0
    171c:	0006                	c.slli	zero,0x1
    171e:	0501                	addi	a0,a0,0
    1720:	030a                	slli	t1,t1,0x2
    1722:	00020903          	lb	s2,0(tp) # 0 <REGBYTES-0x4>
    1726:	0501                	addi	a0,a0,0
    1728:	0301                	addi	t1,t1,0
    172a:	0901                	addi	s2,s2,0
    172c:	0004                	0x4
    172e:	0301                	addi	t1,t1,0
    1730:	000a0903          	lb	s2,0(s4)
    1734:	0501                	addi	a0,a0,0
    1736:	030e                	slli	t1,t1,0x3
    1738:	0902                	c.slli64	s2
    173a:	0014                	0x14
    173c:	0501                	addi	a0,a0,0
    173e:	030c                	addi	a1,sp,384
    1740:	0902                	c.slli64	s2
    1742:	001a                	c.slli	zero,0x6
    1744:	0501                	addi	a0,a0,0
    1746:	0306                	slli	t1,t1,0x1
    1748:	0900                	addi	s0,sp,144
    174a:	0006                	c.slli	zero,0x1
    174c:	0501                	addi	a0,a0,0
    174e:	0305                	addi	t1,t1,1
    1750:	0902                	c.slli64	s2
    1752:	0002                	c.slli64	zero
    1754:	0501                	addi	a0,a0,0
    1756:	09020313          	addi	t1,tp,144 # 90 <REGBYTES+0x8c>
    175a:	0002                	c.slli64	zero
    175c:	0501                	addi	a0,a0,0
    175e:	030c                	addi	a1,sp,384
    1760:	0902                	c.slli64	s2
    1762:	0010                	0x10
    1764:	0501                	addi	a0,a0,0
    1766:	0306                	slli	t1,t1,0x1
    1768:	0900                	addi	s0,sp,144
    176a:	0006                	c.slli	zero,0x1
    176c:	0501                	addi	a0,a0,0
    176e:	030c                	addi	a1,sp,384
    1770:	0902                	c.slli64	s2
    1772:	0002                	c.slli64	zero
    1774:	0501                	addi	a0,a0,0
    1776:	09040303          	lb	t1,144(s0)
    177a:	0004                	0x4
    177c:	0301                	addi	t1,t1,0
    177e:	0901                	addi	s2,s2,0
    1780:	0006                	c.slli	zero,0x1
    1782:	0501                	addi	a0,a0,0
    1784:	0311                	addi	t1,t1,4
    1786:	0902                	c.slli64	s2
    1788:	0004                	0x4
    178a:	0501                	addi	a0,a0,0
    178c:	031a                	slli	t1,t1,0x6
    178e:	0900                	addi	s0,sp,144
    1790:	000a                	c.slli	zero,0x2
    1792:	0501                	addi	a0,a0,0
    1794:	0329                	addi	t1,t1,10
    1796:	0900                	addi	s0,sp,144
    1798:	0002                	c.slli64	zero
    179a:	0501                	addi	a0,a0,0
    179c:	0301                	addi	t1,t1,0
    179e:	0901                	addi	s2,s2,0
    17a0:	0002                	c.slli64	zero
    17a2:	0301                	addi	t1,t1,0
    17a4:	000a0903          	lb	s2,0(s4)
    17a8:	0501                	addi	a0,a0,0
    17aa:	0901030b          	0x901030b
    17ae:	0012                	c.slli	zero,0x4
    17b0:	0501                	addi	a0,a0,0
    17b2:	0312                	slli	t1,t1,0x4
    17b4:	0900                	addi	s0,sp,144
    17b6:	0004                	0x4
    17b8:	0501                	addi	a0,a0,0
    17ba:	09010303          	lb	t1,144(sp)
    17be:	0012                	c.slli	zero,0x4
    17c0:	0501                	addi	a0,a0,0
    17c2:	030a                	slli	t1,t1,0x2
    17c4:	0902                	c.slli64	s2
    17c6:	0004                	0x4
    17c8:	0501                	addi	a0,a0,0
    17ca:	0301                	addi	t1,t1,0
    17cc:	0901                	addi	s2,s2,0
    17ce:	0002                	c.slli64	zero
    17d0:	0301                	addi	t1,t1,0
    17d2:	0904                	addi	s1,sp,144
    17d4:	000a                	c.slli	zero,0x2
    17d6:	0501                	addi	a0,a0,0
    17d8:	09020303          	lb	t1,144(tp) # 90 <REGBYTES+0x8c>
    17dc:	0010                	0x10
    17de:	0501                	addi	a0,a0,0
    17e0:	0315                	addi	t1,t1,5
    17e2:	0902                	c.slli64	s2
    17e4:	002a                	c.slli	zero,0xa
    17e6:	0501                	addi	a0,a0,0
    17e8:	09000313          	li	t1,144
    17ec:	0028                	addi	a0,sp,8
    17ee:	0501                	addi	a0,a0,0
    17f0:	0305                	addi	t1,t1,1
    17f2:	00060903          	lb	s2,0(a2)
    17f6:	0301                	addi	t1,t1,0
    17f8:	0902                	c.slli64	s2
    17fa:	0002                	c.slli64	zero
    17fc:	0301                	addi	t1,t1,0
    17fe:	0901                	addi	s2,s2,0
    1800:	0002                	c.slli64	zero
    1802:	0501                	addi	a0,a0,0
    1804:	0316                	slli	t1,t1,0x5
    1806:	0902                	c.slli64	s2
    1808:	0002                	c.slli64	zero
    180a:	0501                	addi	a0,a0,0
    180c:	0314                	addi	a3,sp,384
    180e:	0900                	addi	s0,sp,144
    1810:	0004                	0x4
    1812:	0501                	addi	a0,a0,0
    1814:	0305                	addi	t1,t1,1
    1816:	0901                	addi	s2,s2,0
    1818:	0006                	c.slli	zero,0x1
    181a:	0501                	addi	a0,a0,0
    181c:	09020317          	auipc	t1,0x9020
    1820:	0002                	c.slli64	zero
    1822:	0501                	addi	a0,a0,0
    1824:	0315                	addi	t1,t1,5
    1826:	0900                	addi	s0,sp,144
    1828:	0004                	0x4
    182a:	0501                	addi	a0,a0,0
    182c:	0305                	addi	t1,t1,1
    182e:	0901                	addi	s2,s2,0
    1830:	0006                	c.slli	zero,0x1
    1832:	0501                	addi	a0,a0,0
    1834:	0318                	addi	a4,sp,384
    1836:	0902                	c.slli64	s2
    1838:	0002                	c.slli64	zero
    183a:	0501                	addi	a0,a0,0
    183c:	0316                	slli	t1,t1,0x5
    183e:	0900                	addi	s0,sp,144
    1840:	000c                	0xc
    1842:	0501                	addi	a0,a0,0
    1844:	0305                	addi	t1,t1,1
    1846:	0901                	addi	s2,s2,0
    1848:	0006                	c.slli	zero,0x1
    184a:	0501                	addi	a0,a0,0
    184c:	0316                	slli	t1,t1,0x5
    184e:	0902                	c.slli64	s2
    1850:	0002                	c.slli64	zero
    1852:	0501                	addi	a0,a0,0
    1854:	0314                	addi	a3,sp,384
    1856:	0900                	addi	s0,sp,144
    1858:	0004                	0x4
    185a:	0501                	addi	a0,a0,0
    185c:	0305                	addi	t1,t1,1
    185e:	0901                	addi	s2,s2,0
    1860:	0006                	c.slli	zero,0x1
    1862:	0501                	addi	a0,a0,0
    1864:	09020317          	auipc	t1,0x9020
    1868:	0002                	c.slli64	zero
    186a:	0501                	addi	a0,a0,0
    186c:	0315                	addi	t1,t1,5
    186e:	0900                	addi	s0,sp,144
    1870:	000c                	0xc
    1872:	0501                	addi	a0,a0,0
    1874:	0305                	addi	t1,t1,1
    1876:	0901                	addi	s2,s2,0
    1878:	0006                	c.slli	zero,0x1
    187a:	0501                	addi	a0,a0,0
    187c:	0319                	addi	t1,t1,6
    187e:	0902                	c.slli64	s2
    1880:	0002                	c.slli64	zero
    1882:	0501                	addi	a0,a0,0
    1884:	09000317          	auipc	t1,0x9000
    1888:	000c                	0xc
    188a:	0501                	addi	a0,a0,0
    188c:	0305                	addi	t1,t1,1
    188e:	0901                	addi	s2,s2,0
    1890:	0006                	c.slli	zero,0x1
    1892:	0501                	addi	a0,a0,0
    1894:	0318                	addi	a4,sp,384
    1896:	0902                	c.slli64	s2
    1898:	0002                	c.slli64	zero
    189a:	0501                	addi	a0,a0,0
    189c:	0316                	slli	t1,t1,0x5
    189e:	0900                	addi	s0,sp,144
    18a0:	000c                	0xc
    18a2:	0501                	addi	a0,a0,0
    18a4:	0305                	addi	t1,t1,1
    18a6:	0901                	addi	s2,s2,0
    18a8:	0006                	c.slli	zero,0x1
    18aa:	0501                	addi	a0,a0,0
    18ac:	0316                	slli	t1,t1,0x5
    18ae:	0902                	c.slli64	s2
    18b0:	0002                	c.slli64	zero
    18b2:	0501                	addi	a0,a0,0
    18b4:	0314                	addi	a3,sp,384
    18b6:	0900                	addi	s0,sp,144
    18b8:	001c                	0x1c
    18ba:	0501                	addi	a0,a0,0
    18bc:	0305                	addi	t1,t1,1
    18be:	0901                	addi	s2,s2,0
    18c0:	0006                	c.slli	zero,0x1
    18c2:	0501                	addi	a0,a0,0
    18c4:	0316                	slli	t1,t1,0x5
    18c6:	0902                	c.slli64	s2
    18c8:	0002                	c.slli64	zero
    18ca:	0501                	addi	a0,a0,0
    18cc:	0314                	addi	a3,sp,384
    18ce:	0900                	addi	s0,sp,144
    18d0:	001c                	0x1c
    18d2:	0501                	addi	a0,a0,0
    18d4:	0305                	addi	t1,t1,1
    18d6:	0901                	addi	s2,s2,0
    18d8:	0006                	c.slli	zero,0x1
    18da:	0501                	addi	a0,a0,0
    18dc:	0319                	addi	t1,t1,6
    18de:	0902                	c.slli64	s2
    18e0:	0002                	c.slli64	zero
    18e2:	0501                	addi	a0,a0,0
    18e4:	09000317          	auipc	t1,0x9000
    18e8:	0016                	c.slli	zero,0x5
    18ea:	0501                	addi	a0,a0,0
    18ec:	0305                	addi	t1,t1,1
    18ee:	0901                	addi	s2,s2,0
    18f0:	0006                	c.slli	zero,0x1
    18f2:	0301                	addi	t1,t1,0
    18f4:	0902                	c.slli64	s2
    18f6:	0002                	c.slli64	zero
    18f8:	0501                	addi	a0,a0,0
    18fa:	0301                	addi	t1,t1,0
    18fc:	0902                	c.slli64	s2
    18fe:	0002                	c.slli64	zero
    1900:	0301                	addi	t1,t1,0
    1902:	0906                	slli	s2,s2,0x1
    1904:	000a                	c.slli	zero,0x2
    1906:	0501                	addi	a0,a0,0
    1908:	09010303          	lb	t1,144(sp)
    190c:	0010                	0x10
    190e:	0301                	addi	t1,t1,0
    1910:	0901                	addi	s2,s2,0
    1912:	0004                	0x4
    1914:	0501                	addi	a0,a0,0
    1916:	0301                	addi	t1,t1,0
    1918:	0901                	addi	s2,s2,0
    191a:	000a                	c.slli	zero,0x2
    191c:	0301                	addi	t1,t1,0
    191e:	0906                	slli	s2,s2,0x1
    1920:	000a                	c.slli	zero,0x2
    1922:	0501                	addi	a0,a0,0
    1924:	0901030b          	0x901030b
    1928:	0010                	0x10
    192a:	0501                	addi	a0,a0,0
    192c:	09010303          	lb	t1,144(sp)
    1930:	000c                	0xc
    1932:	0501                	addi	a0,a0,0
    1934:	0301                	addi	t1,t1,0
    1936:	0901                	addi	s2,s2,0
    1938:	000a                	c.slli	zero,0x2
    193a:	0301                	addi	t1,t1,0
    193c:	0906                	slli	s2,s2,0x1
    193e:	000a                	c.slli	zero,0x2
    1940:	0501                	addi	a0,a0,0
    1942:	030a                	slli	t1,t1,0x2
    1944:	00080907          	0x80907
    1948:	0501                	addi	a0,a0,0
    194a:	09000303          	lb	t1,144(zero) # 90 <REGBYTES+0x8c>
    194e:	0004                	0x4
    1950:	0501                	addi	a0,a0,0
    1952:	0314                	addi	a3,sp,384
    1954:	0901                	addi	s2,s2,0
    1956:	0002                	c.slli64	zero
    1958:	0501                	addi	a0,a0,0
    195a:	0308                	addi	a0,sp,384
    195c:	0900                	addi	s0,sp,144
    195e:	0012                	c.slli	zero,0x4
    1960:	0501                	addi	a0,a0,0
    1962:	0022                	c.slli	zero,0x8
    1964:	0402                	c.slli64	s0
    1966:	0302                	c.slli64	t1
    1968:	097f                	0x97f
    196a:	0002                	c.slli64	zero
    196c:	0501                	addi	a0,a0,0
    196e:	04020003          	lb	zero,64(tp) # 40 <REGBYTES+0x3c>
    1972:	0301                	addi	t1,t1,0
    1974:	0900                	addi	s0,sp,144
    1976:	000a                	c.slli	zero,0x2
    1978:	0501                	addi	a0,a0,0
    197a:	09030307          	0x9030307
    197e:	000c                	0xc
    1980:	0501                	addi	a0,a0,0
    1982:	0306                	slli	t1,t1,0x1
    1984:	0902                	c.slli64	s2
    1986:	0002                	c.slli64	zero
    1988:	0501                	addi	a0,a0,0
    198a:	0305                	addi	t1,t1,1
    198c:	0902                	c.slli64	s2
    198e:	000a                	c.slli	zero,0x2
    1990:	0501                	addi	a0,a0,0
    1992:	0318                	addi	a4,sp,384
    1994:	0902                	c.slli64	s2
    1996:	0002                	c.slli64	zero
    1998:	0501                	addi	a0,a0,0
    199a:	0900030b          	0x900030b
    199e:	0012                	c.slli	zero,0x4
    19a0:	0501                	addi	a0,a0,0
    19a2:	0301                	addi	t1,t1,0
    19a4:	0901                	addi	s2,s2,0
    19a6:	000a                	c.slli	zero,0x2
    19a8:	0301                	addi	t1,t1,0
    19aa:	0906                	slli	s2,s2,0x1
    19ac:	000a                	c.slli	zero,0x2
    19ae:	0501                	addi	a0,a0,0
    19b0:	09010317          	auipc	t1,0x9010
    19b4:	0008                	0x8
    19b6:	0501                	addi	a0,a0,0
    19b8:	09000303          	lb	t1,144(zero) # 90 <REGBYTES+0x8c>
    19bc:	000a                	c.slli	zero,0x2
    19be:	0501                	addi	a0,a0,0
    19c0:	032e                	slli	t1,t1,0xb
    19c2:	0900                	addi	s0,sp,144
    19c4:	0002                	c.slli64	zero
    19c6:	0501                	addi	a0,a0,0
    19c8:	09000303          	lb	t1,144(zero) # 90 <REGBYTES+0x8c>
    19cc:	000a                	c.slli	zero,0x2
    19ce:	0501                	addi	a0,a0,0
    19d0:	0301                	addi	t1,t1,0
    19d2:	0901                	addi	s2,s2,0
    19d4:	0008                	0x8
    19d6:	0301                	addi	t1,t1,0
    19d8:	0906                	slli	s2,s2,0x1
    19da:	000a                	c.slli	zero,0x2
    19dc:	0501                	addi	a0,a0,0
    19de:	0315                	addi	t1,t1,5
    19e0:	0901                	addi	s2,s2,0
    19e2:	0010                	0x10
    19e4:	0501                	addi	a0,a0,0
    19e6:	09000303          	lb	t1,144(zero) # 90 <REGBYTES+0x8c>
    19ea:	000c                	0xc
    19ec:	0301                	addi	t1,t1,0
    19ee:	0901                	addi	s2,s2,0
    19f0:	0006                	c.slli	zero,0x1
    19f2:	0501                	addi	a0,a0,0
    19f4:	0322                	slli	t1,t1,0x8
    19f6:	0900                	addi	s0,sp,144
    19f8:	000c                	0xc
    19fa:	0501                	addi	a0,a0,0
    19fc:	09010303          	lb	t1,144(sp)
    1a00:	000c                	0xc
    1a02:	0501                	addi	a0,a0,0
    1a04:	031a                	slli	t1,t1,0x6
    1a06:	0900                	addi	s0,sp,144
    1a08:	000c                	0xc
    1a0a:	0501                	addi	a0,a0,0
    1a0c:	032c                	addi	a1,sp,392
    1a0e:	0900                	addi	s0,sp,144
    1a10:	000c                	0xc
    1a12:	0501                	addi	a0,a0,0
    1a14:	09020303          	lb	t1,144(tp) # 90 <REGBYTES+0x8c>
    1a18:	000c                	0xc
    1a1a:	0301                	addi	t1,t1,0
    1a1c:	0901                	addi	s2,s2,0
    1a1e:	0004                	0x4
    1a20:	0501                	addi	a0,a0,0
    1a22:	0301                	addi	t1,t1,0
    1a24:	0901                	addi	s2,s2,0
    1a26:	0002                	c.slli64	zero
    1a28:	0301                	addi	t1,t1,0
    1a2a:	0906                	slli	s2,s2,0x1
    1a2c:	000a                	c.slli	zero,0x2
    1a2e:	0501                	addi	a0,a0,0
    1a30:	030a                	slli	t1,t1,0x2
    1a32:	0901                	addi	s2,s2,0
    1a34:	000c                	0xc
    1a36:	0501                	addi	a0,a0,0
    1a38:	09000317          	auipc	t1,0x9000
    1a3c:	000a                	c.slli	zero,0x2
    1a3e:	0501                	addi	a0,a0,0
    1a40:	0314                	addi	a3,sp,384
    1a42:	0902                	c.slli64	s2
    1a44:	0006                	c.slli	zero,0x1
    1a46:	0501                	addi	a0,a0,0
    1a48:	0900030b          	0x900030b
    1a4c:	000c                	0xc
    1a4e:	0501                	addi	a0,a0,0
    1a50:	0312                	slli	t1,t1,0x4
    1a52:	0902                	c.slli64	s2
    1a54:	0004                	0x4
    1a56:	0501                	addi	a0,a0,0
    1a58:	0900030b          	0x900030b
    1a5c:	000c                	0xc
    1a5e:	0501                	addi	a0,a0,0
    1a60:	09020303          	lb	t1,144(tp) # 90 <REGBYTES+0x8c>
    1a64:	0004                	0x4
    1a66:	0501                	addi	a0,a0,0
    1a68:	030e                	slli	t1,t1,0x3
    1a6a:	0902                	c.slli64	s2
    1a6c:	000a                	c.slli	zero,0x2
    1a6e:	0501                	addi	a0,a0,0
    1a70:	0305                	addi	t1,t1,1
    1a72:	0901                	addi	s2,s2,0
    1a74:	0016                	c.slli	zero,0x5
    1a76:	0301                	addi	t1,t1,0
    1a78:	0901                	addi	s2,s2,0
    1a7a:	0002                	c.slli64	zero
    1a7c:	0301                	addi	t1,t1,0
    1a7e:	0902                	c.slli64	s2
    1a80:	0002                	c.slli64	zero
    1a82:	0501                	addi	a0,a0,0
    1a84:	09030303          	lb	t1,144(t1) # 9001ac8 <REGBYTES+0x9001ac4>
    1a88:	000a                	c.slli	zero,0x2
    1a8a:	0501                	addi	a0,a0,0
    1a8c:	0314                	addi	a3,sp,384
    1a8e:	0905                	addi	s2,s2,1
    1a90:	0002                	c.slli64	zero
    1a92:	0501                	addi	a0,a0,0
    1a94:	09000303          	lb	t1,144(zero) # 90 <REGBYTES+0x8c>
    1a98:	000a                	c.slli	zero,0x2
    1a9a:	0501                	addi	a0,a0,0
    1a9c:	0301                	addi	t1,t1,0
    1a9e:	0901                	addi	s2,s2,0
    1aa0:	000a                	c.slli	zero,0x2
    1aa2:	0301                	addi	t1,t1,0
    1aa4:	0906                	slli	s2,s2,0x1
    1aa6:	000a                	c.slli	zero,0x2
    1aa8:	0501                	addi	a0,a0,0
    1aaa:	031c                	addi	a5,sp,384
    1aac:	0902                	c.slli64	s2
    1aae:	000c                	0xc
    1ab0:	0501                	addi	a0,a0,0
    1ab2:	030c                	addi	a1,sp,384
    1ab4:	0900                	addi	s0,sp,144
    1ab6:	0006                	c.slli	zero,0x1
    1ab8:	0501                	addi	a0,a0,0
    1aba:	030a                	slli	t1,t1,0x2
    1abc:	0902                	c.slli64	s2
    1abe:	0006                	c.slli	zero,0x1
    1ac0:	0501                	addi	a0,a0,0
    1ac2:	09000317          	auipc	t1,0x9000
    1ac6:	000a                	c.slli	zero,0x2
    1ac8:	0501                	addi	a0,a0,0
    1aca:	0902030b          	0x902030b
    1ace:	0006                	c.slli	zero,0x1
    1ad0:	0501                	addi	a0,a0,0
    1ad2:	09000303          	lb	t1,144(zero) # 90 <REGBYTES+0x8c>
    1ad6:	000a                	c.slli	zero,0x2
    1ad8:	0301                	addi	t1,t1,0
    1ada:	0902                	c.slli64	s2
    1adc:	0002                	c.slli64	zero
    1ade:	0301                	addi	t1,t1,0
    1ae0:	0901                	addi	s2,s2,0
    1ae2:	0002                	c.slli64	zero
    1ae4:	0501                	addi	a0,a0,0
    1ae6:	033d                	addi	t1,t1,15
    1ae8:	0900                	addi	s0,sp,144
    1aea:	0006                	c.slli	zero,0x1
    1aec:	0501                	addi	a0,a0,0
    1aee:	0314                	addi	a3,sp,384
    1af0:	00060903          	lb	s2,0(a2)
    1af4:	0501                	addi	a0,a0,0
    1af6:	09000303          	lb	t1,144(zero) # 90 <REGBYTES+0x8c>
    1afa:	000a                	c.slli	zero,0x2
    1afc:	0501                	addi	a0,a0,0
    1afe:	0301                	addi	t1,t1,0
    1b00:	0901                	addi	s2,s2,0
    1b02:	000a                	c.slli	zero,0x2
    1b04:	0301                	addi	t1,t1,0
    1b06:	000a0903          	lb	s2,0(s4)
    1b0a:	0501                	addi	a0,a0,0
    1b0c:	09010303          	lb	t1,144(sp)
    1b10:	0020                	addi	s0,sp,8
    1b12:	0501                	addi	a0,a0,0
    1b14:	0902030b          	0x902030b
    1b18:	0002                	c.slli64	zero
    1b1a:	0501                	addi	a0,a0,0
    1b1c:	09020303          	lb	t1,144(tp) # 90 <REGBYTES+0x8c>
    1b20:	000c                	0xc
    1b22:	0301                	addi	t1,t1,0
    1b24:	0901                	addi	s2,s2,0
    1b26:	0012                	c.slli	zero,0x4
    1b28:	0301                	addi	t1,t1,0
    1b2a:	0901                	addi	s2,s2,0
    1b2c:	0012                	c.slli	zero,0x4
    1b2e:	0301                	addi	t1,t1,0
    1b30:	0902                	c.slli64	s2
    1b32:	0010                	0x10
    1b34:	0501                	addi	a0,a0,0
    1b36:	031a                	slli	t1,t1,0x6
    1b38:	0904                	addi	s1,sp,144
    1b3a:	0004                	0x4
    1b3c:	0501                	addi	a0,a0,0
    1b3e:	030d                	addi	t1,t1,3
    1b40:	0900                	addi	s0,sp,144
    1b42:	001e                	c.slli	zero,0x7
    1b44:	0501                	addi	a0,a0,0
    1b46:	0900030b          	0x900030b
    1b4a:	0002                	c.slli64	zero
    1b4c:	0501                	addi	a0,a0,0
    1b4e:	030a                	slli	t1,t1,0x2
    1b50:	0901                	addi	s2,s2,0
    1b52:	000a                	c.slli	zero,0x2
    1b54:	0501                	addi	a0,a0,0
    1b56:	0310                	addi	a2,sp,384
    1b58:	0900                	addi	s0,sp,144
    1b5a:	000a                	c.slli	zero,0x2
    1b5c:	0501                	addi	a0,a0,0
    1b5e:	031d                	addi	t1,t1,7
    1b60:	0900                	addi	s0,sp,144
    1b62:	0002                	c.slli64	zero
    1b64:	0501                	addi	a0,a0,0
    1b66:	09000303          	lb	t1,144(zero) # 90 <REGBYTES+0x8c>
    1b6a:	000a                	c.slli	zero,0x2
    1b6c:	0501                	addi	a0,a0,0
    1b6e:	0331                	addi	t1,t1,12
    1b70:	0900                	addi	s0,sp,144
    1b72:	0002                	c.slli64	zero
    1b74:	0501                	addi	a0,a0,0
    1b76:	09000303          	lb	t1,144(zero) # 90 <REGBYTES+0x8c>
    1b7a:	000a                	c.slli	zero,0x2
    1b7c:	0301                	addi	t1,t1,0
    1b7e:	0901                	addi	s2,s2,0
    1b80:	0008                	0x8
    1b82:	0501                	addi	a0,a0,0
    1b84:	0301                	addi	t1,t1,0
    1b86:	0904                	addi	s1,sp,144
    1b88:	0004                	0x4
    1b8a:	0301                	addi	t1,t1,0
    1b8c:	000a0903          	lb	s2,0(s4)
    1b90:	0501                	addi	a0,a0,0
    1b92:	09010303          	lb	t1,144(sp)
    1b96:	0008                	0x8
    1b98:	0501                	addi	a0,a0,0
    1b9a:	0009                	c.nop	2
    1b9c:	0402                	c.slli64	s0
    1b9e:	0301                	addi	t1,t1,0
    1ba0:	0901                	addi	s2,s2,0
    1ba2:	000c                	0xc
    1ba4:	0501                	addi	a0,a0,0
    1ba6:	0301                	addi	t1,t1,0
    1ba8:	0905                	addi	s2,s2,1
    1baa:	0002                	c.slli64	zero
    1bac:	0501                	addi	a0,a0,0
    1bae:	030a                	slli	t1,t1,0x2
    1bb0:	0901                	addi	s2,s2,0
    1bb2:	000e                	c.slli	zero,0x3
    1bb4:	0501                	addi	a0,a0,0
    1bb6:	0319                	addi	t1,t1,6
    1bb8:	0900                	addi	s0,sp,144
    1bba:	000a                	c.slli	zero,0x2
    1bbc:	0501                	addi	a0,a0,0
    1bbe:	030a                	slli	t1,t1,0x2
    1bc0:	0901                	addi	s2,s2,0
    1bc2:	0006                	c.slli	zero,0x1
    1bc4:	0501                	addi	a0,a0,0
    1bc6:	031a                	slli	t1,t1,0x6
    1bc8:	0900                	addi	s0,sp,144
    1bca:	000a                	c.slli	zero,0x2
    1bcc:	0501                	addi	a0,a0,0
    1bce:	09060303          	lb	t1,144(a2)
    1bd2:	0006                	c.slli	zero,0x1
    1bd4:	0501                	addi	a0,a0,0
    1bd6:	0301                	addi	t1,t1,0
    1bd8:	0901                	addi	s2,s2,0
    1bda:	0004                	0x4
    1bdc:	0301                	addi	t1,t1,0
    1bde:	00080903          	lb	s2,0(a6)
    1be2:	0501                	addi	a0,a0,0
    1be4:	09010303          	lb	t1,144(sp)
    1be8:	0010                	0x10
    1bea:	0501                	addi	a0,a0,0
    1bec:	0301                	addi	t1,t1,0
    1bee:	0901                	addi	s2,s2,0
    1bf0:	000a                	c.slli	zero,0x2
    1bf2:	0901                	addi	s2,s2,0
    1bf4:	000a                	c.slli	zero,0x2
    1bf6:	0100                	addi	s0,sp,128
    1bf8:	b201                	j	14f8 <REGBYTES+0x14f4>
    1bfa:	03000003          	lb	zero,48(zero) # 30 <REGBYTES+0x2c>
    1bfe:	0400                	addi	s0,sp,512
    1c00:	0001                	nop
    1c02:	0100                	addi	s0,sp,128
    1c04:	fb01                	bnez	a4,1b14 <REGBYTES+0x1b10>
    1c06:	0d0e                	slli	s10,s10,0x3
    1c08:	0100                	addi	s0,sp,128
    1c0a:	0101                	addi	sp,sp,0
    1c0c:	0001                	nop
    1c0e:	0000                	unimp
    1c10:	0001                	nop
    1c12:	0100                	addi	s0,sp,128
    1c14:	6d6f682f          	0x6d6f682f
    1c18:	2f65                	jal	23d0 <REGBYTES+0x23cc>
    1c1a:	61677573          	csrrci	a0,0x616,14
    1c1e:	742d782f          	0x742d782f
    1c22:	736c6f6f          	jal	t5,c8358 <REGBYTES+0xc8354>
    1c26:	7369722f          	0x7369722f
    1c2a:	32337663          	bgeu	t1,gp,1f56 <REGBYTES+0x1f52>
    1c2e:	682d                	lui	a6,0xb
    1c30:	6669                	lui	a2,0x1a
    1c32:	7669                	lui	a2,0xffffa
    1c34:	3165                	jal	18dc <REGBYTES+0x18d8>
    1c36:	652d                	lui	a0,0xb
    1c38:	666c                	flw	fa1,76(a2)
    1c3a:	7369722f          	0x7369722f
    1c3e:	32337663          	bgeu	t1,gp,1f6a <REGBYTES+0x1f66>
    1c42:	682d                	lui	a6,0xb
    1c44:	6669                	lui	a2,0x1a
    1c46:	7669                	lui	a2,0xffffa
    1c48:	3165                	jal	18f0 <REGBYTES+0x18ec>
    1c4a:	652d                	lui	a0,0xb
    1c4c:	666c                	flw	fa1,76(a2)
    1c4e:	7379732f          	0x7379732f
    1c52:	692d                	lui	s2,0xb
    1c54:	636e                	flw	ft6,216(sp)
    1c56:	756c                	flw	fa1,108(a0)
    1c58:	6564                	flw	fs1,76(a0)
    1c5a:	63616d2f          	0x63616d2f
    1c5e:	6968                	flw	fa0,84(a0)
    1c60:	656e                	flw	fa0,216(sp)
    1c62:	2f00                	fld	fs0,24(a4)
    1c64:	6f68                	flw	fa0,92(a4)
    1c66:	656d                	lui	a0,0x1b
    1c68:	6775732f          	0x6775732f
    1c6c:	2f61                	jal	2404 <REGBYTES+0x2400>
    1c6e:	2d78                	fld	fa4,216(a0)
    1c70:	6f74                	flw	fa3,92(a4)
    1c72:	2f736c6f          	jal	s8,38768 <REGBYTES+0x38764>
    1c76:	6972                	flw	fs2,28(sp)
    1c78:	33766373          	csrrsi	t1,mhpmevent23,12
    1c7c:	2d32                	fld	fs10,264(sp)
    1c7e:	6968                	flw	fa0,84(a0)
    1c80:	6966                	flw	fs2,88(sp)
    1c82:	6576                	flw	fa0,92(sp)
    1c84:	2d31                	jal	22a0 <REGBYTES+0x229c>
    1c86:	6c65                	lui	s8,0x19
    1c88:	2f66                	fld	ft10,88(sp)
    1c8a:	6972                	flw	fs2,28(sp)
    1c8c:	33766373          	csrrsi	t1,mhpmevent23,12
    1c90:	2d32                	fld	fs10,264(sp)
    1c92:	6968                	flw	fa0,84(a0)
    1c94:	6966                	flw	fs2,88(sp)
    1c96:	6576                	flw	fa0,92(sp)
    1c98:	2d31                	jal	22b4 <REGBYTES+0x22b0>
    1c9a:	6c65                	lui	s8,0x19
    1c9c:	2f66                	fld	ft10,88(sp)
    1c9e:	2d737973          	csrrci	s2,0x2d7,6
    1ca2:	6e69                	lui	t3,0x1a
    1ca4:	64756c63          	bltu	a0,t2,22fc <REGBYTES+0x22f8>
    1ca8:	2f65                	jal	2460 <REGBYTES+0x245c>
    1caa:	00737973          	csrrci	s2,0x7,6
    1cae:	7300                	flw	fs0,32(a4)
    1cb0:	7379                	lui	t1,0xffffe
    1cb2:	6c6c6163          	bltu	s8,t1,2374 <REGBYTES+0x2370>
    1cb6:	632e                	flw	ft6,200(sp)
    1cb8:	0000                	unimp
    1cba:	0000                	unimp
    1cbc:	645f 6665 7561      	0x75616665645f
    1cc2:	746c                	flw	fa1,108(s0)
    1cc4:	745f 7079 7365      	0x73657079745f
    1cca:	682e                	flw	fa6,200(sp)
    1ccc:	0100                	addi	s0,sp,128
    1cce:	0000                	unimp
    1cd0:	735f 6474 6e69      	0x6e696474735f
    1cd6:	2e74                	fld	fa3,216(a2)
    1cd8:	0068                	addi	a0,sp,12
    1cda:	0002                	c.slli64	zero
    1cdc:	6400                	flw	fs0,8(s0)
    1cde:	6665                	lui	a2,0x19
    1ce0:	6e69                	lui	t3,0x1a
    1ce2:	7365                	lui	t1,0xffff9
    1ce4:	682e                	flw	fa6,200(sp)
    1ce6:	0000                	unimp
    1ce8:	0000                	unimp
    1cea:	6e69                	lui	t3,0x1a
    1cec:	6574                	flw	fa3,76(a0)
    1cee:	7272                	flw	ft4,60(sp)
    1cf0:	7075                	c.lui	zero,0xffffd
    1cf2:	2e74                	fld	fa3,216(a2)
    1cf4:	0068                	addi	a0,sp,12
    1cf6:	0000                	unimp
    1cf8:	7300                	flw	fs0,32(a4)
    1cfa:	7379                	lui	t1,0xffffe
    1cfc:	6c6c6163          	bltu	s8,t1,23be <REGBYTES+0x23ba>
    1d00:	682e                	flw	fa6,200(sp)
    1d02:	0000                	unimp
    1d04:	0000                	unimp
    1d06:	0500                	addi	s0,sp,640
    1d08:	0001                	nop
    1d0a:	0205                	addi	tp,tp,1
    1d0c:	188c                	addi	a1,sp,112
    1d0e:	8000                	0x8000
    1d10:	05010b03          	lb	s6,80(sp)
    1d14:	0315                	addi	t1,t1,5
    1d16:	00200903          	lb	s2,2(zero) # 2 <REGBYTES-0x2>
    1d1a:	0301                	addi	t1,t1,0
    1d1c:	0901                	addi	s2,s2,0
    1d1e:	0008                	0x8
    1d20:	0501                	addi	a0,a0,0
    1d22:	0319                	addi	t1,t1,6
    1d24:	0901                	addi	s2,s2,0
    1d26:	0008                	0x8
    1d28:	0501                	addi	a0,a0,0
    1d2a:	031a                	slli	t1,t1,0x6
    1d2c:	0901                	addi	s2,s2,0
    1d2e:	0008                	0x8
    1d30:	0501                	addi	a0,a0,0
    1d32:	0315                	addi	t1,t1,5
    1d34:	0901                	addi	s2,s2,0
    1d36:	0008                	0x8
    1d38:	0301                	addi	t1,t1,0
    1d3a:	0901                	addi	s2,s2,0
    1d3c:	0008                	0x8
    1d3e:	0501                	addi	a0,a0,0
    1d40:	09030303          	lb	t1,144(t1) # ffffe090 <bootstack+0x7f6fe090>
    1d44:	0008                	0x8
    1d46:	0501                	addi	a0,a0,0
    1d48:	0316                	slli	t1,t1,0x5
    1d4a:	0902                	c.slli64	s2
    1d4c:	000a                	c.slli	zero,0x2
    1d4e:	0501                	addi	a0,a0,0
    1d50:	0301                	addi	t1,t1,0
    1d52:	0901                	addi	s2,s2,0
    1d54:	0004                	0x4
    1d56:	0301                	addi	t1,t1,0
    1d58:	000a0903          	lb	s2,0(s4)
    1d5c:	0501                	addi	a0,a0,0
    1d5e:	09010303          	lb	t1,144(sp)
    1d62:	0008                	0x8
    1d64:	0501                	addi	a0,a0,0
    1d66:	0301                	addi	t1,t1,0
    1d68:	0901                	addi	s2,s2,0
    1d6a:	0006                	c.slli	zero,0x1
    1d6c:	0301                	addi	t1,t1,0
    1d6e:	000a0903          	lb	s2,0(s4)
    1d72:	0501                	addi	a0,a0,0
    1d74:	09020303          	lb	t1,144(tp) # 90 <REGBYTES+0x8c>
    1d78:	0008                	0x8
    1d7a:	0501                	addi	a0,a0,0
    1d7c:	09010317          	auipc	t1,0x9010
    1d80:	000a                	c.slli	zero,0x2
    1d82:	0501                	addi	a0,a0,0
    1d84:	0301                	addi	t1,t1,0
    1d86:	0901                	addi	s2,s2,0
    1d88:	0004                	0x4
    1d8a:	0301                	addi	t1,t1,0
    1d8c:	000a0903          	lb	s2,0(s4)
    1d90:	0501                	addi	a0,a0,0
    1d92:	09020303          	lb	t1,144(tp) # 90 <REGBYTES+0x8c>
    1d96:	0008                	0x8
    1d98:	0501                	addi	a0,a0,0
    1d9a:	0318                	addi	a4,sp,384
    1d9c:	0901                	addi	s2,s2,0
    1d9e:	000a                	c.slli	zero,0x2
    1da0:	0501                	addi	a0,a0,0
    1da2:	0301                	addi	t1,t1,0
    1da4:	0901                	addi	s2,s2,0
    1da6:	0004                	0x4
    1da8:	0301                	addi	t1,t1,0
    1daa:	000a0903          	lb	s2,0(s4)
    1dae:	0501                	addi	a0,a0,0
    1db0:	0316                	slli	t1,t1,0x5
    1db2:	0902                	c.slli64	s2
    1db4:	000c                	0xc
    1db6:	0501                	addi	a0,a0,0
    1db8:	09010303          	lb	t1,144(sp)
    1dbc:	0008                	0x8
    1dbe:	0501                	addi	a0,a0,0
    1dc0:	0319                	addi	t1,t1,6
    1dc2:	0901                	addi	s2,s2,0
    1dc4:	000a                	c.slli	zero,0x2
    1dc6:	0501                	addi	a0,a0,0
    1dc8:	0301                	addi	t1,t1,0
    1dca:	0901                	addi	s2,s2,0
    1dcc:	0004                	0x4
    1dce:	0301                	addi	t1,t1,0
    1dd0:	000a0903          	lb	s2,0(s4)
    1dd4:	0501                	addi	a0,a0,0
    1dd6:	09020303          	lb	t1,144(tp) # 90 <REGBYTES+0x8c>
    1dda:	0008                	0x8
    1ddc:	0501                	addi	a0,a0,0
    1dde:	0318                	addi	a4,sp,384
    1de0:	0901                	addi	s2,s2,0
    1de2:	000a                	c.slli	zero,0x2
    1de4:	0501                	addi	a0,a0,0
    1de6:	0301                	addi	t1,t1,0
    1de8:	0901                	addi	s2,s2,0
    1dea:	0004                	0x4
    1dec:	0301                	addi	t1,t1,0
    1dee:	000a0903          	lb	s2,0(s4)
    1df2:	0501                	addi	a0,a0,0
    1df4:	0902031b          	0x902031b
    1df8:	000c                	0xc
    1dfa:	0501                	addi	a0,a0,0
    1dfc:	09010303          	lb	t1,144(sp)
    1e00:	0008                	0x8
    1e02:	0501                	addi	a0,a0,0
    1e04:	0318                	addi	a4,sp,384
    1e06:	0901                	addi	s2,s2,0
    1e08:	000a                	c.slli	zero,0x2
    1e0a:	0501                	addi	a0,a0,0
    1e0c:	0301                	addi	t1,t1,0
    1e0e:	0901                	addi	s2,s2,0
    1e10:	0004                	0x4
    1e12:	0301                	addi	t1,t1,0
    1e14:	000a0903          	lb	s2,0(s4)
    1e18:	0501                	addi	a0,a0,0
    1e1a:	0319                	addi	t1,t1,6
    1e1c:	0902                	c.slli64	s2
    1e1e:	000c                	0xc
    1e20:	0501                	addi	a0,a0,0
    1e22:	09010303          	lb	t1,144(sp)
    1e26:	0008                	0x8
    1e28:	0501                	addi	a0,a0,0
    1e2a:	031a                	slli	t1,t1,0x6
    1e2c:	0901                	addi	s2,s2,0
    1e2e:	000a                	c.slli	zero,0x2
    1e30:	0501                	addi	a0,a0,0
    1e32:	0301                	addi	t1,t1,0
    1e34:	0901                	addi	s2,s2,0
    1e36:	0004                	0x4
    1e38:	0301                	addi	t1,t1,0
    1e3a:	000a0903          	lb	s2,0(s4)
    1e3e:	0501                	addi	a0,a0,0
    1e40:	0315                	addi	t1,t1,5
    1e42:	0902                	c.slli64	s2
    1e44:	000c                	0xc
    1e46:	0501                	addi	a0,a0,0
    1e48:	09010303          	lb	t1,144(sp)
    1e4c:	0008                	0x8
    1e4e:	0501                	addi	a0,a0,0
    1e50:	0319                	addi	t1,t1,6
    1e52:	0901                	addi	s2,s2,0
    1e54:	000a                	c.slli	zero,0x2
    1e56:	0501                	addi	a0,a0,0
    1e58:	0301                	addi	t1,t1,0
    1e5a:	0901                	addi	s2,s2,0
    1e5c:	0004                	0x4
    1e5e:	0301                	addi	t1,t1,0
    1e60:	000a0903          	lb	s2,0(s4)
    1e64:	0501                	addi	a0,a0,0
    1e66:	09000303          	lb	t1,144(zero) # 90 <REGBYTES+0x8c>
    1e6a:	0014                	0x14
    1e6c:	0501                	addi	a0,a0,0
    1e6e:	0314                	addi	a3,sp,384
    1e70:	0902                	c.slli64	s2
    1e72:	000c                	0xc
    1e74:	0501                	addi	a0,a0,0
    1e76:	0316                	slli	t1,t1,0x5
    1e78:	0901                	addi	s2,s2,0
    1e7a:	0008                	0x8
    1e7c:	0501                	addi	a0,a0,0
    1e7e:	09010313          	addi	t1,sp,144
    1e82:	0008                	0x8
    1e84:	0501                	addi	a0,a0,0
    1e86:	09010303          	lb	t1,144(sp)
    1e8a:	0008                	0x8
    1e8c:	0501                	addi	a0,a0,0
    1e8e:	09010317          	auipc	t1,0x9010
    1e92:	000a                	c.slli	zero,0x2
    1e94:	0501                	addi	a0,a0,0
    1e96:	0301                	addi	t1,t1,0
    1e98:	0901                	addi	s2,s2,0
    1e9a:	0004                	0x4
    1e9c:	0301                	addi	t1,t1,0
    1e9e:	000a0903          	lb	s2,0(s4)
    1ea2:	0501                	addi	a0,a0,0
    1ea4:	0314                	addi	a3,sp,384
    1ea6:	0902                	c.slli64	s2
    1ea8:	0014                	0x14
    1eaa:	0501                	addi	a0,a0,0
    1eac:	09010317          	auipc	t1,0x9010
    1eb0:	0008                	0x8
    1eb2:	0501                	addi	a0,a0,0
    1eb4:	0314                	addi	a3,sp,384
    1eb6:	0901                	addi	s2,s2,0
    1eb8:	0008                	0x8
    1eba:	0501                	addi	a0,a0,0
    1ebc:	09010303          	lb	t1,144(sp)
    1ec0:	0008                	0x8
    1ec2:	0501                	addi	a0,a0,0
    1ec4:	09010317          	auipc	t1,0x9010
    1ec8:	000a                	c.slli	zero,0x2
    1eca:	0501                	addi	a0,a0,0
    1ecc:	0301                	addi	t1,t1,0
    1ece:	0901                	addi	s2,s2,0
    1ed0:	0004                	0x4
    1ed2:	0301                	addi	t1,t1,0
    1ed4:	000a0903          	lb	s2,0(s4)
    1ed8:	0501                	addi	a0,a0,0
    1eda:	0319                	addi	t1,t1,6
    1edc:	0902                	c.slli64	s2
    1ede:	0012                	c.slli	zero,0x4
    1ee0:	0501                	addi	a0,a0,0
    1ee2:	031c                	addi	a5,sp,384
    1ee4:	0901                	addi	s2,s2,0
    1ee6:	0008                	0x8
    1ee8:	0501                	addi	a0,a0,0
    1eea:	09020303          	lb	t1,144(tp) # 90 <REGBYTES+0x8c>
    1eee:	0008                	0x8
    1ef0:	0501                	addi	a0,a0,0
    1ef2:	031a                	slli	t1,t1,0x6
    1ef4:	0901                	addi	s2,s2,0
    1ef6:	000a                	c.slli	zero,0x2
    1ef8:	0501                	addi	a0,a0,0
    1efa:	0301                	addi	t1,t1,0
    1efc:	0901                	addi	s2,s2,0
    1efe:	0004                	0x4
    1f00:	0301                	addi	t1,t1,0
    1f02:	0906                	slli	s2,s2,0x1
    1f04:	000a                	c.slli	zero,0x2
    1f06:	0501                	addi	a0,a0,0
    1f08:	0316                	slli	t1,t1,0x5
    1f0a:	0902                	c.slli64	s2
    1f0c:	000c                	0xc
    1f0e:	0501                	addi	a0,a0,0
    1f10:	09010303          	lb	t1,144(sp)
    1f14:	0008                	0x8
    1f16:	0501                	addi	a0,a0,0
    1f18:	0319                	addi	t1,t1,6
    1f1a:	0901                	addi	s2,s2,0
    1f1c:	000a                	c.slli	zero,0x2
    1f1e:	0501                	addi	a0,a0,0
    1f20:	0301                	addi	t1,t1,0
    1f22:	0901                	addi	s2,s2,0
    1f24:	0004                	0x4
    1f26:	0301                	addi	t1,t1,0
    1f28:	000a0903          	lb	s2,0(s4)
    1f2c:	0501                	addi	a0,a0,0
    1f2e:	0319                	addi	t1,t1,6
    1f30:	0902                	c.slli64	s2
    1f32:	000c                	0xc
    1f34:	0501                	addi	a0,a0,0
    1f36:	09010303          	lb	t1,144(sp)
    1f3a:	0008                	0x8
    1f3c:	0501                	addi	a0,a0,0
    1f3e:	031a                	slli	t1,t1,0x6
    1f40:	0901                	addi	s2,s2,0
    1f42:	000a                	c.slli	zero,0x2
    1f44:	0501                	addi	a0,a0,0
    1f46:	0301                	addi	t1,t1,0
    1f48:	0901                	addi	s2,s2,0
    1f4a:	0004                	0x4
    1f4c:	0301                	addi	t1,t1,0
    1f4e:	000a0903          	lb	s2,0(s4)
    1f52:	0501                	addi	a0,a0,0
    1f54:	0315                	addi	t1,t1,5
    1f56:	0902                	c.slli64	s2
    1f58:	000c                	0xc
    1f5a:	0501                	addi	a0,a0,0
    1f5c:	09010303          	lb	t1,144(sp)
    1f60:	0008                	0x8
    1f62:	0501                	addi	a0,a0,0
    1f64:	0319                	addi	t1,t1,6
    1f66:	0901                	addi	s2,s2,0
    1f68:	000a                	c.slli	zero,0x2
    1f6a:	0501                	addi	a0,a0,0
    1f6c:	0301                	addi	t1,t1,0
    1f6e:	0901                	addi	s2,s2,0
    1f70:	0004                	0x4
    1f72:	0301                	addi	t1,t1,0
    1f74:	000a0903          	lb	s2,0(s4)
    1f78:	0501                	addi	a0,a0,0
    1f7a:	0314                	addi	a3,sp,384
    1f7c:	0902                	c.slli64	s2
    1f7e:	0014                	0x14
    1f80:	0501                	addi	a0,a0,0
    1f82:	0316                	slli	t1,t1,0x5
    1f84:	0901                	addi	s2,s2,0
    1f86:	0008                	0x8
    1f88:	0501                	addi	a0,a0,0
    1f8a:	09010313          	addi	t1,sp,144
    1f8e:	0008                	0x8
    1f90:	0501                	addi	a0,a0,0
    1f92:	09010303          	lb	t1,144(sp)
    1f96:	0008                	0x8
    1f98:	0501                	addi	a0,a0,0
    1f9a:	09010317          	auipc	t1,0x9010
    1f9e:	000a                	c.slli	zero,0x2
    1fa0:	0501                	addi	a0,a0,0
    1fa2:	0301                	addi	t1,t1,0
    1fa4:	0901                	addi	s2,s2,0
    1fa6:	0004                	0x4
    1fa8:	0901                	addi	s2,s2,0
    1faa:	000a                	c.slli	zero,0x2
    1fac:	0100                	addi	s0,sp,128
    1fae:	b101                	j	1bae <REGBYTES+0x1baa>
    1fb0:	0002                	c.slli64	zero
    1fb2:	0300                	addi	s0,sp,384
    1fb4:	1f00                	addi	s0,sp,944
    1fb6:	0000                	unimp
    1fb8:	0100                	addi	s0,sp,128
    1fba:	fb01                	bnez	a4,1eca <REGBYTES+0x1ec6>
    1fbc:	0d0e                	slli	s10,s10,0x3
    1fbe:	0100                	addi	s0,sp,128
    1fc0:	0101                	addi	sp,sp,0
    1fc2:	0001                	nop
    1fc4:	0000                	unimp
    1fc6:	0001                	nop
    1fc8:	0100                	addi	s0,sp,128
    1fca:	6d00                	flw	fs0,24(a0)
    1fcc:	6d65                	lui	s10,0x19
    1fce:	2e79726f          	jal	tp,99ab4 <REGBYTES+0x99ab0>
    1fd2:	00000063          	beqz	zero,1fd2 <REGBYTES+0x1fce>
    1fd6:	0000                	unimp
    1fd8:	0105                	addi	sp,sp,1
    1fda:	0500                	addi	s0,sp,640
    1fdc:	b202                	fsd	ft0,288(sp)
    1fde:	0380001b          	0x380001b
    1fe2:	011f 0605 0703      	0x7030605011f
    1fe8:	0c09                	addi	s8,s8,2
    1fea:	0100                	addi	s0,sp,128
    1fec:	0705                	addi	a4,a4,1
    1fee:	0e090303          	lb	t1,224(s2) # b0e0 <REGBYTES+0xb0dc>
    1ff2:	0100                	addi	s0,sp,128
    1ff4:	0a05                	addi	s4,s4,1
    1ff6:	0a090103          	lb	sp,160(s2)
    1ffa:	0100                	addi	s0,sp,128
    1ffc:	0305                	addi	t1,t1,1
    1ffe:	04090003          	lb	zero,64(s2)
    2002:	0100                	addi	s0,sp,128
    2004:	0a05                	addi	s4,s4,1
    2006:	0200                	addi	s0,sp,256
    2008:	0304                	addi	s1,sp,384
    200a:	02090103          	lb	sp,32(s2)
    200e:	0100                	addi	s0,sp,128
    2010:	0505                	addi	a0,a0,1
    2012:	0200                	addi	s0,sp,256
    2014:	0304                	addi	s1,sp,384
    2016:	0a090103          	lb	sp,160(s2)
    201a:	0100                	addi	s0,sp,128
    201c:	1105                	addi	sp,sp,-31
    201e:	0200                	addi	s0,sp,256
    2020:	0304                	addi	s1,sp,384
    2022:	0c090103          	lb	sp,192(s2)
    2026:	0100                	addi	s0,sp,128
    2028:	0e05                	addi	t3,t3,1
    202a:	0200                	addi	s0,sp,256
    202c:	0304                	addi	s1,sp,384
    202e:	06090003          	lb	zero,96(s2)
    2032:	0100                	addi	s0,sp,128
    2034:	0905                	addi	s2,s2,1
    2036:	0200                	addi	s0,sp,256
    2038:	0304                	addi	s1,sp,384
    203a:	06090103          	lb	sp,96(s2)
    203e:	0100                	addi	s0,sp,128
    2040:	2805                	jal	2070 <REGBYTES+0x206c>
    2042:	0200                	addi	s0,sp,256
    2044:	0304                	addi	s1,sp,384
    2046:	08090103          	lb	sp,128(s2)
    204a:	0100                	addi	s0,sp,128
    204c:	0805                	addi	a6,a6,1
    204e:	0200                	addi	s0,sp,256
    2050:	0304                	addi	s1,sp,384
    2052:	08090003          	lb	zero,128(s2)
    2056:	0100                	addi	s0,sp,128
    2058:	0a05                	addi	s4,s4,1
    205a:	0200                	addi	s0,sp,256
    205c:	0304                	addi	s1,sp,384
    205e:	0a090103          	lb	sp,160(s2)
    2062:	0100                	addi	s0,sp,128
    2064:	0e05                	addi	t3,t3,1
    2066:	0200                	addi	s0,sp,256
    2068:	0304                	addi	s1,sp,384
    206a:	0a090003          	lb	zero,160(s2)
    206e:	0100                	addi	s0,sp,128
    2070:	0a05                	addi	s4,s4,1
    2072:	0200                	addi	s0,sp,256
    2074:	0304                	addi	s1,sp,384
    2076:	06090003          	lb	zero,96(s2)
    207a:	0100                	addi	s0,sp,128
    207c:	1c05                	addi	s8,s8,-31
    207e:	0200                	addi	s0,sp,256
    2080:	0304                	addi	s1,sp,384
    2082:	0c097a03          	0xc097a03
    2086:	0100                	addi	s0,sp,128
    2088:	1405                	addi	s0,s0,-31
    208a:	0200                	addi	s0,sp,256
    208c:	0104                	addi	s1,sp,128
    208e:	0a090003          	lb	zero,160(s2)
    2092:	0100                	addi	s0,sp,128
    2094:	0305                	addi	t1,t1,1
    2096:	0200                	addi	s0,sp,256
    2098:	0104                	addi	s1,sp,128
    209a:	06090003          	lb	zero,96(s2)
    209e:	0100                	addi	s0,sp,128
    20a0:	0a05                	addi	s4,s4,1
    20a2:	08090903          	lb	s2,128(s2)
    20a6:	0100                	addi	s0,sp,128
    20a8:	0105                	addi	sp,sp,1
    20aa:	02090103          	lb	sp,32(s2)
    20ae:	0100                	addi	s0,sp,128
    20b0:	0a090303          	lb	t1,160(s2)
    20b4:	0100                	addi	s0,sp,128
    20b6:	0a05                	addi	s4,s4,1
    20b8:	08090303          	lb	t1,128(s2)
    20bc:	0100                	addi	s0,sp,128
    20be:	0305                	addi	t1,t1,1
    20c0:	04090003          	lb	zero,64(s2)
    20c4:	0100                	addi	s0,sp,128
    20c6:	0505                	addi	a0,a0,1
    20c8:	0200                	addi	s0,sp,256
    20ca:	0304                	addi	s1,sp,384
    20cc:	02090103          	lb	sp,32(s2)
    20d0:	0100                	addi	s0,sp,128
    20d2:	2505                	jal	26f2 <REGBYTES+0x26ee>
    20d4:	0200                	addi	s0,sp,256
    20d6:	0304                	addi	s1,sp,384
    20d8:	1a097f03          	0x1a097f03
    20dc:	0100                	addi	s0,sp,128
    20de:	1105                	addi	sp,sp,-31
    20e0:	0200                	addi	s0,sp,256
    20e2:	0104                	addi	s1,sp,128
    20e4:	0a090003          	lb	zero,160(s2)
    20e8:	0100                	addi	s0,sp,128
    20ea:	0305                	addi	t1,t1,1
    20ec:	0200                	addi	s0,sp,256
    20ee:	0104                	addi	s1,sp,128
    20f0:	04090003          	lb	zero,64(s2)
    20f4:	0100                	addi	s0,sp,128
    20f6:	0a05                	addi	s4,s4,1
    20f8:	06090403          	lb	s0,96(s2)
    20fc:	0100                	addi	s0,sp,128
    20fe:	0105                	addi	sp,sp,1
    2100:	02090103          	lb	sp,32(s2)
    2104:	0100                	addi	s0,sp,128
    2106:	0a090303          	lb	t1,160(s2)
    210a:	0100                	addi	s0,sp,128
    210c:	0a05                	addi	s4,s4,1
    210e:	0c090503          	lb	a0,192(s2)
    2112:	0100                	addi	s0,sp,128
    2114:	0305                	addi	t1,t1,1
    2116:	04090003          	lb	zero,64(s2)
    211a:	0100                	addi	s0,sp,128
    211c:	0705                	addi	a4,a4,1
    211e:	02090103          	lb	sp,32(s2)
    2122:	0100                	addi	s0,sp,128
    2124:	1205                	addi	tp,tp,-31
    2126:	1a090203          	lb	tp,416(s2)
    212a:	0100                	addi	s0,sp,128
    212c:	1905                	addi	s2,s2,-31
    212e:	06090003          	lb	zero,96(s2)
    2132:	0100                	addi	s0,sp,128
    2134:	0e05                	addi	t3,t3,1
    2136:	04090003          	lb	zero,64(s2)
    213a:	0100                	addi	s0,sp,128
    213c:	0805                	addi	a6,a6,1
    213e:	04090003          	lb	zero,64(s2)
    2142:	0100                	addi	s0,sp,128
    2144:	0c05                	addi	s8,s8,1
    2146:	04090103          	lb	sp,64(s2)
    214a:	0100                	addi	s0,sp,128
    214c:	0a05                	addi	s4,s4,1
    214e:	06090003          	lb	zero,96(s2)
    2152:	0100                	addi	s0,sp,128
    2154:	0205                	addi	tp,tp,1
    2156:	02090103          	lb	sp,32(s2)
    215a:	0100                	addi	s0,sp,128
    215c:	0905                	addi	s2,s2,1
    215e:	02090103          	lb	sp,32(s2)
    2162:	0100                	addi	s0,sp,128
    2164:	0a05                	addi	s4,s4,1
    2166:	04090303          	lb	t1,64(s2)
    216a:	0100                	addi	s0,sp,128
    216c:	1205                	addi	tp,tp,-31
    216e:	0a090103          	lb	sp,160(s2)
    2172:	0100                	addi	s0,sp,128
    2174:	1805                	addi	a6,a6,-31
    2176:	06090003          	lb	zero,96(s2)
    217a:	0100                	addi	s0,sp,128
    217c:	0f05                	addi	t5,t5,1
    217e:	02090003          	lb	zero,32(s2)
    2182:	0100                	addi	s0,sp,128
    2184:	1005                	c.nop	-31
    2186:	06090103          	lb	sp,96(s2)
    218a:	0100                	addi	s0,sp,128
    218c:	1105                	addi	sp,sp,-31
    218e:	08090603          	lb	a2,128(s2)
    2192:	0100                	addi	s0,sp,128
    2194:	2505                	jal	27b4 <REGBYTES+0x27b0>
    2196:	0200                	addi	s0,sp,256
    2198:	0204                	addi	s1,sp,256
    219a:	08096f03          	0x8096f03
    219e:	0100                	addi	s0,sp,128
    21a0:	1105                	addi	sp,sp,-31
    21a2:	0200                	addi	s0,sp,256
    21a4:	0104                	addi	s1,sp,128
    21a6:	0a090003          	lb	zero,160(s2)
    21aa:	0100                	addi	s0,sp,128
    21ac:	0305                	addi	t1,t1,1
    21ae:	0200                	addi	s0,sp,256
    21b0:	0104                	addi	s1,sp,128
    21b2:	04090003          	lb	zero,64(s2)
    21b6:	0100                	addi	s0,sp,128
    21b8:	06091603          	lh	a2,96(s2)
    21bc:	0100                	addi	s0,sp,128
    21be:	0a05                	addi	s4,s4,1
    21c0:	02090103          	lb	sp,32(s2)
    21c4:	0100                	addi	s0,sp,128
    21c6:	0105                	addi	sp,sp,1
    21c8:	02090103          	lb	sp,32(s2)
    21cc:	0100                	addi	s0,sp,128
    21ce:	0a090303          	lb	t1,160(s2)
    21d2:	0100                	addi	s0,sp,128
    21d4:	0605                	addi	a2,a2,1
    21d6:	0c090603          	lb	a2,192(s2)
    21da:	0100                	addi	s0,sp,128
    21dc:	0a05                	addi	s4,s4,1
    21de:	0a090203          	lb	tp,160(s2)
    21e2:	0100                	addi	s0,sp,128
    21e4:	0305                	addi	t1,t1,1
    21e6:	04090003          	lb	zero,64(s2)
    21ea:	0100                	addi	s0,sp,128
    21ec:	0705                	addi	a4,a4,1
    21ee:	02090103          	lb	sp,32(s2)
    21f2:	0100                	addi	s0,sp,128
    21f4:	0b05                	addi	s6,s6,1
    21f6:	1a090103          	lb	sp,416(s2)
    21fa:	0100                	addi	s0,sp,128
    21fc:	1605                	addi	a2,a2,-31
    21fe:	06090003          	lb	zero,96(s2)
    2202:	0100                	addi	s0,sp,128
    2204:	0805                	addi	a6,a6,1
    2206:	06090003          	lb	zero,96(s2)
    220a:	0100                	addi	s0,sp,128
    220c:	1305                	addi	t1,t1,-31
    220e:	04090203          	lb	tp,64(s2)
    2212:	0100                	addi	s0,sp,128
    2214:	1005                	c.nop	-31
    2216:	06090003          	lb	zero,96(s2)
    221a:	0100                	addi	s0,sp,128
    221c:	0f05                	addi	t5,t5,1
    221e:	06090103          	lb	sp,96(s2)
    2222:	0100                	addi	s0,sp,128
    2224:	0705                	addi	a4,a4,1
    2226:	0a090103          	lb	sp,160(s2)
    222a:	0100                	addi	s0,sp,128
    222c:	2605                	jal	254c <REGBYTES+0x2548>
    222e:	0200                	addi	s0,sp,256
    2230:	0204                	addi	s1,sp,256
    2232:	02097a03          	0x2097a03
    2236:	0100                	addi	s0,sp,128
    2238:	1105                	addi	sp,sp,-31
    223a:	0200                	addi	s0,sp,256
    223c:	0104                	addi	s1,sp,128
    223e:	0a090003          	lb	zero,160(s2)
    2242:	0100                	addi	s0,sp,128
    2244:	0305                	addi	t1,t1,1
    2246:	0200                	addi	s0,sp,256
    2248:	0104                	addi	s1,sp,128
    224a:	04090003          	lb	zero,64(s2)
    224e:	0100                	addi	s0,sp,128
    2250:	06090a03          	lb	s4,96(s2)
    2254:	0100                	addi	s0,sp,128
    2256:	0105                	addi	sp,sp,1
    2258:	02090103          	lb	sp,32(s2)
    225c:	0100                	addi	s0,sp,128
    225e:	0809                	addi	a6,a6,2
    2260:	0000                	unimp
    2262:	0101                	addi	sp,sp,0
    2264:	0556                	slli	a0,a0,0x15
    2266:	0000                	unimp
    2268:	00e80003          	lb	zero,14(a6) # b00e <REGBYTES+0xb00a>
    226c:	0000                	unimp
    226e:	0101                	addi	sp,sp,0
    2270:	000d0efb          	0xd0efb
    2274:	0101                	addi	sp,sp,0
    2276:	0101                	addi	sp,sp,0
    2278:	0000                	unimp
    227a:	0100                	addi	s0,sp,128
    227c:	0000                	unimp
    227e:	2f01                	jal	298e <REGBYTES+0x298a>
    2280:	6f68                	flw	fa0,92(a4)
    2282:	656d                	lui	a0,0x1b
    2284:	6775732f          	0x6775732f
    2288:	2f61                	jal	2a20 <REGBYTES+0x2a1c>
    228a:	2d78                	fld	fa4,216(a0)
    228c:	6f74                	flw	fa3,92(a4)
    228e:	2f736c6f          	jal	s8,38d84 <REGBYTES+0x38d80>
    2292:	6972                	flw	fs2,28(sp)
    2294:	33766373          	csrrsi	t1,mhpmevent23,12
    2298:	2d32                	fld	fs10,264(sp)
    229a:	6968                	flw	fa0,84(a0)
    229c:	6966                	flw	fs2,88(sp)
    229e:	6576                	flw	fa0,92(sp)
    22a0:	2d31                	jal	28bc <REGBYTES+0x28b8>
    22a2:	6c65                	lui	s8,0x19
    22a4:	2f66                	fld	ft10,88(sp)
    22a6:	6972                	flw	fs2,28(sp)
    22a8:	33766373          	csrrsi	t1,mhpmevent23,12
    22ac:	2d32                	fld	fs10,264(sp)
    22ae:	6968                	flw	fa0,84(a0)
    22b0:	6966                	flw	fs2,88(sp)
    22b2:	6576                	flw	fa0,92(sp)
    22b4:	2d31                	jal	28d0 <REGBYTES+0x28cc>
    22b6:	6c65                	lui	s8,0x19
    22b8:	2f66                	fld	ft10,88(sp)
    22ba:	2d737973          	csrrci	s2,0x2d7,6
    22be:	6e69                	lui	t3,0x1a
    22c0:	64756c63          	bltu	a0,t2,2918 <REGBYTES+0x2914>
    22c4:	2f65                	jal	2a7c <REGBYTES+0x2a78>
    22c6:	616d                	addi	sp,sp,240
    22c8:	6e696863          	bltu	s2,t1,29b8 <REGBYTES+0x29b4>
    22cc:	0065                	c.nop	25
    22ce:	6d6f682f          	0x6d6f682f
    22d2:	2f65                	jal	2a8a <REGBYTES+0x2a86>
    22d4:	61677573          	csrrci	a0,0x616,14
    22d8:	742d782f          	0x742d782f
    22dc:	736c6f6f          	jal	t5,c8a12 <REGBYTES+0xc8a0e>
    22e0:	7369722f          	0x7369722f
    22e4:	32337663          	bgeu	t1,gp,2610 <REGBYTES+0x260c>
    22e8:	682d                	lui	a6,0xb
    22ea:	6669                	lui	a2,0x1a
    22ec:	7669                	lui	a2,0xffffa
    22ee:	3165                	jal	1f96 <REGBYTES+0x1f92>
    22f0:	652d                	lui	a0,0xb
    22f2:	666c                	flw	fa1,76(a2)
    22f4:	7369722f          	0x7369722f
    22f8:	32337663          	bgeu	t1,gp,2624 <REGBYTES+0x2620>
    22fc:	682d                	lui	a6,0xb
    22fe:	6669                	lui	a2,0x1a
    2300:	7669                	lui	a2,0xffffa
    2302:	3165                	jal	1faa <REGBYTES+0x1fa6>
    2304:	652d                	lui	a0,0xb
    2306:	666c                	flw	fa1,76(a2)
    2308:	7379732f          	0x7379732f
    230c:	692d                	lui	s2,0xb
    230e:	636e                	flw	ft6,216(sp)
    2310:	756c                	flw	fa1,108(a0)
    2312:	6564                	flw	fs1,76(a0)
    2314:	7379732f          	0x7379732f
    2318:	0000                	unimp
    231a:	736e6f63          	bltu	t3,s6,2a58 <REGBYTES+0x2a54>
    231e:	7264                	flw	fs1,100(a2)
    2320:	2e76                	fld	ft8,344(sp)
    2322:	00000063          	beqz	zero,2322 <REGBYTES+0x231e>
    2326:	5f00                	lw	s0,56(a4)
    2328:	6564                	flw	fs1,76(a0)
    232a:	6166                	flw	ft2,88(sp)
    232c:	6c75                	lui	s8,0x1d
    232e:	5f74                	lw	a3,124(a4)
    2330:	7974                	flw	fa3,116(a0)
    2332:	6570                	flw	fa2,76(a0)
    2334:	00682e73          	csrrs	t3,0x6,a6
    2338:	0001                	nop
    233a:	5f00                	lw	s0,56(a4)
    233c:	69647473          	csrrci	s0,0x696,8
    2340:	746e                	flw	fs0,248(sp)
    2342:	682e                	flw	fa6,200(sp)
    2344:	0200                	addi	s0,sp,256
    2346:	0000                	unimp
    2348:	6564                	flw	fs1,76(a0)
    234a:	6966                	flw	fs2,88(sp)
    234c:	656e                	flw	fa0,216(sp)
    234e:	00682e73          	csrrs	t3,0x6,a6
    2352:	0000                	unimp
    2354:	0000                	unimp
    2356:	0105                	addi	sp,sp,1
    2358:	0500                	addi	s0,sp,640
    235a:	b202                	fsd	ft0,288(sp)
    235c:	001d                	c.nop	7
    235e:	0380                	addi	s0,sp,448
    2360:	011d                	addi	sp,sp,7
    2362:	0305                	addi	t1,t1,1
    2364:	0c090303          	lb	t1,192(s2) # b0c0 <REGBYTES+0xb0bc>
    2368:	0100                	addi	s0,sp,128
    236a:	2505                	jal	298a <REGBYTES+0x2986>
    236c:	06090003          	lb	zero,96(s2)
    2370:	0100                	addi	s0,sp,128
    2372:	0305                	addi	t1,t1,1
    2374:	06090003          	lb	zero,96(s2)
    2378:	0100                	addi	s0,sp,128
    237a:	0705                	addi	a4,a4,1
    237c:	0c090103          	lb	sp,192(s2)
    2380:	0100                	addi	s0,sp,128
    2382:	1105                	addi	sp,sp,-31
    2384:	06090003          	lb	zero,96(s2)
    2388:	0100                	addi	s0,sp,128
    238a:	0a05                	addi	s4,s4,1
    238c:	0a090303          	lb	t1,160(s2)
    2390:	0100                	addi	s0,sp,128
    2392:	0305                	addi	t1,t1,1
    2394:	04090003          	lb	zero,64(s2)
    2398:	0100                	addi	s0,sp,128
    239a:	1d05                	addi	s10,s10,-31
    239c:	0200                	addi	s0,sp,256
    239e:	0304                	addi	s1,sp,384
    23a0:	02090103          	lb	sp,32(s2)
    23a4:	0100                	addi	s0,sp,128
    23a6:	2705                	jal	2ac6 <REGBYTES+0x2ac2>
    23a8:	0200                	addi	s0,sp,256
    23aa:	0304                	addi	s1,sp,384
    23ac:	06090003          	lb	zero,96(s2)
    23b0:	0100                	addi	s0,sp,128
    23b2:	0905                	addi	s2,s2,1
    23b4:	0200                	addi	s0,sp,256
    23b6:	0304                	addi	s1,sp,384
    23b8:	08090003          	lb	zero,128(s2)
    23bc:	0100                	addi	s0,sp,128
    23be:	1305                	addi	t1,t1,-31
    23c0:	0200                	addi	s0,sp,256
    23c2:	0304                	addi	s1,sp,384
    23c4:	06090003          	lb	zero,96(s2)
    23c8:	0100                	addi	s0,sp,128
    23ca:	2705                	jal	2aea <REGBYTES+0x2ae6>
    23cc:	0200                	addi	s0,sp,256
    23ce:	0304                	addi	s1,sp,384
    23d0:	06090003          	lb	zero,96(s2)
    23d4:	0100                	addi	s0,sp,128
    23d6:	1705                	addi	a4,a4,-31
    23d8:	0200                	addi	s0,sp,256
    23da:	0304                	addi	s1,sp,384
    23dc:	04090003          	lb	zero,64(s2)
    23e0:	0100                	addi	s0,sp,128
    23e2:	2405                	jal	2602 <REGBYTES+0x25fe>
    23e4:	0200                	addi	s0,sp,256
    23e6:	0304                	addi	s1,sp,384
    23e8:	04097f03          	0x4097f03
    23ec:	0100                	addi	s0,sp,128
    23ee:	1705                	addi	a4,a4,-31
    23f0:	0200                	addi	s0,sp,256
    23f2:	0104                	addi	s1,sp,128
    23f4:	0a090003          	lb	zero,160(s2)
    23f8:	0100                	addi	s0,sp,128
    23fa:	0305                	addi	t1,t1,1
    23fc:	0200                	addi	s0,sp,256
    23fe:	0104                	addi	s1,sp,128
    2400:	06090003          	lb	zero,96(s2)
    2404:	0100                	addi	s0,sp,128
    2406:	0105                	addi	sp,sp,1
    2408:	08090203          	lb	tp,128(s2)
    240c:	0100                	addi	s0,sp,128
    240e:	0a090403          	lb	s0,160(s2)
    2412:	0100                	addi	s0,sp,128
    2414:	0a05                	addi	s4,s4,1
    2416:	14090303          	lb	t1,320(s2)
    241a:	0100                	addi	s0,sp,128
    241c:	0305                	addi	t1,t1,1
    241e:	04090003          	lb	zero,64(s2)
    2422:	0100                	addi	s0,sp,128
    2424:	0c05                	addi	s8,s8,1
    2426:	02090203          	lb	tp,32(s2)
    242a:	0100                	addi	s0,sp,128
    242c:	0805                	addi	a6,a6,1
    242e:	0e090003          	lb	zero,224(s2)
    2432:	0100                	addi	s0,sp,128
    2434:	0b05                	addi	s6,s6,1
    2436:	06090103          	lb	sp,96(s2)
    243a:	0100                	addi	s0,sp,128
    243c:	1a05                	addi	s4,s4,-31
    243e:	06090003          	lb	zero,96(s2)
    2442:	0100                	addi	s0,sp,128
    2444:	2405                	jal	2664 <REGBYTES+0x2660>
    2446:	06090003          	lb	zero,96(s2)
    244a:	0100                	addi	s0,sp,128
    244c:	1505                	addi	a0,a0,-31
    244e:	0a090003          	lb	zero,160(s2)
    2452:	0100                	addi	s0,sp,128
    2454:	2805                	jal	2484 <REGBYTES+0x2480>
    2456:	02090003          	lb	zero,32(s2)
    245a:	0100                	addi	s0,sp,128
    245c:	2b05                	jal	298c <REGBYTES+0x2988>
    245e:	0200                	addi	s0,sp,256
    2460:	0204                	addi	s1,sp,256
    2462:	06090103          	lb	sp,96(s2)
    2466:	0100                	addi	s0,sp,128
    2468:	0905                	addi	s2,s2,1
    246a:	0200                	addi	s0,sp,256
    246c:	0204                	addi	s1,sp,256
    246e:	0a090003          	lb	zero,160(s2)
    2472:	0100                	addi	s0,sp,128
    2474:	1805                	addi	a6,a6,-31
    2476:	0200                	addi	s0,sp,256
    2478:	0204                	addi	s1,sp,256
    247a:	06090003          	lb	zero,96(s2)
    247e:	0100                	addi	s0,sp,128
    2480:	2205                	jal	25a0 <REGBYTES+0x259c>
    2482:	0200                	addi	s0,sp,256
    2484:	0204                	addi	s1,sp,256
    2486:	06090003          	lb	zero,96(s2)
    248a:	0100                	addi	s0,sp,128
    248c:	1305                	addi	t1,t1,-31
    248e:	0200                	addi	s0,sp,256
    2490:	0204                	addi	s1,sp,256
    2492:	0a090003          	lb	zero,160(s2)
    2496:	0100                	addi	s0,sp,128
    2498:	2b05                	jal	29c8 <REGBYTES+0x29c4>
    249a:	0200                	addi	s0,sp,256
    249c:	0204                	addi	s1,sp,256
    249e:	02090003          	lb	zero,32(s2)
    24a2:	0100                	addi	s0,sp,128
    24a4:	2605                	jal	27c4 <REGBYTES+0x27c0>
    24a6:	0200                	addi	s0,sp,256
    24a8:	0204                	addi	s1,sp,256
    24aa:	04090003          	lb	zero,64(s2)
    24ae:	0100                	addi	s0,sp,128
    24b0:	1905                	addi	s2,s2,-31
    24b2:	0200                	addi	s0,sp,256
    24b4:	0204                	addi	s1,sp,256
    24b6:	04097c03          	0x4097c03
    24ba:	0100                	addi	s0,sp,128
    24bc:	0305                	addi	t1,t1,1
    24be:	0200                	addi	s0,sp,256
    24c0:	0104                	addi	s1,sp,128
    24c2:	0a090003          	lb	zero,160(s2)
    24c6:	0100                	addi	s0,sp,128
    24c8:	0b05                	addi	s6,s6,1
    24ca:	0c090c03          	lb	s8,192(s2)
    24ce:	0100                	addi	s0,sp,128
    24d0:	0605                	addi	a2,a2,1
    24d2:	06090003          	lb	zero,96(s2)
    24d6:	0100                	addi	s0,sp,128
    24d8:	1a05                	addi	s4,s4,-31
    24da:	0200                	addi	s0,sp,256
    24dc:	0104                	addi	s1,sp,128
    24de:	02090003          	lb	zero,32(s2)
    24e2:	0100                	addi	s0,sp,128
    24e4:	1605                	addi	a2,a2,-31
    24e6:	0200                	addi	s0,sp,256
    24e8:	0104                	addi	s1,sp,128
    24ea:	0e090003          	lb	zero,224(s2)
    24ee:	0100                	addi	s0,sp,128
    24f0:	0505                	addi	a0,a0,1
    24f2:	02090103          	lb	sp,32(s2)
    24f6:	0100                	addi	s0,sp,128
    24f8:	0c090103          	lb	sp,192(s2)
    24fc:	0100                	addi	s0,sp,128
    24fe:	0105                	addi	sp,sp,1
    2500:	06090203          	lb	tp,96(s2)
    2504:	0100                	addi	s0,sp,128
    2506:	0a090303          	lb	t1,160(s2)
    250a:	0100                	addi	s0,sp,128
    250c:	0705                	addi	a4,a4,1
    250e:	0c090403          	lb	s0,192(s2)
    2512:	0100                	addi	s0,sp,128
    2514:	0605                	addi	a2,a2,1
    2516:	0e090003          	lb	zero,224(s2)
    251a:	0100                	addi	s0,sp,128
    251c:	0905                	addi	s2,s2,1
    251e:	02090103          	lb	sp,32(s2)
    2522:	0100                	addi	s0,sp,128
    2524:	0705                	addi	a4,a4,1
    2526:	0e090003          	lb	zero,224(s2)
    252a:	0100                	addi	s0,sp,128
    252c:	0b05                	addi	s6,s6,1
    252e:	04090103          	lb	sp,64(s2)
    2532:	0100                	addi	s0,sp,128
    2534:	0805                	addi	a6,a6,1
    2536:	04090003          	lb	zero,64(s2)
    253a:	0100                	addi	s0,sp,128
    253c:	0905                	addi	s2,s2,1
    253e:	06090103          	lb	sp,96(s2)
    2542:	0100                	addi	s0,sp,128
    2544:	0505                	addi	a0,a0,1
    2546:	06090203          	lb	tp,96(s2)
    254a:	0100                	addi	s0,sp,128
    254c:	0d05                	addi	s10,s10,1
    254e:	0e090203          	lb	tp,224(s2)
    2552:	0100                	addi	s0,sp,128
    2554:	0805                	addi	a6,a6,1
    2556:	06090003          	lb	zero,96(s2)
    255a:	0100                	addi	s0,sp,128
    255c:	0d05                	addi	s10,s10,1
    255e:	02090103          	lb	sp,32(s2)
    2562:	0100                	addi	s0,sp,128
    2564:	0a05                	addi	s4,s4,1
    2566:	04090003          	lb	zero,64(s2)
    256a:	0100                	addi	s0,sp,128
    256c:	0605                	addi	a2,a2,1
    256e:	06090203          	lb	tp,96(s2)
    2572:	0100                	addi	s0,sp,128
    2574:	1505                	addi	a0,a0,-31
    2576:	06090003          	lb	zero,96(s2)
    257a:	0100                	addi	s0,sp,128
    257c:	1f05                	addi	t5,t5,-31
    257e:	06090003          	lb	zero,96(s2)
    2582:	0100                	addi	s0,sp,128
    2584:	1005                	c.nop	-31
    2586:	0a090003          	lb	zero,160(s2)
    258a:	0100                	addi	s0,sp,128
    258c:	2305                	jal	2aac <REGBYTES+0x2aa8>
    258e:	02090003          	lb	zero,32(s2)
    2592:	0100                	addi	s0,sp,128
    2594:	0605                	addi	a2,a2,1
    2596:	0a090303          	lb	t1,160(s2)
    259a:	0100                	addi	s0,sp,128
    259c:	1005                	c.nop	-31
    259e:	08090103          	lb	sp,128(s2)
    25a2:	0100                	addi	s0,sp,128
    25a4:	2005                	jal	25c4 <REGBYTES+0x25c0>
    25a6:	06090003          	lb	zero,96(s2)
    25aa:	0100                	addi	s0,sp,128
    25ac:	0205                	addi	tp,tp,1
    25ae:	06090003          	lb	zero,96(s2)
    25b2:	0100                	addi	s0,sp,128
    25b4:	0c090103          	lb	sp,192(s2)
    25b8:	0100                	addi	s0,sp,128
    25ba:	1105                	addi	sp,sp,-31
    25bc:	10090103          	lb	sp,256(s2)
    25c0:	0100                	addi	s0,sp,128
    25c2:	0705                	addi	a4,a4,1
    25c4:	08090503          	lb	a0,128(s2)
    25c8:	0100                	addi	s0,sp,128
    25ca:	0605                	addi	a2,a2,1
    25cc:	0e090003          	lb	zero,224(s2)
    25d0:	0100                	addi	s0,sp,128
    25d2:	0e05                	addi	t3,t3,1
    25d4:	02090103          	lb	sp,32(s2)
    25d8:	0100                	addi	s0,sp,128
    25da:	0805                	addi	a6,a6,1
    25dc:	06090003          	lb	zero,96(s2)
    25e0:	0100                	addi	s0,sp,128
    25e2:	1b05                	addi	s6,s6,-31
    25e4:	0200                	addi	s0,sp,256
    25e6:	0104                	addi	s1,sp,128
    25e8:	02090003          	lb	zero,32(s2)
    25ec:	0100                	addi	s0,sp,128
    25ee:	1305                	addi	t1,t1,-31
    25f0:	0200                	addi	s0,sp,256
    25f2:	0104                	addi	s1,sp,128
    25f4:	06090003          	lb	zero,96(s2)
    25f8:	0100                	addi	s0,sp,128
    25fa:	0705                	addi	a4,a4,1
    25fc:	02090203          	lb	tp,32(s2)
    2600:	0100                	addi	s0,sp,128
    2602:	0e090303          	lb	t1,224(s2)
    2606:	0100                	addi	s0,sp,128
    2608:	0a05                	addi	s4,s4,1
    260a:	06090403          	lb	s0,96(s2)
    260e:	0100                	addi	s0,sp,128
    2610:	0105                	addi	sp,sp,1
    2612:	02090103          	lb	sp,32(s2)
    2616:	0100                	addi	s0,sp,128
    2618:	0a090603          	lb	a2,160(s2)
    261c:	0100                	addi	s0,sp,128
    261e:	0a05                	addi	s4,s4,1
    2620:	08090403          	lb	s0,128(s2)
    2624:	0100                	addi	s0,sp,128
    2626:	0305                	addi	t1,t1,1
    2628:	04090003          	lb	zero,64(s2)
    262c:	0100                	addi	s0,sp,128
    262e:	0a05                	addi	s4,s4,1
    2630:	02090103          	lb	sp,32(s2)
    2634:	0100                	addi	s0,sp,128
    2636:	0d05                	addi	s10,s10,1
    2638:	1a090103          	lb	sp,416(s2)
    263c:	0100                	addi	s0,sp,128
    263e:	0805                	addi	a6,a6,1
    2640:	06090003          	lb	zero,96(s2)
    2644:	0100                	addi	s0,sp,128
    2646:	0b05                	addi	s6,s6,1
    2648:	02090103          	lb	sp,32(s2)
    264c:	0100                	addi	s0,sp,128
    264e:	0a05                	addi	s4,s4,1
    2650:	0e090003          	lb	zero,224(s2)
    2654:	0100                	addi	s0,sp,128
    2656:	0405                	addi	s0,s0,1
    2658:	0200                	addi	s0,sp,256
    265a:	0104                	addi	s1,sp,128
    265c:	02090103          	lb	sp,32(s2)
    2660:	0100                	addi	s0,sp,128
    2662:	2e05                	jal	2992 <REGBYTES+0x298e>
    2664:	0200                	addi	s0,sp,256
    2666:	0104                	addi	s1,sp,128
    2668:	0e097f03          	0xe097f03
    266c:	0100                	addi	s0,sp,128
    266e:	0205                	addi	tp,tp,1
    2670:	02090303          	lb	t1,32(s2)
    2674:	0100                	addi	s0,sp,128
    2676:	2805                	jal	26a6 <REGBYTES+0x26a2>
    2678:	0200                	addi	s0,sp,256
    267a:	0204                	addi	s1,sp,256
    267c:	06097a03          	0x6097a03
    2680:	0100                	addi	s0,sp,128
    2682:	0305                	addi	t1,t1,1
    2684:	0200                	addi	s0,sp,256
    2686:	0104                	addi	s1,sp,128
    2688:	0a090003          	lb	zero,160(s2)
    268c:	0100                	addi	s0,sp,128
    268e:	0105                	addi	sp,sp,1
    2690:	08090903          	lb	s2,128(s2)
    2694:	0100                	addi	s0,sp,128
    2696:	0a090603          	lb	a2,160(s2)
    269a:	0100                	addi	s0,sp,128
    269c:	0305                	addi	t1,t1,1
    269e:	08090103          	lb	sp,128(s2)
    26a2:	0100                	addi	s0,sp,128
    26a4:	0a05                	addi	s4,s4,1
    26a6:	10090203          	lb	tp,256(s2)
    26aa:	0100                	addi	s0,sp,128
    26ac:	0105                	addi	sp,sp,1
    26ae:	02090103          	lb	sp,32(s2)
    26b2:	0100                	addi	s0,sp,128
    26b4:	0a090703          	lb	a4,160(s2)
    26b8:	0100                	addi	s0,sp,128
    26ba:	1205                	addi	tp,tp,-31
    26bc:	1c090103          	lb	sp,448(s2)
    26c0:	0100                	addi	s0,sp,128
    26c2:	0305                	addi	t1,t1,1
    26c4:	08090003          	lb	zero,128(s2)
    26c8:	0100                	addi	s0,sp,128
    26ca:	0505                	addi	a0,a0,1
    26cc:	10091503          	lh	a0,256(s2)
    26d0:	0100                	addi	s0,sp,128
    26d2:	0e05                	addi	t3,t3,1
    26d4:	02096e03          	0x2096e03
    26d8:	0100                	addi	s0,sp,128
    26da:	1a05                	addi	s4,s4,-31
    26dc:	0a090103          	lb	sp,160(s2)
    26e0:	0100                	addi	s0,sp,128
    26e2:	1e05                	addi	t3,t3,-31
    26e4:	0a090003          	lb	zero,160(s2)
    26e8:	0100                	addi	s0,sp,128
    26ea:	1105                	addi	sp,sp,-31
    26ec:	04090003          	lb	zero,64(s2)
    26f0:	0100                	addi	s0,sp,128
    26f2:	1605                	addi	a2,a2,-31
    26f4:	06090103          	lb	sp,96(s2)
    26f8:	0100                	addi	s0,sp,128
    26fa:	1405                	addi	s0,s0,-31
    26fc:	08090003          	lb	zero,128(s2)
    2700:	0100                	addi	s0,sp,128
    2702:	1605                	addi	a2,a2,-31
    2704:	06090103          	lb	sp,96(s2)
    2708:	0100                	addi	s0,sp,128
    270a:	1405                	addi	s0,s0,-31
    270c:	08090003          	lb	zero,128(s2)
    2710:	0100                	addi	s0,sp,128
    2712:	06090103          	lb	sp,96(s2)
    2716:	0100                	addi	s0,sp,128
    2718:	08090103          	lb	sp,128(s2)
    271c:	0100                	addi	s0,sp,128
    271e:	0505                	addi	a0,a0,1
    2720:	08090303          	lb	t1,128(s2)
    2724:	0100                	addi	s0,sp,128
    2726:	0200                	addi	s0,sp,256
    2728:	0104                	addi	s1,sp,128
    272a:	02090403          	lb	s0,32(s2)
    272e:	0100                	addi	s0,sp,128
    2730:	0200                	addi	s0,sp,256
    2732:	0104                	addi	s1,sp,128
    2734:	08090103          	lb	sp,128(s2)
    2738:	0100                	addi	s0,sp,128
    273a:	0200                	addi	s0,sp,256
    273c:	0104                	addi	s1,sp,128
    273e:	18090103          	lb	sp,384(s2)
    2742:	0100                	addi	s0,sp,128
    2744:	0200                	addi	s0,sp,256
    2746:	0104                	addi	s1,sp,128
    2748:	08090103          	lb	sp,128(s2)
    274c:	0100                	addi	s0,sp,128
    274e:	0a05                	addi	s4,s4,1
    2750:	02090603          	lb	a2,32(s2)
    2754:	0100                	addi	s0,sp,128
    2756:	0105                	addi	sp,sp,1
    2758:	02090103          	lb	sp,32(s2)
    275c:	0100                	addi	s0,sp,128
    275e:	0a090303          	lb	t1,160(s2)
    2762:	0100                	addi	s0,sp,128
    2764:	0305                	addi	t1,t1,1
    2766:	10090503          	lb	a0,256(s2)
    276a:	0100                	addi	s0,sp,128
    276c:	02090403          	lb	s0,32(s2)
    2770:	0100                	addi	s0,sp,128
    2772:	0a05                	addi	s4,s4,1
    2774:	0200                	addi	s0,sp,256
    2776:	0104                	addi	s1,sp,128
    2778:	0e090403          	lb	s0,224(s2)
    277c:	0100                	addi	s0,sp,128
    277e:	0e05                	addi	t3,t3,1
    2780:	0200                	addi	s0,sp,256
    2782:	0104                	addi	s1,sp,128
    2784:	16090103          	lb	sp,352(s2)
    2788:	0100                	addi	s0,sp,128
    278a:	0b05                	addi	s6,s6,1
    278c:	0200                	addi	s0,sp,256
    278e:	0104                	addi	s1,sp,128
    2790:	08090003          	lb	zero,128(s2)
    2794:	0100                	addi	s0,sp,128
    2796:	0505                	addi	a0,a0,1
    2798:	0200                	addi	s0,sp,256
    279a:	0104                	addi	s1,sp,128
    279c:	08090103          	lb	sp,128(s2)
    27a0:	0100                	addi	s0,sp,128
    27a2:	0200                	addi	s0,sp,256
    27a4:	0104                	addi	s1,sp,128
    27a6:	32090103          	lb	sp,800(s2)
    27aa:	0100                	addi	s0,sp,128
    27ac:	0805                	addi	a6,a6,1
    27ae:	0200                	addi	s0,sp,256
    27b0:	0104                	addi	s1,sp,128
    27b2:	0a097d03          	0xa097d03
    27b6:	0100                	addi	s0,sp,128
    27b8:	0209                	addi	tp,tp,2
    27ba:	0000                	unimp
    27bc:	0101                	addi	sp,sp,0
    27be:	0000013f 002d0003 	0x2d00030000013f
    27c6:	0000                	unimp
    27c8:	0101                	addi	sp,sp,0
    27ca:	000d0efb          	0xd0efb
    27ce:	0101                	addi	sp,sp,0
    27d0:	0101                	addi	sp,sp,0
    27d2:	0000                	unimp
    27d4:	0100                	addi	s0,sp,128
    27d6:	0000                	unimp
    27d8:	0001                	nop
    27da:	6d6d6f63          	bltu	s10,s6,2eb8 <REGBYTES+0x2eb4>
    27de:	6e61                	lui	t3,0x18
    27e0:	2e64                	fld	fs1,216(a2)
    27e2:	00000063          	beqz	zero,27e2 <REGBYTES+0x27de>
    27e6:	6400                	flw	fs0,8(s0)
    27e8:	6665                	lui	a2,0x19
    27ea:	6e69                	lui	t3,0x1a
    27ec:	7365                	lui	t1,0xffff9
    27ee:	682e                	flw	fa6,200(sp)
    27f0:	0000                	unimp
    27f2:	0000                	unimp
    27f4:	0500                	addi	s0,sp,640
    27f6:	0001                	nop
    27f8:	0205                	addi	tp,tp,1
    27fa:	21ba                	fld	ft3,392(sp)
    27fc:	8000                	0x8000
    27fe:	05010903          	lb	s2,80(sp)
    2802:	09020307          	0x9020307
    2806:	000c                	0xc
    2808:	0501                	addi	a0,a0,0
    280a:	0308                	addi	a0,sp,384
    280c:	0901                	addi	s2,s2,0
    280e:	000a                	c.slli	zero,0x2
    2810:	0501                	addi	a0,a0,0
    2812:	0304                	addi	s1,sp,384
    2814:	0901                	addi	s2,s2,0
    2816:	000c                	0xc
    2818:	0501                	addi	a0,a0,0
    281a:	0308                	addi	a0,sp,384
    281c:	0900                	addi	s0,sp,144
    281e:	0006                	c.slli	zero,0x1
    2820:	0501                	addi	a0,a0,0
    2822:	030e                	slli	t1,t1,0x3
    2824:	0901                	addi	s2,s2,0
    2826:	0008                	0x8
    2828:	0501                	addi	a0,a0,0
    282a:	0304                	addi	s1,sp,384
    282c:	0900                	addi	s0,sp,144
    282e:	0008                	0x8
    2830:	0501                	addi	a0,a0,0
    2832:	030e                	slli	t1,t1,0x3
    2834:	0900                	addi	s0,sp,144
    2836:	0006                	c.slli	zero,0x1
    2838:	0501                	addi	a0,a0,0
    283a:	0308                	addi	a0,sp,384
    283c:	0900                	addi	s0,sp,144
    283e:	0008                	0x8
    2840:	0501                	addi	a0,a0,0
    2842:	09010303          	lb	t1,144(sp)
    2846:	0004                	0x4
    2848:	0501                	addi	a0,a0,0
    284a:	0301                	addi	t1,t1,0
    284c:	0901                	addi	s2,s2,0
    284e:	000c                	0xc
    2850:	0301                	addi	t1,t1,0
    2852:	0906                	slli	s2,s2,0x1
    2854:	000a                	c.slli	zero,0x2
    2856:	0501                	addi	a0,a0,0
    2858:	0309                	addi	t1,t1,2
    285a:	000c0903          	lb	s2,0(s8) # 1d000 <REGBYTES+0x1cffc>
    285e:	0501                	addi	a0,a0,0
    2860:	09010307          	0x9010307
    2864:	000c                	0xc
    2866:	0501                	addi	a0,a0,0
    2868:	0308                	addi	a0,sp,384
    286a:	0901                	addi	s2,s2,0
    286c:	0010                	0x10
    286e:	0501                	addi	a0,a0,0
    2870:	0304                	addi	s1,sp,384
    2872:	0901                	addi	s2,s2,0
    2874:	000c                	0xc
    2876:	0501                	addi	a0,a0,0
    2878:	0308                	addi	a0,sp,384
    287a:	0900                	addi	s0,sp,144
    287c:	0006                	c.slli	zero,0x1
    287e:	0501                	addi	a0,a0,0
    2880:	030a                	slli	t1,t1,0x2
    2882:	0901                	addi	s2,s2,0
    2884:	0008                	0x8
    2886:	0501                	addi	a0,a0,0
    2888:	09000303          	lb	t1,144(zero) # 90 <REGBYTES+0x8c>
    288c:	0006                	c.slli	zero,0x1
    288e:	0301                	addi	t1,t1,0
    2890:	0901                	addi	s2,s2,0
    2892:	000e                	c.slli	zero,0x3
    2894:	0501                	addi	a0,a0,0
    2896:	0301                	addi	t1,t1,0
    2898:	0901                	addi	s2,s2,0
    289a:	0012                	c.slli	zero,0x4
    289c:	0301                	addi	t1,t1,0
    289e:	000a0903          	lb	s2,0(s4)
    28a2:	0501                	addi	a0,a0,0
    28a4:	09040303          	lb	t1,144(s0)
    28a8:	0010                	0x10
    28aa:	0501                	addi	a0,a0,0
    28ac:	0305                	addi	t1,t1,1
    28ae:	0905                	addi	s2,s2,1
    28b0:	0004                	0x4
    28b2:	0301                	addi	t1,t1,0
    28b4:	0902                	c.slli64	s2
    28b6:	000a                	c.slli	zero,0x2
    28b8:	0501                	addi	a0,a0,0
    28ba:	0306                	slli	t1,t1,0x1
    28bc:	0901                	addi	s2,s2,0
    28be:	0012                	c.slli	zero,0x4
    28c0:	0501                	addi	a0,a0,0
    28c2:	030d                	addi	t1,t1,3
    28c4:	0900                	addi	s0,sp,144
    28c6:	000a                	c.slli	zero,0x2
    28c8:	0501                	addi	a0,a0,0
    28ca:	030a                	slli	t1,t1,0x2
    28cc:	0902                	c.slli64	s2
    28ce:	0004                	0x4
    28d0:	0501                	addi	a0,a0,0
    28d2:	0308                	addi	a0,sp,384
    28d4:	0900                	addi	s0,sp,144
    28d6:	0016                	c.slli	zero,0x5
    28d8:	0501                	addi	a0,a0,0
    28da:	09010307          	0x9010307
    28de:	0002                	c.slli64	zero
    28e0:	0301                	addi	t1,t1,0
    28e2:	0901                	addi	s2,s2,0
    28e4:	000a                	c.slli	zero,0x2
    28e6:	0301                	addi	t1,t1,0
    28e8:	0902                	c.slli64	s2
    28ea:	000c                	0xc
    28ec:	0501                	addi	a0,a0,0
    28ee:	0305                	addi	t1,t1,1
    28f0:	000a0903          	lb	s2,0(s4)
    28f4:	0301                	addi	t1,t1,0
    28f6:	0974                	addi	a3,sp,156
    28f8:	000a                	c.slli	zero,0x2
    28fa:	0901                	addi	s2,s2,0
    28fc:	0002                	c.slli64	zero
    28fe:	0100                	addi	s0,sp,128
    2900:	01              	Address 0x0000000000002900 is out of bounds.


Disassembly of section .debug_info:

00000000 <.debug_info>:
       0:	0022                	c.slli	zero,0x8
       2:	0000                	unimp
       4:	0002                	c.slli64	zero
       6:	0000                	unimp
       8:	0000                	unimp
       a:	0104                	addi	s1,sp,128
       c:	0000                	unimp
       e:	0000                	unimp
      10:	0000                	unimp
      12:	8000                	0x8000
      14:	009a                	slli	ra,ra,0x6
      16:	8000                	0x8000
      18:	0000                	unimp
      1a:	0000                	unimp
      1c:	000a                	c.slli	zero,0x2
      1e:	0000                	unimp
      20:	0022                	c.slli	zero,0x8
      22:	0000                	unimp
      24:	8001                	c.srli64	s0
      26:	0022                	c.slli	zero,0x8
      28:	0000                	unimp
      2a:	0002                	c.slli64	zero
      2c:	0014                	0x14
      2e:	0000                	unimp
      30:	0104                	addi	s1,sp,128
      32:	0116                	slli	sp,sp,0x5
      34:	0000                	unimp
      36:	2400                	fld	fs0,8(s0)
      38:	8000                	0x8000
      3a:	31a2                	fld	ft3,40(sp)
      3c:	8000                	0x8000
      3e:	002e                	c.slli	zero,0xb
      40:	0000                	unimp
      42:	000a                	c.slli	zero,0x2
      44:	0000                	unimp
      46:	0022                	c.slli	zero,0x8
      48:	0000                	unimp
      4a:	8001                	c.srli64	s0
      4c:	0154                	addi	a3,sp,132
      4e:	0000                	unimp
      50:	0004                	0x4
      52:	0028                	addi	a0,sp,8
      54:	0000                	unimp
      56:	0104                	addi	s1,sp,128
      58:	0088                	addi	a0,sp,64
      5a:	0000                	unimp
      5c:	510c                	lw	a1,32(a0)
      5e:	0000                	unimp
      60:	0a00                	addi	s0,sp,272
      62:	0000                	unimp
      64:	9a00                	0x9a00
      66:	0000                	unimp
      68:	bc80                	fsd	fs0,56(s1)
      6a:	0000                	unimp
      6c:	7600                	flw	fs0,40(a2)
      6e:	02000003          	lb	zero,32(zero) # 20 <REGBYTES+0x1c>
      72:	0601                	addi	a2,a2,0
      74:	007c                	addi	a5,sp,12
      76:	0000                	unimp
      78:	0102                	c.slli64	sp
      7a:	7a08                	flw	fa0,48(a2)
      7c:	0000                	unimp
      7e:	0200                	addi	s0,sp,256
      80:	0502                	c.slli64	a0
      82:	00fc                	addi	a5,sp,76
      84:	0000                	unimp
      86:	0202                	c.slli64	tp
      88:	0000e907          	0xe907
      8c:	0200                	addi	s0,sp,256
      8e:	0504                	addi	s1,sp,640
      90:	003a                	c.slli	zero,0xe
      92:	0000                	unimp
      94:	0402                	c.slli64	s0
      96:	00006807          	0x6807
      9a:	0200                	addi	s0,sp,256
      9c:	0508                	addi	a0,sp,640
      9e:	0035                	c.nop	13
      a0:	0000                	unimp
      a2:	0802                	c.slli64	a6
      a4:	00006307          	0x6307
      a8:	0300                	addi	s0,sp,384
      aa:	0504                	addi	s1,sp,640
      ac:	6e69                	lui	t3,0x1a
      ae:	0074                	addi	a3,sp,12
      b0:	0402                	c.slli64	s0
      b2:	00006d07          	0x6d07
      b6:	0400                	addi	s0,sp,512
      b8:	7104                	flw	fs1,32(a0)
      ba:	0000                	unimp
      bc:	0400                	addi	s0,sp,512
      be:	7704                	flw	fs1,40(a4)
      c0:	0000                	unimp
      c2:	0200                	addi	s0,sp,256
      c4:	0801                	addi	a6,a6,0
      c6:	00000083          	lb	ra,0(zero) # 0 <REGBYTES-0x4>
      ca:	fe05                	bnez	a2,2 <REGBYTES-0x2>
      cc:	0008                	0x8
      ce:	0100                	addi	s0,sp,128
      d0:	051c                	addi	a5,sp,640
      d2:	005d                	c.nop	23
      d4:	0000                	unimp
      d6:	00fa                	slli	ra,ra,0x1e
      d8:	8000                	0x8000
      da:	005c                	addi	a5,sp,4
      dc:	0000                	unimp
      de:	9c01                	0x9c01
      e0:	0109                	addi	sp,sp,2
      e2:	0000                	unimp
      e4:	0206                	slli	tp,tp,0x1
      e6:	0001                	nop
      e8:	0880                	addi	s0,sp,80
      ea:	0000                	unimp
      ec:	b500                	fsd	fs0,40(a0)
      ee:	0000                	unimp
      f0:	0700                	addi	s0,sp,896
      f2:	0058                	addi	a4,sp,4
      f4:	0000                	unimp
      f6:	2201                	jal	1f6 <REGBYTES+0x1f2>
      f8:	00004803          	lbu	a6,0(zero) # 0 <REGBYTES-0x4>
      fc:	0200                	addi	s0,sp,256
      fe:	6c91                	lui	s9,0x4
     100:	0600                	addi	s0,sp,768
     102:	010a                	slli	sp,sp,0x2
     104:	8000                	0x8000
     106:	0008                	0x8
     108:	0000                	unimp
     10a:	00d2                	slli	ra,ra,0x14
     10c:	0000                	unimp
     10e:	00005807          	0x5807
     112:	0100                	addi	s0,sp,128
     114:	0324                	addi	s1,sp,392
     116:	0048                	addi	a0,sp,4
     118:	0000                	unimp
     11a:	9102                	jalr	sp
     11c:	0068                	addi	a0,sp,12
     11e:	1206                	slli	tp,tp,0x21
     120:	0001                	nop
     122:	0c80                	addi	s0,sp,592
     124:	0000                	unimp
     126:	ef00                	fsw	fs0,24(a4)
     128:	0000                	unimp
     12a:	0700                	addi	s0,sp,896
     12c:	0058                	addi	a4,sp,4
     12e:	0000                	unimp
     130:	2501                	jal	730 <REGBYTES+0x72c>
     132:	00004803          	lbu	a6,0(zero) # 0 <REGBYTES-0x4>
     136:	0200                	addi	s0,sp,256
     138:	6491                	lui	s1,0x4
     13a:	0800                	addi	s0,sp,16
     13c:	011e                	slli	sp,sp,0x7
     13e:	8000                	0x8000
     140:	000e                	c.slli	zero,0x3
     142:	0000                	unimp
     144:	00005807          	0x5807
     148:	0100                	addi	s0,sp,128
     14a:	0326                	slli	t1,t1,0x9
     14c:	0048                	addi	a0,sp,4
     14e:	0000                	unimp
     150:	9102                	jalr	sp
     152:	0060                	addi	s0,sp,12
     154:	0900                	addi	s0,sp,144
     156:	00000043          	fmadd.s	ft0,ft0,ft0,ft0,rne
     15a:	0a01                	addi	s4,s4,0
     15c:	5d0c                	lw	a1,56(a0)
     15e:	0000                	unimp
     160:	9a00                	0x9a00
     162:	0000                	unimp
     164:	6080                	flw	fs0,0(s1)
     166:	0000                	unimp
     168:	0100                	addi	s0,sp,128
     16a:	0a9c                	addi	a5,sp,336
     16c:	005e                	c.slli	zero,0x17
     16e:	0000                	unimp
     170:	0a01                	addi	s4,s4,0
     172:	5d1e                	lw	s10,228(sp)
     174:	0000                	unimp
     176:	0200                	addi	s0,sp,256
     178:	5c91                	li	s9,-28
     17a:	060a                	slli	a2,a2,0x2
     17c:	0001                	nop
     17e:	0100                	addi	s0,sp,128
     180:	2a0a                	fld	fs4,128(sp)
     182:	0000006b          	0x6b
     186:	9102                	jalr	sp
     188:	0858                	addi	a4,sp,20
     18a:	00ec                	addi	a1,sp,76
     18c:	8000                	0x8000
     18e:	0008                	0x8
     190:	0000                	unimp
     192:	00005807          	0x5807
     196:	0100                	addi	s0,sp,128
     198:	0314                	addi	a3,sp,384
     19a:	0048                	addi	a0,sp,4
     19c:	0000                	unimp
     19e:	9102                	jalr	sp
     1a0:	006c                	addi	a1,sp,12
     1a2:	0000                	unimp
     1a4:	0000003f 00c90004 	0xc900040000003f
     1ac:	0000                	unimp
     1ae:	0104                	addi	s1,sp,128
     1b0:	0088                	addi	a0,sp,64
     1b2:	0000                	unimp
     1b4:	0b0c                	addi	a1,sp,400
     1b6:	0001                	nop
     1b8:	0a00                	addi	s0,sp,272
     1ba:	0000                	unimp
     1bc:	5600                	lw	s0,40(a2)
     1be:	0001                	nop
     1c0:	2080                	fld	fs0,0(s1)
     1c2:	0000                	unimp
     1c4:	0d00                	addi	s0,sp,656
     1c6:	0004                	0x4
     1c8:	0200                	addi	s0,sp,256
     1ca:	00000117          	auipc	sp,0x0
     1ce:	0701                	addi	a4,a4,0
     1d0:	3b05                	jal	ffffff00 <bootstack+0x7f6fff00>
     1d2:	0000                	unimp
     1d4:	5600                	lw	s0,40(a2)
     1d6:	0001                	nop
     1d8:	2080                	fld	fs0,0(s1)
     1da:	0000                	unimp
     1dc:	0100                	addi	s0,sp,128
     1de:	039c                	addi	a5,sp,448
     1e0:	0504                	addi	s1,sp,640
     1e2:	6e69                	lui	t3,0x1a
     1e4:	0074                	addi	a3,sp,12
     1e6:	da00                	sw	s0,48(a2)
     1e8:	04000003          	lb	zero,64(zero) # 40 <REGBYTES+0x3c>
     1ec:	0400                	addi	s0,sp,512
     1ee:	0001                	nop
     1f0:	0400                	addi	s0,sp,512
     1f2:	8801                	andi	s0,s0,0
     1f4:	0000                	unimp
     1f6:	0c00                	addi	s0,sp,528
     1f8:	01f2                	slli	gp,gp,0x1c
     1fa:	0000                	unimp
     1fc:	000a                	c.slli	zero,0x2
     1fe:	0000                	unimp
     200:	0176                	slli	sp,sp,0x1d
     202:	8000                	0x8000
     204:	0332                	slli	t1,t1,0xc
     206:	0000                	unimp
     208:	0461                	addi	s0,s0,24
     20a:	0000                	unimp
     20c:	0102                	c.slli64	sp
     20e:	7c06                	flw	fs8,96(sp)
     210:	0000                	unimp
     212:	0200                	addi	s0,sp,256
     214:	0801                	addi	a6,a6,0
     216:	007a                	c.slli	zero,0x1e
     218:	0000                	unimp
     21a:	0202                	c.slli64	tp
     21c:	fc05                	bnez	s0,154 <REGBYTES+0x150>
     21e:	0000                	unimp
     220:	0200                	addi	s0,sp,256
     222:	0702                	c.slli64	a4
     224:	00e9                	addi	ra,ra,26
     226:	0000                	unimp
     228:	00014703          	lbu	a4,0(sp) # 1ca <REGBYTES+0x1c6>
     22c:	0200                	addi	s0,sp,256
     22e:	184d                	addi	a6,a6,-13
     230:	004d                	c.nop	19
     232:	0000                	unimp
     234:	0402                	c.slli64	s0
     236:	3a05                	jal	fffffb66 <bootstack+0x7f6ffb66>
     238:	0000                	unimp
     23a:	0300                	addi	s0,sp,384
     23c:	000001fb          	0x1fb
     240:	4f02                	lw	t5,0(sp)
     242:	6019                	c.lui	zero,0x6
     244:	0000                	unimp
     246:	0200                	addi	s0,sp,256
     248:	0704                	addi	s1,sp,896
     24a:	0068                	addi	a0,sp,12
     24c:	0000                	unimp
     24e:	0802                	c.slli64	a6
     250:	3505                	jal	70 <REGBYTES+0x6c>
     252:	0000                	unimp
     254:	0200                	addi	s0,sp,256
     256:	0708                	addi	a0,sp,896
     258:	00000063          	beqz	zero,258 <REGBYTES+0x254>
     25c:	0404                	addi	s1,sp,512
     25e:	6905                	lui	s2,0x1
     260:	746e                	flw	fs0,248(sp)
     262:	0200                	addi	s0,sp,256
     264:	0704                	addi	s1,sp,896
     266:	006d                	c.nop	27
     268:	0000                	unimp
     26a:	00014903          	lbu	s2,0(sp)
     26e:	0300                	addi	s0,sp,384
     270:	132c                	addi	a1,sp,424
     272:	0041                	c.nop	16
     274:	0000                	unimp
     276:	0001fd03          	0x1fd03
     27a:	0300                	addi	s0,sp,384
     27c:	1430                	addi	a2,sp,552
     27e:	0054                	addi	a3,sp,4
     280:	0000                	unimp
     282:	8f05                	sub	a4,a4,s1
     284:	0000                	unimp
     286:	0200                	addi	s0,sp,256
     288:	0801                	addi	a6,a6,0
     28a:	00000083          	lb	ra,0(zero) # 0 <REGBYTES-0x4>
     28e:	6606                	flw	fa2,64(sp)
     290:	0002                	c.slli64	zero
     292:	1c00                	addi	s0,sp,560
     294:	0f01                	addi	t5,t5,0
     296:	0e08                	addi	a0,sp,784
     298:	0001                	nop
     29a:	0700                	addi	s0,sp,896
     29c:	025f 0000 1001      	0x10010000025f
     2a2:	9b15                	andi	a4,a4,-27
     2a4:	0000                	unimp
     2a6:	0000                	unimp
     2a8:	00019d07          	0x19d07
     2ac:	0100                	addi	s0,sp,128
     2ae:	1511                	addi	a0,a0,-28
     2b0:	0000009b          	0x9b
     2b4:	0704                	addi	s1,sp,896
     2b6:	01ba                	slli	gp,gp,0xe
     2b8:	0000                	unimp
     2ba:	1201                	addi	tp,tp,-32
     2bc:	9b15                	andi	a4,a4,-27
     2be:	0000                	unimp
     2c0:	0800                	addi	s0,sp,16
     2c2:	00020b07          	0x20b07
     2c6:	0100                	addi	s0,sp,128
     2c8:	1514                	addi	a3,sp,672
     2ca:	0000009b          	0x9b
     2ce:	080c                	addi	a1,sp,16
     2d0:	6569                	lui	a0,0x1a
     2d2:	0100                	addi	s0,sp,128
     2d4:	1516                	slli	a0,a0,0x25
     2d6:	0000009b          	0x9b
     2da:	0810                	addi	a2,sp,16
     2dc:	7069                	c.lui	zero,0xffffa
     2de:	0100                	addi	s0,sp,128
     2e0:	009b1517          	auipc	a0,0x9b1
     2e4:	0000                	unimp
     2e6:	0814                	addi	a3,sp,16
     2e8:	6964                	flw	fs1,84(a0)
     2ea:	0076                	c.slli	zero,0x1d
     2ec:	1801                	addi	a6,a6,-32
     2ee:	9b15                	andi	a4,a4,-27
     2f0:	0000                	unimp
     2f2:	1800                	addi	s0,sp,48
     2f4:	0500                	addi	s0,sp,640
     2f6:	000000a7          	0xa7
     2fa:	0409                	addi	s0,s0,2
     2fc:	2e01                	jal	60c <REGBYTES+0x608>
     2fe:	2a08                	fld	fa0,16(a2)
     300:	0001                	nop
     302:	0700                	addi	s0,sp,896
     304:	0270                	addi	a2,sp,268
     306:	0000                	unimp
     308:	2f01                	jal	a18 <REGBYTES+0xa14>
     30a:	00012a23          	sw	zero,20(sp)
     30e:	0000                	unimp
     310:	0a00                	addi	s0,sp,272
     312:	0e04                	addi	s1,sp,784
     314:	0001                	nop
     316:	0b00                	addi	s0,sp,400
     318:	00000113          	li	sp,0
     31c:	0140                	addi	s0,sp,132
     31e:	0000                	unimp
     320:	7c0c                	flw	fa1,56(s0)
     322:	0000                	unimp
     324:	0000                	unimp
     326:	0d00                	addi	s0,sp,656
     328:	0206                	slli	tp,tp,0x1
     32a:	0000                	unimp
     32c:	3001                	jal	fffffb2c <bootstack+0x7f6ffb2c>
     32e:	00013003          	0x13003
     332:	0500                	addi	s0,sp,640
     334:	0032b803          	0x32b803
     338:	0d80                	addi	s0,sp,720
     33a:	0122                	slli	sp,sp,0x8
     33c:	0000                	unimp
     33e:	3401                	jal	fffffd3e <bootstack+0x7f6ffd3e>
     340:	8310                	0x8310
     342:	0000                	unimp
     344:	0500                	addi	s0,sp,640
     346:	0032bc03          	0x32bc03
     34a:	0e80                	addi	s0,sp,848
     34c:	01c1                	addi	gp,gp,16
     34e:	0000                	unimp
     350:	a001                	j	350 <REGBYTES+0x34c>
     352:	7006                	flw	ft0,96(sp)
     354:	0004                	0x4
     356:	3880                	fld	fs0,48(s1)
     358:	0000                	unimp
     35a:	0100                	addi	s0,sp,128
     35c:	999c                	0x999c
     35e:	0001                	nop
     360:	0f00                	addi	s0,sp,912
     362:	00000237          	lui	tp,0x0
     366:	a001                	j	366 <REGBYTES+0x362>
     368:	00007523          	0x7523
     36c:	0200                	addi	s0,sp,256
     36e:	5c91                	li	s9,-28
     370:	700d                	c.lui	zero,0xfffe3
     372:	0002                	c.slli64	zero
     374:	0100                	addi	s0,sp,128
     376:	23a2                	fld	ft7,8(sp)
     378:	012a                	slli	sp,sp,0xa
     37a:	0000                	unimp
     37c:	9102                	jalr	sp
     37e:	006c                	addi	a1,sp,12
     380:	2f0e                	fld	ft10,192(sp)
     382:	0001                	nop
     384:	0100                	addi	s0,sp,128
     386:	069a                	slli	a3,a3,0x6
     388:	0438                	addi	a4,sp,520
     38a:	8000                	0x8000
     38c:	0038                	addi	a4,sp,8
     38e:	0000                	unimp
     390:	9c01                	0x9c01
     392:	01ce                	slli	gp,gp,0x13
     394:	0000                	unimp
     396:	0002370f          	0x2370f
     39a:	0100                	addi	s0,sp,128
     39c:	229a                	fld	ft5,384(sp)
     39e:	0075                	c.nop	29
     3a0:	0000                	unimp
     3a2:	9102                	jalr	sp
     3a4:	0d5c                	addi	a5,sp,660
     3a6:	0270                	addi	a2,sp,268
     3a8:	0000                	unimp
     3aa:	9c01                	0x9c01
     3ac:	00012a23          	sw	zero,20(sp)
     3b0:	0200                	addi	s0,sp,256
     3b2:	6c91                	lui	s9,0x4
     3b4:	1000                	addi	s0,sp,32
     3b6:	0151                	addi	sp,sp,20
     3b8:	0000                	unimp
     3ba:	9401                	srai	s0,s0,0x20
     3bc:	7505                	lui	a0,0xfffe1
     3be:	0000                	unimp
     3c0:	0000                	unimp
     3c2:	0004                	0x4
     3c4:	3880                	fld	fs0,48(s1)
     3c6:	0000                	unimp
     3c8:	0100                	addi	s0,sp,128
     3ca:	079c                	addi	a5,sp,960
     3cc:	0002                	c.slli64	zero
     3ce:	0f00                	addi	s0,sp,912
     3d0:	00000237          	lui	tp,0x0
     3d4:	9401                	srai	s0,s0,0x20
     3d6:	7524                	flw	fs1,104(a0)
     3d8:	0000                	unimp
     3da:	0200                	addi	s0,sp,256
     3dc:	5c91                	li	s9,-28
     3de:	700d                	c.lui	zero,0xfffe3
     3e0:	0002                	c.slli64	zero
     3e2:	0100                	addi	s0,sp,128
     3e4:	2396                	fld	ft7,320(sp)
     3e6:	012a                	slli	sp,sp,0xa
     3e8:	0000                	unimp
     3ea:	9102                	jalr	sp
     3ec:	006c                	addi	a1,sp,12
     3ee:	120e                	slli	tp,tp,0x23
     3f0:	0002                	c.slli64	zero
     3f2:	0100                	addi	s0,sp,128
     3f4:	068e                	slli	a3,a3,0x3
     3f6:	03c8                	addi	a0,sp,452
     3f8:	8000                	0x8000
     3fa:	0038                	addi	a4,sp,8
     3fc:	0000                	unimp
     3fe:	9c01                	0x9c01
     400:	023c                	addi	a5,sp,264
     402:	0000                	unimp
     404:	0002370f          	0x2370f
     408:	0100                	addi	s0,sp,128
     40a:	238e                	fld	ft7,192(sp)
     40c:	0075                	c.nop	29
     40e:	0000                	unimp
     410:	9102                	jalr	sp
     412:	0d5c                	addi	a5,sp,660
     414:	0270                	addi	a2,sp,268
     416:	0000                	unimp
     418:	9001                	srli	s0,s0,0x20
     41a:	00012a23          	sw	zero,20(sp)
     41e:	0200                	addi	s0,sp,256
     420:	6c91                	lui	s9,0x4
     422:	0e00                	addi	s0,sp,784
     424:	01da                	slli	gp,gp,0x16
     426:	0000                	unimp
     428:	8801                	andi	s0,s0,0
     42a:	9006                	c.add	zero,ra
     42c:	38800003          	lb	zero,904(zero) # 388 <REGBYTES+0x384>
     430:	0000                	unimp
     432:	0100                	addi	s0,sp,128
     434:	719c                	flw	fa5,32(a1)
     436:	0002                	c.slli64	zero
     438:	0f00                	addi	s0,sp,912
     43a:	00000237          	lui	tp,0x0
     43e:	8801                	andi	s0,s0,0
     440:	7522                	flw	fa0,40(sp)
     442:	0000                	unimp
     444:	0200                	addi	s0,sp,256
     446:	5c91                	li	s9,-28
     448:	700d                	c.lui	zero,0xfffe3
     44a:	0002                	c.slli64	zero
     44c:	0100                	addi	s0,sp,128
     44e:	238a                	fld	ft7,128(sp)
     450:	012a                	slli	sp,sp,0xa
     452:	0000                	unimp
     454:	9102                	jalr	sp
     456:	006c                	addi	a1,sp,12
     458:	6c10                	flw	fa2,24(s0)
     45a:	0001                	nop
     45c:	0100                	addi	s0,sp,128
     45e:	0582                	c.slli64	a1
     460:	0075                	c.nop	29
     462:	0000                	unimp
     464:	0358                	addi	a4,sp,388
     466:	8000                	0x8000
     468:	0038                	addi	a4,sp,8
     46a:	0000                	unimp
     46c:	9c01                	0x9c01
     46e:	02aa                	slli	t0,t0,0xa
     470:	0000                	unimp
     472:	0002370f          	0x2370f
     476:	0100                	addi	s0,sp,128
     478:	2482                	fld	fs1,0(sp)
     47a:	0075                	c.nop	29
     47c:	0000                	unimp
     47e:	9102                	jalr	sp
     480:	0d5c                	addi	a5,sp,660
     482:	0270                	addi	a2,sp,268
     484:	0000                	unimp
     486:	8401                	c.srai64	s0
     488:	00012a23          	sw	zero,20(sp)
     48c:	0200                	addi	s0,sp,256
     48e:	6c91                	lui	s9,0x4
     490:	1100                	addi	s0,sp,160
     492:	023d                	addi	tp,tp,15
     494:	0000                	unimp
     496:	7501                	lui	a0,0xfffe0
     498:	00002c0f          	0x2c0f
     49c:	1800                	addi	s0,sp,48
     49e:	40800003          	lb	zero,1032(zero) # 408 <REGBYTES+0x404>
     4a2:	0000                	unimp
     4a4:	0100                	addi	s0,sp,128
     4a6:	e19c                	fsw	fa5,0(a1)
     4a8:	0002                	c.slli64	zero
     4aa:	0f00                	addi	s0,sp,912
     4ac:	00000237          	lui	tp,0x0
     4b0:	7501                	lui	a0,0xfffe0
     4b2:	7524                	flw	fs1,104(a0)
     4b4:	0000                	unimp
     4b6:	0200                	addi	s0,sp,256
     4b8:	5c91                	li	s9,-28
     4ba:	6312                	flw	ft6,4(sp)
     4bc:	0100                	addi	s0,sp,128
     4be:	002c1177          	0x2c1177
     4c2:	0000                	unimp
     4c4:	9102                	jalr	sp
     4c6:	8710006f          	j	fff00d36 <bootstack+0x7f600d36>
     4ca:	0001                	nop
     4cc:	0100                	addi	s0,sp,128
     4ce:	00750563          	beq	a0,t2,4d8 <REGBYTES+0x4d4>
     4d2:	0000                	unimp
     4d4:	02b8                	addi	a4,sp,328
     4d6:	8000                	0x8000
     4d8:	0060                	addi	s0,sp,12
     4da:	0000                	unimp
     4dc:	9c01                	0x9c01
     4de:	0329                	addi	t1,t1,10
     4e0:	0000                	unimp
     4e2:	0002370f          	0x2370f
     4e6:	0100                	addi	s0,sp,128
     4e8:	00751f63          	bne	a0,t2,506 <REGBYTES+0x502>
     4ec:	0000                	unimp
     4ee:	9102                	jalr	sp
     4f0:	125c                	addi	a5,sp,292
     4f2:	6176                	flw	ft2,92(sp)
     4f4:	006c                	addi	a1,sp,12
     4f6:	6501                	0x6501
     4f8:	0000830b          	0x830b
     4fc:	0200                	addi	s0,sp,256
     4fe:	6891                	lui	a7,0x4
     500:	700d                	c.lui	zero,0xfffe3
     502:	0002                	c.slli64	zero
     504:	0100                	addi	s0,sp,128
     506:	2366                	fld	ft6,88(sp)
     508:	012a                	slli	sp,sp,0xa
     50a:	0000                	unimp
     50c:	9102                	jalr	sp
     50e:	006c                	addi	a1,sp,12
     510:	4e11                	li	t3,4
     512:	0002                	c.slli64	zero
     514:	0100                	addi	s0,sp,128
     516:	00750557          	0x750557
     51a:	0000                	unimp
     51c:	026e                	slli	tp,tp,0x1b
     51e:	8000                	0x8000
     520:	004a                	c.slli	zero,0x12
     522:	0000                	unimp
     524:	9c01                	0x9c01
     526:	0000036f          	jal	t1,526 <REGBYTES+0x522>
     52a:	0002370f          	0x2370f
     52e:	0100                	addi	s0,sp,128
     530:	00751a57          	0x751a57
     534:	0000                	unimp
     536:	9102                	jalr	sp
     538:	135c                	addi	a5,sp,420
     53a:	0062                	c.slli	zero,0x18
     53c:	5701                	li	a4,-32
     53e:	00002c2f          	amoadd.w	s8,zero,(zero)
     542:	0200                	addi	s0,sp,256
     544:	5b91                	li	s7,-28
     546:	700d                	c.lui	zero,0xfffe3
     548:	0002                	c.slli64	zero
     54a:	0100                	addi	s0,sp,128
     54c:	2359                	jal	ad2 <REGBYTES+0xace>
     54e:	012a                	slli	sp,sp,0xa
     550:	0000                	unimp
     552:	9102                	jalr	sp
     554:	006c                	addi	a1,sp,12
     556:	a410                	fsd	fa2,8(s0)
     558:	0001                	nop
     55a:	0100                	addi	s0,sp,128
     55c:	0551                	addi	a0,a0,20
     55e:	0075                	c.nop	29
     560:	0000                	unimp
     562:	0236                	slli	tp,tp,0xd
     564:	8000                	0x8000
     566:	0038                	addi	a4,sp,8
     568:	0000                	unimp
     56a:	9c01                	0x9c01
     56c:	03a8                	addi	a0,sp,456
     56e:	0000                	unimp
     570:	0002370f          	0x2370f
     574:	0100                	addi	s0,sp,128
     576:	1f51                	addi	t5,t5,-12
     578:	0075                	c.nop	29
     57a:	0000                	unimp
     57c:	9102                	jalr	sp
     57e:	0d5c                	addi	a5,sp,660
     580:	0270                	addi	a2,sp,268
     582:	0000                	unimp
     584:	5301                	li	t1,-32
     586:	00012a23          	sw	zero,20(sp)
     58a:	0200                	addi	s0,sp,256
     58c:	6c91                	lui	s9,0x4
     58e:	1400                	addi	s0,sp,544
     590:	0000022b          	0x22b
     594:	3601                	jal	94 <REGBYTES+0x90>
     596:	7505                	lui	a0,0xfffe1
     598:	0000                	unimp
     59a:	7600                	flw	fs0,40(a2)
     59c:	0001                	nop
     59e:	c080                	sw	s0,0(s1)
     5a0:	0000                	unimp
     5a2:	0100                	addi	s0,sp,128
     5a4:	0f9c                	addi	a5,sp,976
     5a6:	00000237          	lui	tp,0x0
     5aa:	3601                	jal	aa <REGBYTES+0xa6>
     5ac:	7515                	lui	a0,0xfffe5
     5ae:	0000                	unimp
     5b0:	0200                	addi	s0,sp,256
     5b2:	5c91                	li	s9,-28
     5b4:	700d                	c.lui	zero,0xfffe3
     5b6:	0002                	c.slli64	zero
     5b8:	0100                	addi	s0,sp,128
     5ba:	2338                	fld	fa4,64(a4)
     5bc:	012a                	slli	sp,sp,0xa
     5be:	0000                	unimp
     5c0:	9102                	jalr	sp
     5c2:	006c                	addi	a1,sp,12
     5c4:	5900                	lw	s0,48(a0)
     5c6:	0005                	c.nop	1
     5c8:	0400                	addi	s0,sp,512
     5ca:	5900                	lw	s0,48(a0)
     5cc:	0002                	c.slli64	zero
     5ce:	0400                	addi	s0,sp,512
     5d0:	8801                	andi	s0,s0,0
     5d2:	0000                	unimp
     5d4:	0c00                	addi	s0,sp,528
     5d6:	02d0                	addi	a2,sp,324
     5d8:	0000                	unimp
     5da:	000a                	c.slli	zero,0x2
     5dc:	0000                	unimp
     5de:	04a8                	addi	a0,sp,584
     5e0:	8000                	0x8000
     5e2:	05dc                	addi	a5,sp,708
     5e4:	0000                	unimp
     5e6:	000007ab          	0x7ab
     5ea:	0102                	c.slli64	sp
     5ec:	7c06                	flw	fs8,96(sp)
     5ee:	0000                	unimp
     5f0:	0200                	addi	s0,sp,256
     5f2:	0801                	addi	a6,a6,0
     5f4:	007a                	c.slli	zero,0x1e
     5f6:	0000                	unimp
     5f8:	0202                	c.slli64	tp
     5fa:	fc05                	bnez	s0,532 <REGBYTES+0x52e>
     5fc:	0000                	unimp
     5fe:	0200                	addi	s0,sp,256
     600:	0702                	c.slli64	a4
     602:	00e9                	addi	ra,ra,26
     604:	0000                	unimp
     606:	0402                	c.slli64	s0
     608:	3a05                	jal	ffffff38 <bootstack+0x7f6fff38>
     60a:	0000                	unimp
     60c:	0200                	addi	s0,sp,256
     60e:	0704                	addi	s1,sp,896
     610:	0068                	addi	a0,sp,12
     612:	0000                	unimp
     614:	0802                	c.slli64	a6
     616:	3505                	jal	436 <REGBYTES+0x432>
     618:	0000                	unimp
     61a:	0300                	addi	s0,sp,384
     61c:	0320                	addi	s0,sp,392
     61e:	0000                	unimp
     620:	6902                	flw	fs2,0(sp)
     622:	6219                	lui	tp,0x6
     624:	0000                	unimp
     626:	0200                	addi	s0,sp,256
     628:	0708                	addi	a0,sp,896
     62a:	00000063          	beqz	zero,62a <REGBYTES+0x626>
     62e:	0404                	addi	s1,sp,512
     630:	6905                	lui	s2,0x1
     632:	746e                	flw	fs0,248(sp)
     634:	0200                	addi	s0,sp,256
     636:	0704                	addi	s1,sp,896
     638:	006d                	c.nop	27
     63a:	0000                	unimp
     63c:	00032203          	lw	tp,0(t1) # ffff9000 <bootstack+0x7f6f9000>
     640:	0300                	addi	s0,sp,384
     642:	143c                	addi	a5,sp,552
     644:	0056                	c.slli	zero,0x15
     646:	0000                	unimp
     648:	7705                	lui	a4,0xfffe1
     64a:	0000                	unimp
     64c:	0600                	addi	s0,sp,768
     64e:	8e04                	0x8e04
     650:	0000                	unimp
     652:	0200                	addi	s0,sp,256
     654:	0801                	addi	a6,a6,0
     656:	00000083          	lb	ra,0(zero) # 0 <REGBYTES-0x4>
     65a:	00008e07          	0x8e07
     65e:	0800                	addi	s0,sp,16
     660:	000002a7          	0x2a7
     664:	5901                	li	s2,-32
     666:	00008313          	mv	t1,ra
     66a:	4000                	lw	s0,0(s0)
     66c:	0305                	addi	t1,t1,1
     66e:	3680                	fld	fs0,40(a3)
     670:	8000                	0x8000
     672:	2b08                	fld	fa0,16(a4)
     674:	01000003          	lb	zero,16(zero) # 10 <REGBYTES+0xc>
     678:	135a                	slli	t1,t1,0x36
     67a:	00000083          	lb	ra,0(zero) # 0 <REGBYTES-0x4>
     67e:	0540                	addi	s0,sp,644
     680:	0036c003          	lbu	zero,3(a3)
     684:	0980                	addi	s0,sp,208
     686:	0000033b          	0x33b
     68a:	b401                	j	8a <REGBYTES+0x86>
     68c:	6905                	lui	s2,0x1
     68e:	0000                	unimp
     690:	e000                	fsw	fs0,0(s0)
     692:	0009                	c.nop	2
     694:	a480                	fsd	fs0,8(s1)
     696:	0000                	unimp
     698:	0100                	addi	s0,sp,128
     69a:	159c                	addi	a5,sp,736
     69c:	0001                	nop
     69e:	0a00                	addi	s0,sp,272
     6a0:	02a1                	addi	t0,t0,8
     6a2:	0000                	unimp
     6a4:	b401                	j	a4 <REGBYTES+0xa0>
     6a6:	0000481b          	0x481b
     6aa:	0200                	addi	s0,sp,256
     6ac:	5c91                	li	s9,-28
     6ae:	850a                	mv	a0,sp
     6b0:	0002                	c.slli64	zero
     6b2:	0100                	addi	s0,sp,128
     6b4:	26b4                	fld	fa3,72(a3)
     6b6:	0069                	c.nop	26
     6b8:	0000                	unimp
     6ba:	9102                	jalr	sp
     6bc:	0b58                	addi	a4,sp,404
     6be:	7562                	flw	fa0,56(sp)
     6c0:	0066                	c.slli	zero,0x19
     6c2:	b601                	j	1c2 <REGBYTES+0x1be>
     6c4:	1508                	addi	a0,sp,672
     6c6:	0001                	nop
     6c8:	0200                	addi	s0,sp,256
     6ca:	6091                	lui	ra,0x4
     6cc:	0100700b          	0x100700b
     6d0:	008809b7          	lui	s3,0x880
     6d4:	0000                	unimp
     6d6:	9102                	jalr	sp
     6d8:	006c                	addi	a1,sp,12
     6da:	8e0c                	0x8e0c
     6dc:	0000                	unimp
     6de:	2500                	fld	fs0,8(a0)
     6e0:	0001                	nop
     6e2:	0d00                	addi	s0,sp,656
     6e4:	0070                	addi	a2,sp,12
     6e6:	0000                	unimp
     6e8:	0008                	0x8
     6ea:	cb09                	beqz	a4,6fc <REGBYTES+0x6f8>
     6ec:	0002                	c.slli64	zero
     6ee:	0100                	addi	s0,sp,128
     6f0:	05a4                	addi	s1,sp,712
     6f2:	0069                	c.nop	26
     6f4:	0000                	unimp
     6f6:	0988                	addi	a0,sp,208
     6f8:	8000                	0x8000
     6fa:	0058                	addi	a4,sp,4
     6fc:	0000                	unimp
     6fe:	9c01                	0x9c01
     700:	0169                	addi	sp,sp,26
     702:	0000                	unimp
     704:	620e                	flw	ft4,192(sp)
     706:	6675                	lui	a2,0x1d
     708:	0100                	addi	s0,sp,128
     70a:	19a4                	addi	s1,sp,248
     70c:	0169                	addi	sp,sp,26
     70e:	0000                	unimp
     710:	9102                	jalr	sp
     712:	0b5c                	addi	a5,sp,404
     714:	0069                	c.nop	26
     716:	a601                	j	a16 <REGBYTES+0xa12>
     718:	00006907          	0x6907
     71c:	0200                	addi	s0,sp,256
     71e:	6c91                	lui	s9,0x4
     720:	0100630b          	0x100630b
     724:	002c11a7          	0x2c11a7
     728:	0000                	unimp
     72a:	9102                	jalr	sp
     72c:	0406006b          	0x406006b
     730:	002c                	addi	a1,sp,8
     732:	0000                	unimp
     734:	1509                	addi	a0,a0,-30
     736:	01000003          	lb	zero,16(zero) # 10 <REGBYTES+0xc>
     73a:	0692                	slli	a3,a3,0x4
     73c:	0069                	c.nop	26
     73e:	0000                	unimp
     740:	08e4                	addi	s1,sp,92
     742:	8000                	0x8000
     744:	00a4                	addi	s1,sp,72
     746:	0000                	unimp
     748:	9c01                	0x9c01
     74a:	01ff                	0x1ff
     74c:	0000                	unimp
     74e:	730e                	flw	ft6,224(sp)
     750:	7274                	flw	fa3,100(a2)
     752:	0100                	addi	s0,sp,128
     754:	1d92                	slli	s11,s11,0x24
     756:	01ff                	0x1ff
     758:	0000                	unimp
     75a:	9102                	jalr	sp
     75c:	0f5c                	addi	a5,sp,916
     75e:	02d6                	slli	t0,t0,0x15
     760:	0000                	unimp
     762:	9501                	srai	a0,a0,0x20
     764:	6905                	lui	s2,0x1
     766:	0000                	unimp
     768:	0200                	addi	s0,sp,256
     76a:	6491                	lui	s1,0x4
     76c:	6c61760b          	0x6c61760b
     770:	0100                	addi	s0,sp,128
     772:	0c96                	slli	s9,s9,0x5
     774:	0205                	addi	tp,tp,1
     776:	0000                	unimp
     778:	0305                	addi	t1,t1,1
     77a:	32c8                	fld	fa0,160(a3)
     77c:	8000                	0x8000
     77e:	1610                	addi	a2,sp,800
     780:	0009                	c.nop	2
     782:	6480                	flw	fs0,8(s1)
     784:	0000                	unimp
     786:	0b00                	addi	s0,sp,400
     788:	006a                	c.slli	zero,0x1a
     78a:	9901                	andi	a0,a0,-32
     78c:	6909                	lui	s2,0x2
     78e:	0000                	unimp
     790:	0200                	addi	s0,sp,256
     792:	6c91                	lui	s9,0x4
     794:	1c10                	addi	a2,sp,560
     796:	0009                	c.nop	2
     798:	4c80                	lw	s0,24(s1)
     79a:	0000                	unimp
     79c:	0b00                	addi	s0,sp,400
     79e:	0069                	c.nop	26
     7a0:	9a01                	andi	a2,a2,-32
     7a2:	6909                	lui	s2,0x2
     7a4:	0000                	unimp
     7a6:	0200                	addi	s0,sp,256
     7a8:	6891                	lui	a7,0x4
     7aa:	2210                	fld	fa2,0(a2)
     7ac:	0009                	c.nop	2
     7ae:	2e80                	fld	fs0,24(a3)
     7b0:	0000                	unimp
     7b2:	0b00                	addi	s0,sp,400
     7b4:	006a                	c.slli	zero,0x1a
     7b6:	9b01                	andi	a4,a4,-32
     7b8:	00006907          	0x6907
     7bc:	0200                	addi	s0,sp,256
     7be:	6091                	lui	ra,0x4
     7c0:	0000                	unimp
     7c2:	0000                	unimp
     7c4:	0406                	slli	s0,s0,0x1
     7c6:	0095                	addi	ra,ra,5
     7c8:	0000                	unimp
     7ca:	690c                	flw	fa1,16(a0)
     7cc:	0000                	unimp
     7ce:	1500                	addi	s0,sp,672
     7d0:	0002                	c.slli64	zero
     7d2:	0d00                	addi	s0,sp,656
     7d4:	0070                	addi	a2,sp,12
     7d6:	0000                	unimp
     7d8:	f8090063          	beqz	s2,ffffff58 <bootstack+0x7f6fff58>
     7dc:	0002                	c.slli64	zero
     7de:	0100                	addi	s0,sp,128
     7e0:	058a                	slli	a1,a1,0x2
     7e2:	0069                	c.nop	26
     7e4:	0000                	unimp
     7e6:	08ac                	addi	a1,sp,88
     7e8:	8000                	0x8000
     7ea:	0038                	addi	a4,sp,8
     7ec:	0000                	unimp
     7ee:	9c01                	0x9c01
     7f0:	0000023f 7274730e 	0x7274730e0000023f
     7f8:	0100                	addi	s0,sp,128
     7fa:	168a                	slli	a3,a3,0x22
     7fc:	01ff                	0x1ff
     7fe:	0000                	unimp
     800:	9102                	jalr	sp
     802:	006c                	addi	a1,sp,12
     804:	8009                	srli	s0,s0,0x2
     806:	0002                	c.slli64	zero
     808:	0100                	addi	s0,sp,128
     80a:	0f82                	c.slli64	t6
     80c:	002c                	addi	a1,sp,8
     80e:	0000                	unimp
     810:	086e                	slli	a6,a6,0x1b
     812:	8000                	0x8000
     814:	003e                	c.slli	zero,0xf
     816:	0000                	unimp
     818:	9c01                	0x9c01
     81a:	00000267          	jalr	tp,zero # 0 <REGBYTES-0x4>
     81e:	0100630b          	0x100630b
     822:	1184                	addi	s1,sp,224
     824:	002c                	addi	a1,sp,8
     826:	0000                	unimp
     828:	9102                	jalr	sp
     82a:	e209006f          	j	fff90e4a <bootstack+0x7f690e4a>
     82e:	0002                	c.slli64	zero
     830:	0100                	addi	s0,sp,128
     832:	057a                	slli	a0,a0,0x1e
     834:	0069                	c.nop	26
     836:	0000                	unimp
     838:	083a                	slli	a6,a6,0xe
     83a:	8000                	0x8000
     83c:	0034                	addi	a3,sp,8
     83e:	0000                	unimp
     840:	9c01                	0x9c01
     842:	0000028f          	0x28f
     846:	630e                	flw	ft6,192(sp)
     848:	0100                	addi	s0,sp,128
     84a:	0f7a                	slli	t5,t5,0x1e
     84c:	008e                	slli	ra,ra,0x3
     84e:	0000                	unimp
     850:	9102                	jalr	sp
     852:	e709006f          	j	fff90ec2 <bootstack+0x7f690ec2>
     856:	0002                	c.slli64	zero
     858:	0100                	addi	s0,sp,128
     85a:	0a66                	slli	s4,s4,0x19
     85c:	00000077          	0x77
     860:	079e                	slli	a5,a5,0x7
     862:	8000                	0x8000
     864:	009c                	addi	a5,sp,64
     866:	0000                	unimp
     868:	9c01                	0x9c01
     86a:	02fa                	slli	t0,t0,0x1e
     86c:	0000                	unimp
     86e:	8c0a                	mv	s8,sp
     870:	0002                	c.slli64	zero
     872:	0100                	addi	s0,sp,128
     874:	2066                	fld	ft0,88(sp)
     876:	0041                	c.nop	16
     878:	0000                	unimp
     87a:	7eec9103          	lh	sp,2030(s9) # 47ee <REGBYTES+0x47ea>
     87e:	ae0a                	fsd	ft2,280(sp)
     880:	0002                	c.slli64	zero
     882:	0100                	addi	s0,sp,128
     884:	2c66                	fld	fs8,88(sp)
     886:	0041                	c.nop	16
     888:	0000                	unimp
     88a:	7ee89103          	lh	sp,2030(a7) # 47ee <REGBYTES+0x47ea>
     88e:	b30a                	fsd	ft2,416(sp)
     890:	0002                	c.slli64	zero
     892:	0100                	addi	s0,sp,128
     894:	3766                	fld	fa4,120(sp)
     896:	0041                	c.nop	16
     898:	0000                	unimp
     89a:	7ee49103          	lh	sp,2030(s1) # 47ee <REGBYTES+0x47ea>
     89e:	b80a                	fsd	ft2,48(sp)
     8a0:	0002                	c.slli64	zero
     8a2:	0100                	addi	s0,sp,128
     8a4:	4266                	lw	tp,88(sp)
     8a6:	0041                	c.nop	16
     8a8:	0000                	unimp
     8aa:	7ee09103          	lh	sp,2030(ra) # 47ee <REGBYTES+0x47ea>
     8ae:	fd11                	bnez	a0,7ca <REGBYTES+0x7c6>
     8b0:	0002                	c.slli64	zero
     8b2:	0100                	addi	s0,sp,128
     8b4:	1468                	addi	a0,sp,556
     8b6:	030a                	slli	t1,t1,0x2
     8b8:	0000                	unimp
     8ba:	0240                	addi	s0,sp,260
     8bc:	0079                	c.nop	30
     8be:	0c00                	addi	s0,sp,528
     8c0:	00000083          	lb	ra,0(zero) # 0 <REGBYTES-0x4>
     8c4:	030a                	slli	t1,t1,0x2
     8c6:	0000                	unimp
     8c8:	700d                	c.lui	zero,0xfffe3
     8ca:	0000                	unimp
     8cc:	0700                	addi	s0,sp,896
     8ce:	0500                	addi	s0,sp,640
     8d0:	02fa                	slli	t0,t0,0x1e
     8d2:	0000                	unimp
     8d4:	7512                	flw	fa0,36(sp)
     8d6:	0002                	c.slli64	zero
     8d8:	0100                	addi	s0,sp,128
     8da:	0a5c                	addi	a5,sp,276
     8dc:	00000077          	0x77
     8e0:	0768                	addi	a0,sp,908
     8e2:	8000                	0x8000
     8e4:	0036                	c.slli	zero,0xd
     8e6:	0000                	unimp
     8e8:	9c01                	0x9c01
     8ea:	0348                	addi	a0,sp,388
     8ec:	0000                	unimp
     8ee:	760e                	flw	fa2,224(sp)
     8f0:	6c61                	lui	s8,0x18
     8f2:	0100                	addi	s0,sp,128
     8f4:	1a5c                	addi	a5,sp,308
     8f6:	0041                	c.nop	16
     8f8:	0000                	unimp
     8fa:	9102                	jalr	sp
     8fc:	0b5c                	addi	a5,sp,404
     8fe:	6572                	flw	fa0,28(sp)
     900:	0074                	addi	a3,sp,12
     902:	5e01                	li	t3,-32
     904:	0000770b          	0x770b
     908:	0200                	addi	s0,sp,256
     90a:	6891                	lui	a7,0x4
     90c:	1200                	addi	s0,sp,288
     90e:	0299                	addi	t0,t0,6
     910:	0000                	unimp
     912:	4b01                	li	s6,0
     914:	6905                	lui	s2,0x1
     916:	0000                	unimp
     918:	e000                	fsw	fs0,0(s0)
     91a:	0006                	c.slli	zero,0x1
     91c:	8880                	0x8880
     91e:	0000                	unimp
     920:	0100                	addi	s0,sp,128
     922:	8e9c                	0x8e9c
     924:	0e000003          	lb	zero,224(zero) # e0 <REGBYTES+0xdc>
     928:	01003173          	csrrc	sp,0x10,zero
     92c:	01ff194b          	fnmsub.s	fs2,ft10,ft11,ft0,rtz
     930:	0000                	unimp
     932:	9102                	jalr	sp
     934:	0e6c                	addi	a1,sp,796
     936:	01003273          	csrrc	tp,0x10,zero
     93a:	01ff294b          	fnmsub.s	fs2,ft10,ft11,ft0,rdn
     93e:	0000                	unimp
     940:	9102                	jalr	sp
     942:	0e68                	addi	a0,sp,796
     944:	656c                	flw	fa1,76(a0)
     946:	006e                	c.slli	zero,0x1b
     948:	4b01                	li	s6,0
     94a:	6931                	lui	s2,0xc
     94c:	0000                	unimp
     94e:	0200                	addi	s0,sp,256
     950:	6491                	lui	s1,0x4
     952:	1200                	addi	s0,sp,288
     954:	0334                	addi	a3,sp,392
     956:	0000                	unimp
     958:	3e01                	jal	468 <REGBYTES+0x464>
     95a:	6905                	lui	s2,0x1
     95c:	0000                	unimp
     95e:	6e00                	flw	fs0,24(a2)
     960:	0006                	c.slli	zero,0x1
     962:	7280                	flw	fs0,32(a3)
     964:	0000                	unimp
     966:	0100                	addi	s0,sp,128
     968:	c59c                	sw	a5,8(a1)
     96a:	0e000003          	lb	zero,224(zero) # e0 <REGBYTES+0xdc>
     96e:	01003173          	csrrc	sp,0x10,zero
     972:	183e                	slli	a6,a6,0x2f
     974:	01ff                	0x1ff
     976:	0000                	unimp
     978:	9102                	jalr	sp
     97a:	0e6c                	addi	a1,sp,796
     97c:	01003273          	csrrc	tp,0x10,zero
     980:	283e                	fld	fa6,456(sp)
     982:	01ff                	0x1ff
     984:	0000                	unimp
     986:	9102                	jalr	sp
     988:	0068                	addi	a0,sp,12
     98a:	0e12                	slli	t3,t3,0x4
     98c:	01000003          	lb	zero,16(zero) # 10 <REGBYTES+0xc>
     990:	00880733          	add	a4,a6,s0
     994:	0000                	unimp
     996:	061a                	slli	a2,a2,0x6
     998:	8000                	0x8000
     99a:	0054                	addi	a3,sp,4
     99c:	0000                	unimp
     99e:	9c01                	0x9c01
     9a0:	0000040b          	0x40b
     9a4:	640e                	flw	fs0,192(sp)
     9a6:	01007473          	csrrci	s0,0x10,0
     9aa:	00881433          	sll	s0,a6,s0
     9ae:	0000                	unimp
     9b0:	9102                	jalr	sp
     9b2:	0e5c                	addi	a5,sp,788
     9b4:	00637273          	csrrci	tp,0x6,6
     9b8:	3301                	jal	6b8 <REGBYTES+0x6b4>
     9ba:	ff25                	bnez	a4,932 <REGBYTES+0x92e>
     9bc:	0001                	nop
     9be:	0200                	addi	s0,sp,256
     9c0:	5891                	li	a7,-28
     9c2:	0100640b          	0x100640b
     9c6:	0935                	addi	s2,s2,13
     9c8:	0088                	addi	a0,sp,64
     9ca:	0000                	unimp
     9cc:	9102                	jalr	sp
     9ce:	006c                	addi	a1,sp,12
     9d0:	0712                	slli	a4,a4,0x4
     9d2:	01000003          	lb	zero,16(zero) # 10 <REGBYTES+0xc>
     9d6:	052a                	slli	a0,a0,0xa
     9d8:	0069                	c.nop	26
     9da:	0000                	unimp
     9dc:	05e0                	addi	s0,sp,716
     9de:	8000                	0x8000
     9e0:	003a                	c.slli	zero,0xe
     9e2:	0000                	unimp
     9e4:	9c01                	0x9c01
     9e6:	0442                	slli	s0,s0,0x10
     9e8:	0000                	unimp
     9ea:	730e                	flw	ft6,224(sp)
     9ec:	0100                	addi	s0,sp,128
     9ee:	192a                	slli	s2,s2,0x2a
     9f0:	01ff                	0x1ff
     9f2:	0000                	unimp
     9f4:	9102                	jalr	sp
     9f6:	0b5c                	addi	a5,sp,404
     9f8:	656c                	flw	fa1,76(a0)
     9fa:	006e                	c.slli	zero,0x1b
     9fc:	2c01                	jal	c0c <REGBYTES+0xc08>
     9fe:	00006907          	0x6907
     a02:	0200                	addi	s0,sp,256
     a04:	6c91                	lui	s9,0x4
     a06:	1200                	addi	s0,sp,288
     a08:	02bd                	addi	t0,t0,15
     a0a:	0000                	unimp
     a0c:	1a01                	addi	s4,s4,-32
     a0e:	6905                	lui	s2,0x1
     a10:	0000                	unimp
     a12:	5c00                	lw	s0,56(s0)
     a14:	0005                	c.nop	1
     a16:	8480                	0x8480
     a18:	0000                	unimp
     a1a:	0100                	addi	s0,sp,128
     a1c:	a49c                	fsd	fa5,8(s1)
     a1e:	0004                	0x4
     a20:	0e00                	addi	s0,sp,784
     a22:	3162                	fld	ft2,56(sp)
     a24:	0100                	addi	s0,sp,128
     a26:	181a                	slli	a6,a6,0x26
     a28:	04a4                	addi	s1,sp,584
     a2a:	0000                	unimp
     a2c:	9102                	jalr	sp
     a2e:	0e5c                	addi	a5,sp,788
     a30:	3262                	fld	ft4,56(sp)
     a32:	0100                	addi	s0,sp,128
     a34:	281a                	fld	fa6,384(sp)
     a36:	04a4                	addi	s1,sp,584
     a38:	0000                	unimp
     a3a:	9102                	jalr	sp
     a3c:	0e58                	addi	a4,sp,788
     a3e:	656c                	flw	fa1,76(a0)
     a40:	006e                	c.slli	zero,0x1b
     a42:	1a01                	addi	s4,s4,-32
     a44:	4131                	li	sp,12
     a46:	0000                	unimp
     a48:	0200                	addi	s0,sp,256
     a4a:	5491                	li	s1,-28
     a4c:	0031700b          	0x31700b
     a50:	1c01                	addi	s8,s8,-32
     a52:	0001ff0f          	0x1ff0f
     a56:	0200                	addi	s0,sp,256
     a58:	6c91                	lui	s9,0x4
     a5a:	0032700b          	0x32700b
     a5e:	1c01                	addi	s8,s8,-32
     a60:	ff19                	bnez	a4,97e <REGBYTES+0x97a>
     a62:	0001                	nop
     a64:	0200                	addi	s0,sp,256
     a66:	6891                	lui	a7,0x4
     a68:	0600                	addi	s0,sp,768
     a6a:	aa04                	fsd	fs1,16(a2)
     a6c:	0004                	0x4
     a6e:	1300                	addi	s0,sp,416
     a70:	9212                	add	tp,tp,tp
     a72:	0002                	c.slli64	zero
     a74:	0100                	addi	s0,sp,128
     a76:	0710                	addi	a2,sp,896
     a78:	050d                	addi	a0,a0,3
     a7a:	0000                	unimp
     a7c:	04fa                	slli	s1,s1,0x1e
     a7e:	8000                	0x8000
     a80:	0062                	c.slli	zero,0x18
     a82:	0000                	unimp
     a84:	9c01                	0x9c01
     a86:	050d                	addi	a0,a0,3
     a88:	0000                	unimp
     a8a:	640e                	flw	fs0,192(sp)
     a8c:	01007473          	csrrci	s0,0x10,0
     a90:	1410                	addi	a2,sp,544
     a92:	050d                	addi	a0,a0,3
     a94:	0000                	unimp
     a96:	9102                	jalr	sp
     a98:	0e5c                	addi	a5,sp,788
     a9a:	00637273          	csrrci	tp,0x6,6
     a9e:	1001                	c.nop	-32
     aa0:	a425                	j	cc8 <REGBYTES+0xcc4>
     aa2:	0004                	0x4
     aa4:	0200                	addi	s0,sp,256
     aa6:	5891                	li	a7,-28
     aa8:	6c0e                	flw	fs8,192(sp)
     aaa:	6e65                	lui	t3,0x19
     aac:	0100                	addi	s0,sp,128
     aae:	2f10                	fld	fa2,24(a4)
     ab0:	0041                	c.nop	16
     ab2:	0000                	unimp
     ab4:	9102                	jalr	sp
     ab6:	0b54                	addi	a3,sp,404
     ab8:	0064                	addi	s1,sp,12
     aba:	1201                	addi	tp,tp,-32
     abc:	8809                	andi	s0,s0,2
     abe:	0000                	unimp
     ac0:	0200                	addi	s0,sp,256
     ac2:	6c91                	lui	s9,0x4
     ac4:	0100730b          	0x100730b
     ac8:	01ff0f13          	addi	t5,t5,31
     acc:	0000                	unimp
     ace:	9102                	jalr	sp
     ad0:	0068                	addi	a0,sp,12
     ad2:	0414                	addi	a3,sp,512
     ad4:	c415                	beqz	s0,b00 <REGBYTES+0xafc>
     ad6:	0002                	c.slli64	zero
     ad8:	0100                	addi	s0,sp,128
     ada:	050d0707          	0x50d0707
     ade:	0000                	unimp
     ae0:	04a8                	addi	a0,sp,584
     ae2:	8000                	0x8000
     ae4:	0052                	c.slli	zero,0x14
     ae6:	0000                	unimp
     ae8:	9c01                	0x9c01
     aea:	620e                	flw	ft4,192(sp)
     aec:	0100                	addi	s0,sp,128
     aee:	050d1407          	0x50d1407
     af2:	0000                	unimp
     af4:	9102                	jalr	sp
     af6:	0e5c                	addi	a5,sp,788
     af8:	07010063          	beq	sp,a6,b58 <REGBYTES+0xb54>
     afc:	0000691b          	0x691b
     b00:	0200                	addi	s0,sp,256
     b02:	5891                	li	a7,-28
     b04:	6c0e                	flw	fs8,192(sp)
     b06:	6e65                	lui	t3,0x19
     b08:	0100                	addi	s0,sp,128
     b0a:	00412307          	flw	ft6,4(sp)
     b0e:	0000                	unimp
     b10:	9102                	jalr	sp
     b12:	0b54                	addi	a3,sp,404
     b14:	0070                	addi	a2,sp,12
     b16:	0901                	addi	s2,s2,0
     b18:	8809                	andi	s0,s0,2
     b1a:	0000                	unimp
     b1c:	0200                	addi	s0,sp,256
     b1e:	6c91                	lui	s9,0x4
     b20:	0000                	unimp
     b22:	00000d6b          	0xd6b
     b26:	0004                	0x4
     b28:	0396                	slli	t2,t2,0x5
     b2a:	0000                	unimp
     b2c:	0104                	addi	s1,sp,128
     b2e:	0088                	addi	a0,sp,64
     b30:	0000                	unimp
     b32:	030c                	addi	a1,sp,384
     b34:	0006                	c.slli	zero,0x1
     b36:	0a00                	addi	s0,sp,272
     b38:	0000                	unimp
     b3a:	8400                	0x8400
     b3c:	000a                	c.slli	zero,0x2
     b3e:	0880                	addi	s0,sp,80
     b40:	000e                	c.slli	zero,0x3
     b42:	0000                	unimp
     b44:	0200000f          	fence	r,unknown
     b48:	0601                	addi	a2,a2,0
     b4a:	007c                	addi	a5,sp,12
     b4c:	0000                	unimp
     b4e:	0102                	c.slli64	sp
     b50:	7a08                	flw	fa0,48(a2)
     b52:	0000                	unimp
     b54:	0200                	addi	s0,sp,256
     b56:	0502                	c.slli64	a0
     b58:	00fc                	addi	a5,sp,76
     b5a:	0000                	unimp
     b5c:	0202                	c.slli64	tp
     b5e:	0000e907          	0xe907
     b62:	0300                	addi	s0,sp,384
     b64:	00000147          	fmsub.s	ft2,ft0,ft0,ft0,rne
     b68:	4d02                	lw	s10,0(sp)
     b6a:	4d18                	lw	a4,24(a0)
     b6c:	0000                	unimp
     b6e:	0200                	addi	s0,sp,256
     b70:	0504                	addi	s1,sp,640
     b72:	003a                	c.slli	zero,0xe
     b74:	0000                	unimp
     b76:	0001fb03          	0x1fb03
     b7a:	0200                	addi	s0,sp,256
     b7c:	0060194f          	fnmadd.s	fs2,ft0,ft6,ft0,rtz
     b80:	0000                	unimp
     b82:	0402                	c.slli64	s0
     b84:	00006807          	0x6807
     b88:	0200                	addi	s0,sp,256
     b8a:	0508                	addi	a0,sp,640
     b8c:	0035                	c.nop	13
     b8e:	0000                	unimp
     b90:	0802                	c.slli64	a6
     b92:	00006307          	0x6307
     b96:	0400                	addi	s0,sp,512
     b98:	0504                	addi	s1,sp,640
     b9a:	6e69                	lui	t3,0x1a
     b9c:	0074                	addi	a3,sp,12
     b9e:	0402                	c.slli64	s0
     ba0:	00006d07          	0x6d07
     ba4:	0300                	addi	s0,sp,384
     ba6:	0149                	addi	sp,sp,18
     ba8:	0000                	unimp
     baa:	41132c03          	lw	s8,1041(t1)
     bae:	0000                	unimp
     bb0:	0300                	addi	s0,sp,384
     bb2:	01fd                	addi	gp,gp,31
     bb4:	0000                	unimp
     bb6:	54143003          	0x54143003
     bba:	0000                	unimp
     bbc:	0300                	addi	s0,sp,384
     bbe:	04dd                	addi	s1,s1,23
     bc0:	0000                	unimp
     bc2:	0b04                	addi	s1,sp,400
     bc4:	8f12                	mv	t5,tp
     bc6:	0000                	unimp
     bc8:	0300                	addi	s0,sp,384
     bca:	03f1                	addi	t2,t2,28
     bcc:	0000                	unimp
     bce:	0c04                	addi	s1,sp,528
     bd0:	0000b30f          	0xb30f
     bd4:	0500                	addi	s0,sp,640
     bd6:	b904                	fsd	fs1,48(a0)
     bd8:	0000                	unimp
     bda:	0600                	addi	s0,sp,768
     bdc:	0075                	c.nop	29
     bde:	0000                	unimp
     be0:	00cd                	addi	ra,ra,19
     be2:	0000                	unimp
     be4:	00007507          	0x7507
     be8:	0700                	addi	s0,sp,896
     bea:	00cd                	addi	ra,ra,19
     bec:	0000                	unimp
     bee:	0500                	addi	s0,sp,640
     bf0:	d304                	sw	s1,32(a4)
     bf2:	0000                	unimp
     bf4:	0500                	addi	s0,sp,640
     bf6:	d904                	sw	s1,48(a0)
     bf8:	0000                	unimp
     bfa:	0200                	addi	s0,sp,256
     bfc:	0801                	addi	a6,a6,0
     bfe:	00000083          	lb	ra,0(zero) # 0 <REGBYTES-0x4>
     c02:	00054c03          	lbu	s8,0(a0) # fffe5000 <bootstack+0x7f6e5000>
     c06:	0400                	addi	s0,sp,512
     c08:	100d                	c.nop	-29
     c0a:	00ec                	addi	a1,sp,76
     c0c:	0000                	unimp
     c0e:	0405                	addi	s0,s0,1
     c10:	00f2                	slli	ra,ra,0x1c
     c12:	0000                	unimp
     c14:	0908                	addi	a0,sp,144
     c16:	007c0407          	0x7c0407
     c1a:	0000                	unimp
     c1c:	0f04                	addi	s1,sp,912
     c1e:	140e                	slli	s0,s0,0x23
     c20:	0001                	nop
     c22:	0a00                	addi	s0,sp,272
     c24:	06bd                	addi	a3,a3,15
     c26:	0000                	unimp
     c28:	0a00                	addi	s0,sp,272
     c2a:	0696                	slli	a3,a3,0x5
     c2c:	0000                	unimp
     c2e:	0a01                	addi	s4,s4,0
     c30:	0632                	slli	a2,a2,0xc
     c32:	0000                	unimp
     c34:	0002                	c.slli64	zero
     c36:	00035903          	lhu	s2,0(t1)
     c3a:	0400                	addi	s0,sp,512
     c3c:	00f30313          	addi	t1,t1,15
     c40:	0000                	unimp
     c42:	00048d03          	lb	s10,0(s1) # 4000 <REGBYTES+0x3ffc>
     c46:	0500                	addi	s0,sp,640
     c48:	00330f07          	0x330f07
     c4c:	0000                	unimp
     c4e:	0709                	addi	a4,a4,2
     c50:	7c04                	flw	fs1,56(s0)
     c52:	0000                	unimp
     c54:	0600                	addi	s0,sp,768
     c56:	0e08                	addi	a0,sp,784
     c58:	00000183          	lb	gp,0(zero) # 0 <REGBYTES-0x4>
     c5c:	320a                	fld	ft4,160(sp)
     c5e:	00000007          	0x7
     c62:	890a                	mv	s2,sp
     c64:	01000003          	lb	zero,16(zero) # 10 <REGBYTES+0xc>
     c68:	b50a                	fsd	ft2,168(sp)
     c6a:	0004                	0x4
     c6c:	0200                	addi	s0,sp,256
     c6e:	430a                	lw	t1,128(sp)
     c70:	03000003          	lb	zero,48(zero) # 30 <REGBYTES+0x2c>
     c74:	160a                	slli	a2,a2,0x22
     c76:	04000007          	0x4000007
     c7a:	4e0a                	lw	t3,128(sp)
     c7c:	0006                	c.slli	zero,0x1
     c7e:	0500                	addi	s0,sp,640
     c80:	680a                	flw	fa6,128(sp)
     c82:	06000003          	lb	zero,96(zero) # 60 <REGBYTES+0x5c>
     c86:	eb0a                	fsw	ft2,148(sp)
     c88:	0005                	c.nop	1
     c8a:	0700                	addi	s0,sp,896
     c8c:	850a                	mv	a0,sp
     c8e:	0005                	c.nop	1
     c90:	0800                	addi	s0,sp,16
     c92:	0a0a                	slli	s4,s4,0x2
     c94:	0004                	0x4
     c96:	0900                	addi	s0,sp,144
     c98:	0b0a                	slli	s6,s6,0x2
     c9a:	0006                	c.slli	zero,0x1
     c9c:	0a00                	addi	s0,sp,272
     c9e:	d10a                	sw	sp,160(sp)
     ca0:	0b000003          	lb	zero,176(zero) # b0 <REGBYTES+0xac>
     ca4:	0300                	addi	s0,sp,384
     ca6:	0620                	addi	s0,sp,776
     ca8:	0000                	unimp
     caa:	1506                	slli	a0,a0,0x21
     cac:	00012c03          	lw	s8,0(sp)
     cb0:	0b00                	addi	s0,sp,400
     cb2:	061c                	addi	a5,sp,768
     cb4:	01f4051b          	0x1f4051b
     cb8:	0000                	unimp
     cba:	7d0c                	flw	fa1,56(a0)
     cbc:	0004                	0x4
     cbe:	0600                	addi	s0,sp,768
     cc0:	111c                	addi	a5,sp,160
     cc2:	000000a7          	0xa7
     cc6:	0c00                	addi	s0,sp,528
     cc8:	04ec                	addi	a1,sp,588
     cca:	0000                	unimp
     ccc:	1d06                	slli	s10,s10,0x21
     cce:	d30d                	beqz	a4,bf0 <REGBYTES+0xbec>
     cd0:	0000                	unimp
     cd2:	0400                	addi	s0,sp,512
     cd4:	b40c                	fsd	fa1,40(s0)
     cd6:	0006                	c.slli	zero,0x1
     cd8:	0600                	addi	s0,sp,768
     cda:	0b1e                	slli	s6,s6,0x7
     cdc:	0075                	c.nop	29
     cde:	0000                	unimp
     ce0:	0c08                	addi	a0,sp,528
     ce2:	00000427          	0x427
     ce6:	1f06                	slli	t5,t5,0x21
     ce8:	0000750b          	0x750b
     cec:	0c00                	addi	s0,sp,528
     cee:	5e0c                	lw	a1,56(a2)
     cf0:	0000                	unimp
     cf2:	0600                	addi	s0,sp,768
     cf4:	0b20                	addi	s0,sp,408
     cf6:	0075                	c.nop	29
     cf8:	0000                	unimp
     cfa:	0c10                	addi	a2,sp,528
     cfc:	0106                	slli	sp,sp,0x1
     cfe:	0000                	unimp
     d00:	2106                	fld	ft2,64(sp)
     d02:	cd0e                	sw	gp,152(sp)
     d04:	0000                	unimp
     d06:	1400                	addi	s0,sp,544
     d08:	720d                	lui	tp,0xfffe3
     d0a:	7465                	lui	s0,0xffff9
     d0c:	0600                	addi	s0,sp,768
     d0e:	1622                	slli	a2,a2,0x28
     d10:	0000009b          	0x9b
     d14:	0018                	0x18
     d16:	2606040b          	0x2606040b
     d1a:	0b05                	addi	s6,s6,1
     d1c:	0002                	c.slli64	zero
     d1e:	0c00                	addi	s0,sp,528
     d20:	04ca                	slli	s1,s1,0x12
     d22:	0000                	unimp
     d24:	2706                	fld	fa4,64(sp)
     d26:	0000750b          	0x750b
     d2a:	0000                	unimp
     d2c:	0b00                	addi	s0,sp,400
     d2e:	0604                	addi	s1,sp,768
     d30:	052a                	slli	a0,a0,0xa
     d32:	0222                	slli	tp,tp,0x8
     d34:	0000                	unimp
     d36:	720d                	lui	tp,0xfffe3
     d38:	7465                	lui	s0,0xffff9
     d3a:	0600                	addi	s0,sp,768
     d3c:	00750b2b          	0x750b2b
     d40:	0000                	unimp
     d42:	0000                	unimp
     d44:	2e06040b          	0x2e06040b
     d48:	3905                	jal	978 <REGBYTES+0x974>
     d4a:	0002                	c.slli64	zero
     d4c:	0d00                	addi	s0,sp,656
     d4e:	6572                	flw	fa0,28(sp)
     d50:	0074                	addi	a3,sp,12
     d52:	2f06                	fld	ft10,64(sp)
     d54:	0000750b          	0x750b
     d58:	0000                	unimp
     d5a:	0b00                	addi	s0,sp,400
     d5c:	0608                	addi	a0,sp,768
     d5e:	0532                	slli	a0,a0,0xc
     d60:	025c                	addi	a5,sp,260
     d62:	0000                	unimp
     d64:	690d                	lui	s2,0x3
     d66:	0064                	addi	s1,sp,12
     d68:	3306                	fld	ft6,96(sp)
     d6a:	9b16                	add	s6,s6,t0
     d6c:	0000                	unimp
     d6e:	0000                	unimp
     d70:	720d                	lui	tp,0xfffe3
     d72:	7465                	lui	s0,0xffff9
     d74:	0600                	addi	s0,sp,768
     d76:	0b34                	addi	a3,sp,408
     d78:	0075                	c.nop	29
     d7a:	0000                	unimp
     d7c:	0004                	0x4
     d7e:	3706040b          	0x3706040b
     d82:	7205                	lui	tp,0xfffe1
     d84:	0002                	c.slli64	zero
     d86:	0d00                	addi	s0,sp,656
     d88:	6469                	lui	s0,0x1a
     d8a:	0600                	addi	s0,sp,768
     d8c:	1638                	addi	a4,sp,808
     d8e:	0000009b          	0x9b
     d92:	0000                	unimp
     d94:	3b06080b          	0x3b06080b
     d98:	9605                	srai	a2,a2,0x21
     d9a:	0002                	c.slli64	zero
     d9c:	0c00                	addi	s0,sp,528
     d9e:	06b4                	addi	a3,sp,840
     da0:	0000                	unimp
     da2:	3c06                	fld	fs8,96(sp)
     da4:	0000750b          	0x750b
     da8:	0000                	unimp
     daa:	720d                	lui	tp,0xfffe3
     dac:	7465                	lui	s0,0xffff9
     dae:	0600                	addi	s0,sp,768
     db0:	0b3d                	addi	s6,s6,15
     db2:	0075                	c.nop	29
     db4:	0000                	unimp
     db6:	0004                	0x4
     db8:	4006080b          	0x4006080b
     dbc:	ba05                	j	6ec <REGBYTES+0x6e8>
     dbe:	0002                	c.slli64	zero
     dc0:	0c00                	addi	s0,sp,528
     dc2:	042c                	addi	a1,sp,520
     dc4:	0000                	unimp
     dc6:	4106                	lw	sp,64(sp)
     dc8:	0000750b          	0x750b
     dcc:	0000                	unimp
     dce:	720d                	lui	tp,0xfffe3
     dd0:	7465                	lui	s0,0xffff9
     dd2:	0600                	addi	s0,sp,768
     dd4:	0d42                	slli	s10,s10,0x10
     dd6:	02ba                	slli	t0,t0,0xe
     dd8:	0000                	unimp
     dda:	0004                	0x4
     ddc:	040e                	slli	s0,s0,0x3
     dde:	4506080b          	0x4506080b
     de2:	de05                	beqz	a2,d1a <REGBYTES+0xd16>
     de4:	0002                	c.slli64	zero
     de6:	0d00                	addi	s0,sp,656
     de8:	0070                	addi	a2,sp,12
     dea:	4606                	lw	a2,64(sp)
     dec:	d30d                	beqz	a4,d0e <REGBYTES+0xd0a>
     dee:	0000                	unimp
     df0:	0000                	unimp
     df2:	720d                	lui	tp,0xfffe3
     df4:	7465                	lui	s0,0xffff9
     df6:	0600                	addi	s0,sp,768
     df8:	00750b47          	fmsub.s	fs6,fa0,ft7,ft0,rne
     dfc:	0000                	unimp
     dfe:	0004                	0x4
     e00:	4a06100b          	0x4a06100b
     e04:	1905                	addi	s2,s2,-31
     e06:	0d000003          	lb	zero,208(zero) # d0 <REGBYTES+0xcc>
     e0a:	6469                	lui	s0,0x1a
     e0c:	0600                	addi	s0,sp,768
     e0e:	0114164b          	fnmsub.s	fa2,fs0,fa7,ft0,rtz
     e12:	0000                	unimp
     e14:	0c00                	addi	s0,sp,528
     e16:	042c                	addi	a1,sp,520
     e18:	0000                	unimp
     e1a:	4c06                	lw	s8,64(sp)
     e1c:	0000750b          	0x750b
     e20:	0400                	addi	s0,sp,512
     e22:	700d                	c.lui	zero,0xfffe3
     e24:	0600                	addi	s0,sp,768
     e26:	0d4d                	addi	s10,s10,19
     e28:	000000d3          	fadd.s	ft1,ft0,ft0,rne
     e2c:	0d08                	addi	a0,sp,656
     e2e:	6572                	flw	fa0,28(sp)
     e30:	0074                	addi	a3,sp,12
     e32:	4e06                	lw	t3,64(sp)
     e34:	0000750b          	0x750b
     e38:	0c00                	addi	s0,sp,528
     e3a:	0b00                	addi	s0,sp,400
     e3c:	0610                	addi	a2,sp,768
     e3e:	0551                	addi	a0,a0,20
     e40:	0355                	addi	t1,t1,21
     e42:	0000                	unimp
     e44:	690d                	lui	s2,0x3
     e46:	0064                	addi	s1,sp,12
     e48:	5206                	lw	tp,96(sp)
     e4a:	1416                	slli	s0,s0,0x25
     e4c:	0001                	nop
     e4e:	0000                	unimp
     e50:	ad0c                	fsd	fa1,24(a0)
     e52:	06000003          	lb	zero,96(zero) # 60 <REGBYTES+0x5c>
     e56:	03550c53          	fadd.d	fs8,fa0,fs5,rne
     e5a:	0000                	unimp
     e5c:	0d04                	addi	s1,sp,656
     e5e:	7070                	flw	fa2,100(s0)
     e60:	0600                	addi	s0,sp,768
     e62:	0e54                	addi	a3,sp,788
     e64:	00cd                	addi	ra,ra,19
     e66:	0000                	unimp
     e68:	0d08                	addi	a0,sp,656
     e6a:	6572                	flw	fa0,28(sp)
     e6c:	0074                	addi	a3,sp,12
     e6e:	5506                	lw	a0,96(sp)
     e70:	9b16                	add	s6,s6,t0
     e72:	0000                	unimp
     e74:	0c00                	addi	s0,sp,528
     e76:	0500                	addi	s0,sp,640
     e78:	7504                	flw	fs1,40(a0)
     e7a:	0000                	unimp
     e7c:	0b00                	addi	s0,sp,400
     e7e:	060c                	addi	a1,sp,768
     e80:	0558                	addi	a4,sp,644
     e82:	038c                	addi	a1,sp,448
     e84:	0000                	unimp
     e86:	310c                	fld	fa1,32(a0)
     e88:	0004                	0x4
     e8a:	0600                	addi	s0,sp,768
     e8c:	1659                	addi	a2,a2,-10
     e8e:	0120                	addi	s0,sp,136
     e90:	0000                	unimp
     e92:	0c00                	addi	s0,sp,528
     e94:	041f 0000 5a06      	0x5a060000041f
     e9a:	e014                	fsw	fa3,0(s0)
     e9c:	0000                	unimp
     e9e:	0400                	addi	s0,sp,512
     ea0:	720d                	lui	tp,0xfffe3
     ea2:	7465                	lui	s0,0xffff9
     ea4:	0600                	addi	s0,sp,768
     ea6:	00750b5b          	0x750b5b
     eaa:	0000                	unimp
     eac:	0008                	0x8
     eae:	19061c0f          	0x19061c0f
     eb2:	00042603          	lw	a2,0(s0) # ffff9000 <bootstack+0x7f6f9000>
     eb6:	1000                	addi	s0,sp,32
     eb8:	7572                	flw	fa0,60(sp)
     eba:	006e                	c.slli	zero,0x1b
     ebc:	2306                	fld	ft6,64(sp)
     ebe:	00018f07          	0x18f07
     ec2:	1100                	addi	s0,sp,160
     ec4:	05ae                	slli	a1,a1,0xb
     ec6:	0000                	unimp
     ec8:	2806                	fld	fa6,64(sp)
     eca:	0001f407          	0x1f407
     ece:	1100                	addi	s0,sp,160
     ed0:	0512                	slli	a0,a0,0x4
     ed2:	0000                	unimp
     ed4:	2c06                	fld	fs8,64(sp)
     ed6:	00020b07          	0x20b07
     eda:	1100                	addi	s0,sp,160
     edc:	0000066b          	0x66b
     ee0:	3006                	fld	ft0,96(sp)
     ee2:	00022207          	flw	ft4,0(tp) # fffe3000 <bootstack+0x7f6e3000>
     ee6:	1100                	addi	s0,sp,160
     ee8:	0000046f          	jal	s0,ee8 <REGBYTES+0xee4>
     eec:	3506                	fld	fa0,96(sp)
     eee:	00023907          	fld	fs2,0(tp) # 0 <REGBYTES-0x4>
     ef2:	1100                	addi	s0,sp,160
     ef4:	000004a3          	sb	zero,9(zero) # 9 <REGBYTES+0x5>
     ef8:	3906                	fld	fs2,96(sp)
     efa:	00025c07          	0x25c07
     efe:	1100                	addi	s0,sp,160
     f00:	000004d7          	0x4d7
     f04:	3e06                	fld	ft8,96(sp)
     f06:	00027207          	0x27207
     f0a:	1100                	addi	s0,sp,160
     f0c:	0000053b          	0x53b
     f10:	4306                	lw	t1,64(sp)
     f12:	00029607          	0x29607
     f16:	1100                	addi	s0,sp,160
     f18:	000005d3          	fadd.s	fa1,ft0,ft0,rne
     f1c:	4806                	lw	a6,64(sp)
     f1e:	0002bc07          	fld	fs8,0(t0)
     f22:	1100                	addi	s0,sp,160
     f24:	0560                	addi	s0,sp,652
     f26:	0000                	unimp
     f28:	4f06                	lw	t5,64(sp)
     f2a:	0002de07          	0x2de07
     f2e:	1100                	addi	s0,sp,160
     f30:	05ba                	slli	a1,a1,0xe
     f32:	0000                	unimp
     f34:	5606                	lw	a2,96(sp)
     f36:	00031907          	0x31907
     f3a:	1100                	addi	s0,sp,160
     f3c:	03a5                	addi	t2,t2,9
     f3e:	0000                	unimp
     f40:	5c06                	lw	s8,96(sp)
     f42:	00035b07          	0x35b07
     f46:	0000                	unimp
     f48:	18061c0b          	0x18061c0b
     f4c:	3c09                	jal	95e <REGBYTES+0x95a>
     f4e:	0004                	0x4
     f50:	0d00                	addi	s0,sp,656
     f52:	6e75                	lui	t3,0x1d
     f54:	0600                	addi	s0,sp,768
     f56:	055d                	addi	a0,a0,23
     f58:	038c                	addi	a1,sp,448
     f5a:	0000                	unimp
     f5c:	0000                	unimp
     f5e:	0003be03          	0x3be03
     f62:	0600                	addi	s0,sp,768
     f64:	035e                	slli	t1,t1,0x17
     f66:	0426                	slli	s0,s0,0x9
     f68:	0000                	unimp
     f6a:	a912                	fsd	ft4,144(sp)
     f6c:	0004                	0x4
     f6e:	0400                	addi	s0,sp,512
     f70:	1101                	addi	sp,sp,-32
     f72:	6210                	flw	fa2,0(a2)
     f74:	0004                	0x4
     f76:	0d00                	addi	s0,sp,656
     f78:	01007073          	csrci	0x10,0
     f7c:	0d12                	slli	s10,s10,0x4
     f7e:	0462                	slli	s0,s0,0x18
     f80:	0000                	unimp
     f82:	0000                	unimp
     f84:	0405                	addi	s0,s0,1
     f86:	0000008f          	0x8f
     f8a:	0004aa03          	lw	s4,0(s1)
     f8e:	0100                	addi	s0,sp,128
     f90:	04480313          	addi	t1,a6,68 # b044 <REGBYTES+0xb040>
     f94:	0000                	unimp
     f96:	21010c0b          	0x21010c0b
     f9a:	0004a503          	lw	a0,0(s1)
     f9e:	0c00                	addi	s0,sp,528
     fa0:	047d                	addi	s0,s0,31
     fa2:	0000                	unimp
     fa4:	2201                	jal	10a4 <REGBYTES+0x10a0>
     fa6:	0000a70f          	0xa70f
     faa:	0000                	unimp
     fac:	5e0c                	lw	a1,56(a2)
     fae:	0000                	unimp
     fb0:	0100                	addi	s0,sp,128
     fb2:	00750923          	sb	t2,18(a0)
     fb6:	0000                	unimp
     fb8:	0c04                	addi	s1,sp,528
     fba:	0106                	slli	sp,sp,0x1
     fbc:	0000                	unimp
     fbe:	2401                	jal	11be <REGBYTES+0x11ba>
     fc0:	cd0c                	sw	a1,24(a0)
     fc2:	0000                	unimp
     fc4:	0800                	addi	s0,sp,16
     fc6:	0b00                	addi	s0,sp,400
     fc8:	0108                	addi	a0,sp,128
     fca:	0328                	addi	a0,sp,392
     fcc:	04c9                	addi	s1,s1,18
     fce:	0000                	unimp
     fd0:	310c                	fld	fa1,32(a0)
     fd2:	0004                	0x4
     fd4:	0100                	addi	s0,sp,128
     fd6:	1729                	addi	a4,a4,-22
     fd8:	00000183          	lb	gp,0(zero) # 0 <REGBYTES-0x4>
     fdc:	0c00                	addi	s0,sp,528
     fde:	0565                	addi	a0,a0,25
     fe0:	0000                	unimp
     fe2:	2a01                	jal	10f2 <REGBYTES+0x10ee>
     fe4:	c919                	beqz	a0,ffa <REGBYTES+0xff6>
     fe6:	0004                	0x4
     fe8:	0400                	addi	s0,sp,512
     fea:	0500                	addi	s0,sp,640
     fec:	3c04                	fld	fs1,56(s0)
     fee:	0004                	0x4
     ff0:	1200                	addi	s0,sp,288
     ff2:	051e                	slli	a0,a0,0x7
     ff4:	0000                	unimp
     ff6:	0138                	addi	a4,sp,136
     ff8:	1018                	addi	a4,sp,32
     ffa:	0545                	addi	a0,a0,17
     ffc:	0000                	unimp
     ffe:	2d0c                	fld	fa1,24(a0)
    1000:	01000007          	0x1000007
    1004:	1619                	addi	a2,a2,-26
    1006:	0545                	addi	a0,a0,17
    1008:	0000                	unimp
    100a:	0c00                	addi	s0,sp,528
    100c:	04ec                	addi	a1,sp,588
    100e:	0000                	unimp
    1010:	1a01                	addi	s4,s4,-32
    1012:	4b08                	lw	a0,16(a4)
    1014:	0005                	c.nop	1
    1016:	0400                	addi	s0,sp,512
    1018:	b40c                	fsd	fa1,40(s0)
    101a:	0006                	c.slli	zero,0x1
    101c:	0100                	addi	s0,sp,128
    101e:	0075071b          	0x75071b
    1022:	0000                	unimp
    1024:	0c14                	addi	a3,sp,528
    1026:	0000044b          	fnmsub.s	fs0,ft0,ft0,ft0,rne
    102a:	1c01                	addi	s8,s8,-32
    102c:	d309                	beqz	a4,f2e <REGBYTES+0xf2a>
    102e:	0000                	unimp
    1030:	1800                	addi	s0,sp,48
    1032:	2e0c                	fld	fa1,24(a2)
    1034:	0005                	c.nop	1
    1036:	0100                	addi	s0,sp,128
    1038:	0c1d                	addi	s8,s8,7
    103a:	0000008f          	0x8f
    103e:	0c1c                	addi	a5,sp,528
    1040:	011d                	addi	sp,sp,7
    1042:	0000                	unimp
    1044:	2501                	jal	1644 <REGBYTES+0x1640>
    1046:	7405                	lui	s0,0xfffe1
    1048:	0004                	0x4
    104a:	2000                	fld	fs0,0(s0)
    104c:	b60c                	fsd	fa1,40(a2)
    104e:	01000003          	lb	zero,16(zero) # 10 <REGBYTES+0xc>
    1052:	04a5052b          	0x4a5052b
    1056:	0000                	unimp
    1058:	0c2c                	addi	a1,sp,536
    105a:	04ad                	addi	s1,s1,11
    105c:	0000                	unimp
    105e:	2e01                	jal	136e <REGBYTES+0x136a>
    1060:	680e                	flw	fa6,192(sp)
    1062:	0004                	0x4
    1064:	3400                	fld	fs0,40(s0)
    1066:	0500                	addi	s0,sp,640
    1068:	cf04                	sw	s1,24(a4)
    106a:	0004                	0x4
    106c:	1300                	addi	s0,sp,416
    106e:	00d9                	addi	ra,ra,22
    1070:	0000                	unimp
    1072:	0000055b          	0x55b
    1076:	7c14                	flw	fa3,56(s0)
    1078:	0000                	unimp
    107a:	0f00                	addi	s0,sp,912
    107c:	0300                	addi	s0,sp,384
    107e:	051f 0000 2f01      	0x2f010000051f
    1084:	0004cf03          	lbu	t5,0(s1)
    1088:	0b00                	addi	s0,sp,400
    108a:	0108                	addi	a0,sp,128
    108c:	05890337          	lui	t1,0x5890
    1090:	0000                	unimp
    1092:	2c0c                	fld	fa1,24(s0)
    1094:	0004                	0x4
    1096:	0100                	addi	s0,sp,128
    1098:	0938                	addi	a4,sp,152
    109a:	0075                	c.nop	29
    109c:	0000                	unimp
    109e:	0d00                	addi	s0,sp,656
    10a0:	0070                	addi	a2,sp,12
    10a2:	3901                	jal	cb2 <REGBYTES+0xcae>
    10a4:	0000d30b          	0xd30b
    10a8:	0400                	addi	s0,sp,512
    10aa:	1200                	addi	s0,sp,288
    10ac:	0671                	addi	a2,a2,28
    10ae:	0000                	unimp
    10b0:	0110                	addi	a2,sp,128
    10b2:	1034                	addi	a3,sp,40
    10b4:	05be                	slli	a1,a1,0xf
    10b6:	0000                	unimp
    10b8:	2d0c                	fld	fa1,24(a0)
    10ba:	01000007          	0x1000007
    10be:	1635                	addi	a2,a2,-19
    10c0:	05be                	slli	a1,a1,0xf
    10c2:	0000                	unimp
    10c4:	0c00                	addi	s0,sp,528
    10c6:	0476                	slli	s0,s0,0x1d
    10c8:	0000                	unimp
    10ca:	3601                	jal	bca <REGBYTES+0xbc6>
    10cc:	c40e                	sw	gp,8(sp)
    10ce:	0005                	c.nop	1
    10d0:	0400                	addi	s0,sp,512
    10d2:	650c                	flw	fa1,8(a0)
    10d4:	0005                	c.nop	1
    10d6:	0100                	addi	s0,sp,128
    10d8:	053a                	slli	a0,a0,0xe
    10da:	00000567          	jalr	a0,zero # 0 <REGBYTES-0x4>
    10de:	0008                	0x8
    10e0:	0405                	addi	s0,s0,1
    10e2:	0589                	addi	a1,a1,2
    10e4:	0000                	unimp
    10e6:	0405                	addi	s0,s0,1
    10e8:	0000055b          	0x55b
    10ec:	00067203          	0x67203
    10f0:	0100                	addi	s0,sp,128
    10f2:	0589033b          	0x589033b
    10f6:	0000                	unimp
    10f8:	5112                	lw	sp,36(sp)
    10fa:	0004                	0x4
    10fc:	0c00                	addi	s0,sp,528
    10fe:	4001                	c.li	zero,0
    1100:	0b10                	addi	a2,sp,400
    1102:	0006                	c.slli	zero,0x1
    1104:	0c00                	addi	s0,sp,528
    1106:	000006ab          	0x6ab
    110a:	4101                	li	sp,0
    110c:	c40e                	sw	gp,8(sp)
    110e:	0005                	c.nop	1
    1110:	0000                	unimp
    1112:	360c                	fld	fa1,40(a2)
    1114:	0004                	0x4
    1116:	0100                	addi	s0,sp,128
    1118:	0e42                	slli	t3,t3,0x10
    111a:	0000060b          	0x60b
    111e:	0c04                	addi	s1,sp,528
    1120:	04f1                	addi	s1,s1,28
    1122:	0000                	unimp
    1124:	4301                	li	t1,0
    1126:	0b0e                	slli	s6,s6,0x3
    1128:	0006                	c.slli	zero,0x1
    112a:	0800                	addi	s0,sp,16
    112c:	0500                	addi	s0,sp,640
    112e:	ca04                	sw	s1,16(a2)
    1130:	0005                	c.nop	1
    1132:	0300                	addi	s0,sp,384
    1134:	0452                	slli	s0,s0,0x14
    1136:	0000                	unimp
    1138:	4401                	li	s0,0
    113a:	0005d603          	lhu	a2,0(a1)
    113e:	0b00                	addi	s0,sp,400
    1140:	0108                	addi	a0,sp,128
    1142:	06410847          	fmsub.q	fa6,ft2,ft4,ft0,rne
    1146:	0000                	unimp
    1148:	360c                	fld	fa1,40(a2)
    114a:	0004                	0x4
    114c:	0100                	addi	s0,sp,128
    114e:	0e48                	addi	a0,sp,788
    1150:	05c4                	addi	s1,sp,708
    1152:	0000                	unimp
    1154:	0c00                	addi	s0,sp,528
    1156:	04f1                	addi	s1,s1,28
    1158:	0000                	unimp
    115a:	4901                	li	s2,0
    115c:	c40e                	sw	gp,8(sp)
    115e:	0005                	c.nop	1
    1160:	0400                	addi	s0,sp,512
    1162:	1300                	addi	s0,sp,416
    1164:	061d                	addi	a2,a2,7
    1166:	0000                	unimp
    1168:	0651                	addi	a2,a2,20
    116a:	0000                	unimp
    116c:	7c14                	flw	fa3,56(s0)
    116e:	0000                	unimp
    1170:	0f00                	addi	s0,sp,912
    1172:	1500                	addi	s0,sp,672
    1174:	06e9                	addi	a3,a3,26
    1176:	0000                	unimp
    1178:	4a01                	li	s4,0
    117a:	00064103          	lbu	sp,0(a2) # 1d000 <REGBYTES+0x1cffc>
    117e:	0500                	addi	s0,sp,640
    1180:	00345803          	lhu	a6,3(s0) # fffe1003 <bootstack+0x7f6e1003>
    1184:	1580                	addi	s0,sp,736
    1186:	059f 0000 4d01      	0x4d010000059f
    118c:	0005c413          	xori	s0,a1,0
    1190:	0500                	addi	s0,sp,640
    1192:	0034d803          	lhu	a6,3(s1)
    1196:	1380                	addi	s0,sp,480
    1198:	0000055b          	0x55b
    119c:	0685                	addi	a3,a3,1
    119e:	0000                	unimp
    11a0:	7c14                	flw	fa3,56(s0)
    11a2:	0000                	unimp
    11a4:	0500                	addi	s0,sp,640
    11a6:	1500                	addi	s0,sp,672
    11a8:	0049                	c.nop	18
    11aa:	0000                	unimp
    11ac:	5001                	c.li	zero,-32
    11ae:	7512                	flw	fa0,36(sp)
    11b0:	0006                	c.slli	zero,0x1
    11b2:	0500                	addi	s0,sp,640
    11b4:	0034dc03          	lhu	s8,3(s1)
    11b8:	1380                	addi	s0,sp,480
    11ba:	00e0                	addi	s0,sp,76
    11bc:	0000                	unimp
    11be:	000006a7          	0x6a7
    11c2:	7c14                	flw	fa3,56(s0)
    11c4:	0000                	unimp
    11c6:	0200                	addi	s0,sp,256
    11c8:	1500                	addi	s0,sp,672
    11ca:	00000543          	fmadd.s	fa0,ft0,ft0,ft0,rne
    11ce:	5301                	li	t1,-32
    11d0:	9715                	srai	a4,a4,0x25
    11d2:	0006                	c.slli	zero,0x1
    11d4:	0500                	addi	s0,sp,640
    11d6:	00362c03          	lw	s8,3(a2)
    11da:	1380                	addi	s0,sp,480
    11dc:	0611                	addi	a2,a2,4
    11de:	0000                	unimp
    11e0:	06c9                	addi	a3,a3,18
    11e2:	0000                	unimp
    11e4:	7c14                	flw	fa3,56(s0)
    11e6:	0000                	unimp
    11e8:	0100                	addi	s0,sp,128
    11ea:	1500                	addi	s0,sp,672
    11ec:	0746                	slli	a4,a4,0x11
    11ee:	0000                	unimp
    11f0:	5601                	li	a2,-32
    11f2:	b912                	fsd	ft4,176(sp)
    11f4:	0006                	c.slli	zero,0x1
    11f6:	0500                	addi	s0,sp,640
    11f8:	00363803          	0x363803
    11fc:	1680                	addi	s0,sp,864
    11fe:	06de                	slli	a3,a3,0x17
    1200:	0000                	unimp
    1202:	8201                	c.srli64	a2
    1204:	0602                	c.slli64	a2
    1206:	1868                	addi	a0,sp,60
    1208:	8000                	0x8000
    120a:	0024                	addi	s1,sp,8
    120c:	0000                	unimp
    120e:	9c01                	0x9c01
    1210:	00000713          	li	a4,0
    1214:	00043117          	auipc	sp,0x43
    1218:	0100                	addi	s0,sp,128
    121a:	0282                	c.slli64	t0
    121c:	00018323          	sb	zero,6(gp)
    1220:	0200                	addi	s0,sp,256
    1222:	6c91                	lui	s9,0x4
    1224:	00056517          	auipc	a0,0x56
    1228:	0100                	addi	s0,sp,128
    122a:	0282                	c.slli64	t0
    122c:	c93d                	beqz	a0,12a2 <REGBYTES+0x129e>
    122e:	0004                	0x4
    1230:	0200                	addi	s0,sp,256
    1232:	6891                	lui	a7,0x4
    1234:	1800                	addi	s0,sp,48
    1236:	000003b3          	add	t2,zero,zero
    123a:	7601                	lui	a2,0xfffe0
    123c:	0602                	c.slli64	a2
    123e:	182e                	slli	a6,a6,0x2b
    1240:	8000                	0x8000
    1242:	003a                	c.slli	zero,0xe
    1244:	0000                	unimp
    1246:	9c01                	0x9c01
    1248:	0000074b          	fnmsub.s	fa4,ft0,ft0,ft0,rne
    124c:	00043117          	auipc	sp,0x43
    1250:	0100                	addi	s0,sp,128
    1252:	0276                	slli	tp,tp,0x1d
    1254:	00018323          	sb	zero,6(gp)
    1258:	0200                	addi	s0,sp,256
    125a:	6c91                	lui	s9,0x4
    125c:	00056517          	auipc	a0,0x56
    1260:	0100                	addi	s0,sp,128
    1262:	0276                	slli	tp,tp,0x1d
    1264:	c93d                	beqz	a0,12da <REGBYTES+0x12d6>
    1266:	0004                	0x4
    1268:	0200                	addi	s0,sp,256
    126a:	6891                	lui	a7,0x4
    126c:	1900                	addi	s0,sp,176
    126e:	037e                	slli	t1,t1,0x1f
    1270:	0000                	unimp
    1272:	6f01                	0x6f01
    1274:	0602                	c.slli64	a2
    1276:	1818                	addi	a4,sp,48
    1278:	8000                	0x8000
    127a:	0016                	c.slli	zero,0x5
    127c:	0000                	unimp
    127e:	9c01                	0x9c01
    1280:	fb16                	fsw	ft5,180(sp)
    1282:	01000003          	lb	zero,16(zero) # 10 <REGBYTES+0xc>
    1286:	0259                	addi	tp,tp,22
    1288:	5006                	0x5006
    128a:	c8800017          	auipc	zero,0xc8800
    128e:	0000                	unimp
    1290:	0100                	addi	s0,sp,128
    1292:	d69c                	sw	a5,40(a3)
    1294:	17000007          	0x17000007
    1298:	047d                	addi	s0,s0,31
    129a:	0000                	unimp
    129c:	5901                	li	s2,-32
    129e:	1902                	slli	s2,s2,0x20
    12a0:	000000a7          	0xa7
    12a4:	9102                	jalr	sp
    12a6:	176c                	addi	a1,sp,940
    12a8:	04ec                	addi	a1,sp,588
    12aa:	0000                	unimp
    12ac:	5901                	li	s2,-32
    12ae:	2502                	fld	fa0,0(sp)
    12b0:	000000d3          	fadd.s	ft1,ft0,ft0,rne
    12b4:	9102                	jalr	sp
    12b6:	1768                	addi	a0,sp,940
    12b8:	06b4                	addi	a3,sp,840
    12ba:	0000                	unimp
    12bc:	5901                	li	s2,-32
    12be:	2f02                	fld	ft10,0(sp)
    12c0:	0075                	c.nop	29
    12c2:	0000                	unimp
    12c4:	9102                	jalr	sp
    12c6:	1764                	addi	s1,sp,940
    12c8:	00000427          	0x427
    12cc:	5901                	li	s2,-32
    12ce:	3d02                	fld	fs10,32(sp)
    12d0:	0075                	c.nop	29
    12d2:	0000                	unimp
    12d4:	9102                	jalr	sp
    12d6:	1760                	addi	s0,sp,940
    12d8:	005e                	c.slli	zero,0x17
    12da:	0000                	unimp
    12dc:	5901                	li	s2,-32
    12de:	4c02                	lw	s8,0(sp)
    12e0:	0075                	c.nop	29
    12e2:	0000                	unimp
    12e4:	9102                	jalr	sp
    12e6:	175c                	addi	a5,sp,932
    12e8:	0106                	slli	sp,sp,0x1
    12ea:	0000                	unimp
    12ec:	5901                	li	s2,-32
    12ee:	5802                	lw	a6,32(sp)
    12f0:	00cd                	addi	ra,ra,19
    12f2:	0000                	unimp
    12f4:	9102                	jalr	sp
    12f6:	0058                	addi	a4,sp,4
    12f8:	f216                	fsw	ft5,36(sp)
    12fa:	0006                	c.slli	zero,0x1
    12fc:	0100                	addi	s0,sp,128
    12fe:	0249                	addi	tp,tp,18
    1300:	f006                	fsw	ft1,32(sp)
    1302:	0016                	c.slli	zero,0x5
    1304:	6080                	flw	fs0,0(s1)
    1306:	0000                	unimp
    1308:	0100                	addi	s0,sp,128
    130a:	0d9c                	addi	a5,sp,720
    130c:	0008                	0x8
    130e:	1a00                	addi	s0,sp,304
    1310:	01007073          	csrci	0x10,0
    1314:	0249                	addi	tp,tp,18
    1316:	622c                	flw	fa1,64(a2)
    1318:	0004                	0x4
    131a:	0200                	addi	s0,sp,256
    131c:	5c91                	li	s9,-28
    131e:	0006401b          	0x6401b
    1322:	0100                	addi	s0,sp,128
    1324:	024c                	addi	a1,sp,260
    1326:	8f0c                	0x8f0c
    1328:	0000                	unimp
    132a:	0200                	addi	s0,sp,256
    132c:	6c91                	lui	s9,0x4
    132e:	1600                	addi	s0,sp,800
    1330:	05da                	slli	a1,a1,0x16
    1332:	0000                	unimp
    1334:	2d01                	jal	1944 <REGBYTES+0x1940>
    1336:	0602                	c.slli64	a2
    1338:	1666                	slli	a2,a2,0x39
    133a:	8000                	0x8000
    133c:	008a                	slli	ra,ra,0x2
    133e:	0000                	unimp
    1340:	9c01                	0x9c01
    1342:	088c                	addi	a1,sp,80
    1344:	0000                	unimp
    1346:	731a                	flw	ft6,164(sp)
    1348:	0070                	addi	a2,sp,12
    134a:	2d01                	jal	195a <REGBYTES+0x1956>
    134c:	2102                	fld	ft2,0(sp)
    134e:	0462                	slli	s0,s0,0x18
    1350:	0000                	unimp
    1352:	9102                	jalr	sp
    1354:	1b5c                	addi	a5,sp,436
    1356:	00000517          	auipc	a0,0x0
    135a:	3101                	jal	f5a <REGBYTES+0xf56>
    135c:	0b02                	c.slli64	s6
    135e:	00000083          	lb	ra,0(zero) # 0 <REGBYTES-0x4>
    1362:	9102                	jalr	sp
    1364:	1b68                	addi	a0,sp,444
    1366:	0529                	addi	a0,a0,10
    1368:	0000                	unimp
    136a:	3301                	jal	106a <REGBYTES+0x1066>
    136c:	0b02                	c.slli64	s6
    136e:	00000083          	lb	ra,0(zero) # 0 <REGBYTES-0x4>
    1372:	9102                	jalr	sp
    1374:	1c60                	addi	s0,sp,572
    1376:	1682                	slli	a3,a3,0x20
    1378:	8000                	0x8000
    137a:	000c                	0xc
    137c:	0000                	unimp
    137e:	0871                	addi	a6,a6,28
    1380:	0000                	unimp
    1382:	0000581b          	0x581b
    1386:	0100                	addi	s0,sp,128
    1388:	0231                	addi	tp,tp,12
    138a:	6014                	flw	fa3,0(s0)
    138c:	0000                	unimp
    138e:	0200                	addi	s0,sp,256
    1390:	6c91                	lui	s9,0x4
    1392:	1d00                	addi	s0,sp,688
    1394:	1692                	slli	a3,a3,0x24
    1396:	8000                	0x8000
    1398:	000c                	0xc
    139a:	0000                	unimp
    139c:	0000581b          	0x581b
    13a0:	0100                	addi	s0,sp,128
    13a2:	60120233          	0x60120233
    13a6:	0000                	unimp
    13a8:	0200                	addi	s0,sp,256
    13aa:	6491                	lui	s1,0x4
    13ac:	0000                	unimp
    13ae:	781e                	flw	fa6,228(sp)
    13b0:	0005                	c.nop	1
    13b2:	0100                	addi	s0,sp,128
    13b4:	0220                	addi	s0,sp,264
    13b6:	f80d                	bnez	s0,12e8 <REGBYTES+0x12e4>
    13b8:	0015                	c.nop	5
    13ba:	6e80                	flw	fs0,24(a3)
    13bc:	0000                	unimp
    13be:	0100                	addi	s0,sp,128
    13c0:	c49c                	sw	a5,8(s1)
    13c2:	0008                	0x8
    13c4:	1700                	addi	s0,sp,928
    13c6:	00000517          	auipc	a0,0x0
    13ca:	2001                	jal	13ca <REGBYTES+0x13c6>
    13cc:	2202                	fld	ft4,0(sp)
    13ce:	00000083          	lb	ra,0(zero) # 0 <REGBYTES-0x4>
    13d2:	9102                	jalr	sp
    13d4:	176c                	addi	a1,sp,940
    13d6:	0529                	addi	a0,a0,10
    13d8:	0000                	unimp
    13da:	2001                	jal	13da <REGBYTES+0x13d6>
    13dc:	3202                	fld	ft4,32(sp)
    13de:	00000083          	lb	ra,0(zero) # 0 <REGBYTES-0x4>
    13e2:	9102                	jalr	sp
    13e4:	0068                	addi	a0,sp,12
    13e6:	bf1f 0005 0100      	0x1000005bf1f
    13ec:	0218                	addi	a4,sp,256
    13ee:	c80d                	beqz	s0,1420 <REGBYTES+0x141c>
    13f0:	0015                	c.nop	5
    13f2:	3080                	fld	fs0,32(s1)
    13f4:	0000                	unimp
    13f6:	0100                	addi	s0,sp,128
    13f8:	1e9c                	addi	a5,sp,880
    13fa:	0000043b          	0x43b
    13fe:	0101                	addi	sp,sp,0
    1400:	0d02                	c.slli64	s10
    1402:	155c                	addi	a5,sp,676
    1404:	8000                	0x8000
    1406:	006c                	addi	a1,sp,12
    1408:	0000                	unimp
    140a:	9c01                	0x9c01
    140c:	08fd                	addi	a7,a7,31
    140e:	0000                	unimp
    1410:	6920                	flw	fs0,80(a0)
    1412:	0100                	addi	s0,sp,128
    1414:	75070203          	lb	tp,1872(a4) # fffe1750 <bootstack+0x7f6e1750>
    1418:	0000                	unimp
    141a:	0200                	addi	s0,sp,256
    141c:	6c91                	lui	s9,0x4
    141e:	1e00                	addi	s0,sp,816
    1420:	06d1                	addi	a3,a3,20
    1422:	0000                	unimp
    1424:	f801                	bnez	s0,1334 <REGBYTES+0x1330>
    1426:	0d01                	addi	s10,s10,0
    1428:	152c                	addi	a1,sp,680
    142a:	8000                	0x8000
    142c:	0030                	addi	a2,sp,8
    142e:	0000                	unimp
    1430:	9c01                	0x9c01
    1432:	00000933          	add	s2,zero,zero
    1436:	00043117          	auipc	sp,0x43
    143a:	0100                	addi	s0,sp,128
    143c:	01f8                	addi	a4,sp,204
    143e:	832c                	0x832c
    1440:	0001                	nop
    1442:	0200                	addi	s0,sp,256
    1444:	6c91                	lui	s9,0x4
    1446:	701a                	flw	ft0,164(sp)
    1448:	0100                	addi	s0,sp,128
    144a:	01f8                	addi	a4,sp,204
    144c:	c946                	sw	a7,144(sp)
    144e:	0004                	0x4
    1450:	0200                	addi	s0,sp,256
    1452:	6891                	lui	a7,0x4
    1454:	1e00                	addi	s0,sp,816
    1456:	0000056b          	0x56b
    145a:	ef01                	bnez	a4,1472 <REGBYTES+0x146e>
    145c:	0d01                	addi	s10,s10,0
    145e:	1504                	addi	s1,sp,672
    1460:	8000                	0x8000
    1462:	0028                	addi	a0,sp,8
    1464:	0000                	unimp
    1466:	9c01                	0x9c01
    1468:	0969                	addi	s2,s2,26
    146a:	0000                	unimp
    146c:	00043117          	auipc	sp,0x43
    1470:	0100                	addi	s0,sp,128
    1472:	832c01ef          	jal	gp,fffc14a4 <bootstack+0x7f6c14a4>
    1476:	0001                	nop
    1478:	0200                	addi	s0,sp,256
    147a:	6c91                	lui	s9,0x4
    147c:	701a                	flw	ft0,164(sp)
    147e:	0100                	addi	s0,sp,128
    1480:	c94601ef          	jal	gp,fff61914 <bootstack+0x7f661914>
    1484:	0004                	0x4
    1486:	0200                	addi	s0,sp,256
    1488:	6891                	lui	a7,0x4
    148a:	1e00                	addi	s0,sp,816
    148c:	067c                	addi	a5,sp,780
    148e:	0000                	unimp
    1490:	bd01                	j	12a0 <REGBYTES+0x129c>
    1492:	0d01                	addi	s10,s10,0
    1494:	13b0                	addi	a2,sp,488
    1496:	8000                	0x8000
    1498:	0154                	addi	a3,sp,132
    149a:	0000                	unimp
    149c:	9c01                	0x9c01
    149e:	099f 0000 3117      	0x31170000099f
    14a4:	0004                	0x4
    14a6:	0100                	addi	s0,sp,128
    14a8:	01bd                	addi	gp,gp,15
    14aa:	832e                	mv	t1,a1
    14ac:	0001                	nop
    14ae:	0200                	addi	s0,sp,256
    14b0:	6c91                	lui	s9,0x4
    14b2:	701a                	flw	ft0,164(sp)
    14b4:	0100                	addi	s0,sp,128
    14b6:	01bd                	addi	gp,gp,15
    14b8:	c948                	sw	a0,20(a0)
    14ba:	0004                	0x4
    14bc:	0200                	addi	s0,sp,256
    14be:	6891                	lui	a7,0x4
    14c0:	2100                	fld	fs0,0(a0)
    14c2:	039e                	slli	t2,t2,0x7
    14c4:	0000                	unimp
    14c6:	b401                	j	ec6 <REGBYTES+0xec2>
    14c8:	0c01                	addi	s8,s8,0
    14ca:	0075                	c.nop	29
    14cc:	0000                	unimp
    14ce:	1378                	addi	a4,sp,428
    14d0:	8000                	0x8000
    14d2:	0038                	addi	a4,sp,8
    14d4:	0000                	unimp
    14d6:	9c01                	0x9c01
    14d8:	000009db          	0x9db
    14dc:	00043117          	auipc	sp,0x43
    14e0:	0100                	addi	s0,sp,128
    14e2:	01b4                	addi	a3,sp,200
    14e4:	202a                	fld	ft0,136(sp)
    14e6:	0001                	nop
    14e8:	0200                	addi	s0,sp,256
    14ea:	6e91                	lui	t4,0x4
    14ec:	00041f17          	auipc	t5,0x41
    14f0:	0100                	addi	s0,sp,128
    14f2:	01b4                	addi	a3,sp,200
    14f4:	e03d                	bnez	s0,155a <REGBYTES+0x1556>
    14f6:	0000                	unimp
    14f8:	0200                	addi	s0,sp,256
    14fa:	6891                	lui	a7,0x4
    14fc:	2100                	fld	fs0,0(a0)
    14fe:	000005b3          	add	a1,zero,zero
    1502:	9d01                	0x9d01
    1504:	1701                	addi	a4,a4,-32
    1506:	0000009b          	0x9b
    150a:	1302                	slli	t1,t1,0x20
    150c:	8000                	0x8000
    150e:	0076                	c.slli	zero,0x1d
    1510:	0000                	unimp
    1512:	9c01                	0x9c01
    1514:	0a35                	addi	s4,s4,13
    1516:	0000                	unimp
    1518:	691a                	flw	fs2,132(sp)
    151a:	0064                	addi	s1,sp,12
    151c:	9d01                	0x9d01
    151e:	3201                	jal	e1e <REGBYTES+0xe1a>
    1520:	0114                	addi	a3,sp,128
    1522:	0000                	unimp
    1524:	9102                	jalr	sp
    1526:	175c                	addi	a5,sp,932
    1528:	03ad                	addi	t2,t2,11
    152a:	0000                	unimp
    152c:	9d01                	0x9d01
    152e:	3b01                	jal	123e <REGBYTES+0x123a>
    1530:	0355                	addi	t1,t1,21
    1532:	0000                	unimp
    1534:	9102                	jalr	sp
    1536:	1a58                	addi	a4,sp,308
    1538:	7070                	flw	fa2,100(s0)
    153a:	0100                	addi	s0,sp,128
    153c:	019d                	addi	gp,gp,7
    153e:	cd49                	beqz	a0,15d8 <REGBYTES+0x15d4>
    1540:	0000                	unimp
    1542:	0200                	addi	s0,sp,256
    1544:	5491                	li	s1,-28
    1546:	0004041b          	0x4041b
    154a:	0100                	addi	s0,sp,128
    154c:	01a0                	addi	s0,sp,200
    154e:	350e                	fld	fa0,224(sp)
    1550:	000a                	c.slli	zero,0x2
    1552:	0200                	addi	s0,sp,256
    1554:	6c91                	lui	s9,0x4
    1556:	0500                	addi	s0,sp,640
    1558:	1104                	addi	s1,sp,160
    155a:	0006                	c.slli	zero,0x1
    155c:	2100                	fld	fs0,0(a0)
    155e:	0559                	addi	a0,a0,22
    1560:	0000                	unimp
    1562:	8c01                	sub	s0,s0,s0
    1564:	0c01                	addi	s8,s8,0
    1566:	0075                	c.nop	29
    1568:	0000                	unimp
    156a:	128a                	slli	t0,t0,0x22
    156c:	8000                	0x8000
    156e:	0078                	addi	a4,sp,12
    1570:	0000                	unimp
    1572:	9c01                	0x9c01
    1574:	0a94                	addi	a3,sp,336
    1576:	0000                	unimp
    1578:	691a                	flw	fs2,132(sp)
    157a:	0064                	addi	s1,sp,12
    157c:	8c01                	sub	s0,s0,s0
    157e:	2701                	jal	1c7e <REGBYTES+0x1c7a>
    1580:	0114                	addi	a3,sp,128
    1582:	0000                	unimp
    1584:	9102                	jalr	sp
    1586:	175c                	addi	a5,sp,932
    1588:	042c                	addi	a1,sp,520
    158a:	0000                	unimp
    158c:	8c01                	sub	s0,s0,s0
    158e:	2f01                	jal	1c9e <REGBYTES+0x1c9a>
    1590:	0075                	c.nop	29
    1592:	0000                	unimp
    1594:	9102                	jalr	sp
    1596:	1a58                	addi	a4,sp,308
    1598:	0070                	addi	a2,sp,12
    159a:	8c01                	sub	s0,s0,s0
    159c:	3b01                	jal	12ac <REGBYTES+0x12a8>
    159e:	000000d3          	fadd.s	ft1,ft0,ft0,rne
    15a2:	9102                	jalr	sp
    15a4:	1b54                	addi	a3,sp,436
    15a6:	0404                	addi	s1,sp,512
    15a8:	0000                	unimp
    15aa:	8e01                	sub	a2,a2,s0
    15ac:	0e01                	addi	t3,t3,0
    15ae:	0a35                	addi	s4,s4,13
    15b0:	0000                	unimp
    15b2:	9102                	jalr	sp
    15b4:	006c                	addi	a1,sp,12
    15b6:	cc21                	beqz	s0,160e <REGBYTES+0x160a>
    15b8:	0005                	c.nop	1
    15ba:	0100                	addi	s0,sp,128
    15bc:	0185                	addi	gp,gp,1
    15be:	750c                	flw	fa1,40(a0)
    15c0:	0000                	unimp
    15c2:	6800                	flw	fs0,16(s0)
    15c4:	0012                	c.slli	zero,0x4
    15c6:	2280                	fld	fs0,0(a3)
    15c8:	0000                	unimp
    15ca:	0100                	addi	s0,sp,128
    15cc:	be9c                	fsd	fa5,56(a3)
    15ce:	000a                	c.slli	zero,0x2
    15d0:	1a00                	addi	s0,sp,304
    15d2:	0070                	addi	a2,sp,12
    15d4:	8501                	c.srai64	a0
    15d6:	2001                	jal	15d6 <REGBYTES+0x15d2>
    15d8:	000000d3          	fadd.s	ft1,ft0,ft0,rne
    15dc:	9102                	jalr	sp
    15de:	006c                	addi	a1,sp,12
    15e0:	3421                	jal	fe8 <REGBYTES+0xfe4>
    15e2:	0005                	c.nop	1
    15e4:	0100                	addi	s0,sp,128
    15e6:	017f                	0x17f
    15e8:	ba0e                	fsd	ft3,304(sp)
    15ea:	0002                	c.slli64	zero
    15ec:	4600                	lw	s0,8(a2)
    15ee:	0012                	c.slli	zero,0x4
    15f0:	2280                	fld	fs0,0(a3)
    15f2:	0000                	unimp
    15f4:	0100                	addi	s0,sp,128
    15f6:	ea9c                	fsw	fa5,16(a3)
    15f8:	000a                	c.slli	zero,0x2
    15fa:	1700                	addi	s0,sp,928
    15fc:	042c                	addi	a1,sp,520
    15fe:	0000                	unimp
    1600:	7f01                	lui	t5,0xfffe0
    1602:	2101                	jal	1a02 <REGBYTES+0x19fe>
    1604:	0075                	c.nop	29
    1606:	0000                	unimp
    1608:	9102                	jalr	sp
    160a:	006c                	addi	a1,sp,12
    160c:	d021                	beqz	s0,154c <REGBYTES+0x1548>
    160e:	0004                	0x4
    1610:	0100                	addi	s0,sp,128
    1612:	0176                	slli	sp,sp,0x1d
    1614:	750c                	flw	fa1,40(a0)
    1616:	0000                	unimp
    1618:	0200                	addi	s0,sp,256
    161a:	0012                	c.slli	zero,0x4
    161c:	4480                	lw	s0,8(s1)
    161e:	0000                	unimp
    1620:	0100                	addi	s0,sp,128
    1622:	269c                	fld	fa5,8(a3)
    1624:	1700000b          	0x1700000b
    1628:	06b4                	addi	a3,sp,840
    162a:	0000                	unimp
    162c:	7601                	lui	a2,0xfffe0
    162e:	1d01                	addi	s10,s10,-32
    1630:	0075                	c.nop	29
    1632:	0000                	unimp
    1634:	9102                	jalr	sp
    1636:	205c                	fld	fa5,128(s0)
    1638:	00646c6f          	jal	s8,4763e <REGBYTES+0x4763a>
    163c:	7801                	lui	a6,0xfffe0
    163e:	0701                	addi	a4,a4,0
    1640:	0075                	c.nop	29
    1642:	0000                	unimp
    1644:	9102                	jalr	sp
    1646:	006c                	addi	a1,sp,12
    1648:	9c22                	add	s8,s8,s0
    164a:	0004                	0x4
    164c:	0100                	addi	s0,sp,128
    164e:	0170                	addi	a2,sp,140
    1650:	00009b17          	auipc	s6,0x9
    1654:	e400                	fsw	fs0,8(s0)
    1656:	0011                	c.nop	4
    1658:	1e80                	addi	s0,sp,880
    165a:	0000                	unimp
    165c:	0100                	addi	s0,sp,128
    165e:	219c                	fld	fa5,0(a1)
    1660:	0468                	addi	a0,sp,524
    1662:	0000                	unimp
    1664:	6101                	0x6101
    1666:	0c01                	addi	s8,s8,0
    1668:	0075                	c.nop	29
    166a:	0000                	unimp
    166c:	11ba                	slli	gp,gp,0x2e
    166e:	8000                	0x8000
    1670:	002a                	c.slli	zero,0xa
    1672:	0000                	unimp
    1674:	9c01                	0x9c01
    1676:	0b68                	addi	a0,sp,412
    1678:	0000                	unimp
    167a:	691a                	flw	fs2,132(sp)
    167c:	0064                	addi	s1,sp,12
    167e:	6101                	0x6101
    1680:	2901                	jal	1a90 <REGBYTES+0x1a8c>
    1682:	0000009b          	0x9b
    1686:	9102                	jalr	sp
    1688:	006c                	addi	a1,sp,12
    168a:	00066423          	0x66423
    168e:	0100                	addi	s0,sp,128
    1690:	0158                	addi	a4,sp,132
    1692:	750c                	flw	fa1,40(a0)
    1694:	0000                	unimp
    1696:	aa00                	fsd	fs0,16(a2)
    1698:	0011                	c.nop	4
    169a:	1080                	addi	s0,sp,96
    169c:	0000                	unimp
    169e:	0100                	addi	s0,sp,128
    16a0:	229c                	fld	fa5,0(a3)
    16a2:	0000050b          	0x50b
    16a6:	4f01                	li	t5,0
    16a8:	0c01                	addi	s8,s8,0
    16aa:	0075                	c.nop	29
    16ac:	0000                	unimp
    16ae:	1194                	addi	a3,sp,224
    16b0:	8000                	0x8000
    16b2:	0016                	c.slli	zero,0x5
    16b4:	0000                	unimp
    16b6:	9c01                	0x9c01
    16b8:	a722                	fsd	fs0,392(sp)
    16ba:	0005                	c.nop	1
    16bc:	0100                	addi	s0,sp,128
    16be:	0141                	addi	sp,sp,16
    16c0:	750c                	flw	fa1,40(a0)
    16c2:	0000                	unimp
    16c4:	4c00                	lw	s0,24(s0)
    16c6:	0011                	c.nop	4
    16c8:	4880                	lw	s0,16(s1)
    16ca:	0000                	unimp
    16cc:	0100                	addi	s0,sp,128
    16ce:	249c                	fld	fa5,8(s1)
    16d0:	04f6                	slli	s1,s1,0x1d
    16d2:	0000                	unimp
    16d4:	d401                	beqz	s0,15dc <REGBYTES+0x15d8>
    16d6:	00009b17          	auipc	s6,0x9
    16da:	8000                	0x8000
    16dc:	000d                	c.nop	3
    16de:	cc80                	sw	s0,24(s1)
    16e0:	01000003          	lb	zero,16(zero) # 10 <REGBYTES+0xc>
    16e4:	6a9c                	flw	fa5,16(a3)
    16e6:	000c                	0xc
    16e8:	2500                	fld	fs0,8(a0)
    16ea:	047d                	addi	s0,s0,31
    16ec:	0000                	unimp
    16ee:	d401                	beqz	s0,15f6 <REGBYTES+0x15f2>
    16f0:	a72c                	fsd	fa1,72(a4)
    16f2:	0000                	unimp
    16f4:	0200                	addi	s0,sp,256
    16f6:	5c91                	li	s9,-28
    16f8:	ec25                	bnez	s0,1770 <REGBYTES+0x176c>
    16fa:	0004                	0x4
    16fc:	0100                	addi	s0,sp,128
    16fe:	38d4                	fld	fa3,176(s1)
    1700:	000000d3          	fadd.s	ft1,ft0,ft0,rne
    1704:	9102                	jalr	sp
    1706:	2558                	fld	fa4,136(a0)
    1708:	06b4                	addi	a3,sp,840
    170a:	0000                	unimp
    170c:	d401                	beqz	s0,1614 <REGBYTES+0x1610>
    170e:	7542                	flw	fa0,48(sp)
    1710:	0000                	unimp
    1712:	0200                	addi	s0,sp,256
    1714:	5491                	li	s1,-28
    1716:	2725                	jal	1e3e <REGBYTES+0x1e3a>
    1718:	0004                	0x4
    171a:	0100                	addi	s0,sp,128
    171c:	50d4                	lw	a3,36(s1)
    171e:	0075                	c.nop	29
    1720:	0000                	unimp
    1722:	9102                	jalr	sp
    1724:	2550                	fld	fa2,136(a0)
    1726:	005e                	c.slli	zero,0x17
    1728:	0000                	unimp
    172a:	d401                	beqz	s0,1632 <REGBYTES+0x162e>
    172c:	755f 0000 0200      	0x2000000755f
    1732:	4c91                	li	s9,4
    1734:	0625                	addi	a2,a2,9
    1736:	0001                	nop
    1738:	0100                	addi	s0,sp,128
    173a:	6bd4                	flw	fa3,20(a5)
    173c:	00cd                	addi	ra,ra,19
    173e:	0000                	unimp
    1740:	9102                	jalr	sp
    1742:	2648                	fld	fa0,136(a2)
    1744:	0069                	c.nop	26
    1746:	d601                	beqz	a2,164e <REGBYTES+0x164a>
    1748:	00007507          	0x7507
    174c:	0200                	addi	s0,sp,256
    174e:	6c91                	lui	s9,0x4
    1750:	7426                	flw	fs0,104(sp)
    1752:	7068                	flw	fa0,100(s0)
    1754:	0100                	addi	s0,sp,128
    1756:	05c40ed7          	0x5c40ed7
    175a:	0000                	unimp
    175c:	9102                	jalr	sp
    175e:	2668                	fld	fa0,200(a2)
    1760:	01007073          	csrci	0x10,0
    1764:	0dd8                	addi	a4,sp,724
    1766:	0462                	slli	s0,s0,0x18
    1768:	0000                	unimp
    176a:	9102                	jalr	sp
    176c:	2764                	fld	fs1,200(a4)
    176e:	0501                	addi	a0,a0,0
    1770:	0000                	unimp
    1772:	d901                	beqz	a0,1682 <REGBYTES+0x167e>
    1774:	0000d90f          	0xd90f
    1778:	1500                	addi	s0,sp,672
    177a:	0444                	addi	s1,sp,516
    177c:	0000                	unimp
    177e:	da01                	beqz	a2,168e <REGBYTES+0x168a>
    1780:	d310                	sw	a2,32(a4)
    1782:	0000                	unimp
    1784:	0500                	addi	s0,sp,640
    1786:	0032c003          	lbu	zero,3(t0)
    178a:	0080                	addi	s0,sp,64
    178c:	5c28                	lw	a0,120(s0)
    178e:	0004                	0x4
    1790:	0100                	addi	s0,sp,128
    1792:	0dc5                	addi	s11,s11,17
    1794:	0d50                	addi	a2,sp,660
    1796:	8000                	0x8000
    1798:	0030                	addi	a2,sp,8
    179a:	0000                	unimp
    179c:	9c01                	0x9c01
    179e:	0c90                	addi	a2,sp,592
    17a0:	0000                	unimp
    17a2:	7429                	lui	s0,0xfffea
    17a4:	7068                	flw	fa0,100(s0)
    17a6:	0100                	addi	s0,sp,128
    17a8:	24c5                	jal	1a88 <REGBYTES+0x1a84>
    17aa:	05c4                	addi	s1,sp,708
    17ac:	0000                	unimp
    17ae:	9102                	jalr	sp
    17b0:	006c                	addi	a1,sp,12
    17b2:	8b2a                	mv	s6,a0
    17b4:	0006                	c.slli	zero,0x1
    17b6:	0100                	addi	s0,sp,128
    17b8:	0dbd                	addi	s11,s11,15
    17ba:	0d3a                	slli	s10,s10,0xe
    17bc:	8000                	0x8000
    17be:	0016                	c.slli	zero,0x5
    17c0:	0000                	unimp
    17c2:	9c01                	0x9c01
    17c4:	0e28                	addi	a0,sp,792
    17c6:	01000007          	0x1000007
    17ca:	0d9e                	slli	s11,s11,0x7
    17cc:	0ca0                	addi	s0,sp,600
    17ce:	8000                	0x8000
    17d0:	009a                	slli	ra,ra,0x6
    17d2:	0000                	unimp
    17d4:	9c01                	0x9c01
    17d6:	00000ce3          	beqz	zero,1fee <REGBYTES+0x1fea>
    17da:	0425                	addi	s0,s0,9
    17dc:	0004                	0x4
    17de:	0100                	addi	s0,sp,128
    17e0:	209e                	fld	ft1,448(sp)
    17e2:	0a35                	addi	s4,s4,13
    17e4:	0000                	unimp
    17e6:	9102                	jalr	sp
    17e8:	265c                	fld	fa5,136(a2)
    17ea:	706d                	c.lui	zero,0xffffb
    17ec:	0100                	addi	s0,sp,128
    17ee:	0ea0                	addi	s0,sp,856
    17f0:	0000060b          	0x60b
    17f4:	9102                	jalr	sp
    17f6:	266c                	fld	fa1,200(a2)
    17f8:	0070                	addi	a2,sp,12
    17fa:	a101                	j	1bfa <REGBYTES+0x1bf6>
    17fc:	0004c917          	auipc	s2,0x4c
    1800:	0200                	addi	s0,sp,256
    1802:	6891                	lui	a7,0x4
    1804:	2800                	fld	fs0,16(s0)
    1806:	03e9                	addi	t2,t2,26
    1808:	0000                	unimp
    180a:	8801                	andi	s0,s0,0
    180c:	1a0d                	addi	s4,s4,-29
    180e:	000c                	0xc
    1810:	8680                	0x8680
    1812:	0000                	unimp
    1814:	0100                	addi	s0,sp,128
    1816:	429c                	lw	a5,0(a3)
    1818:	000d                	c.nop	3
    181a:	2500                	fld	fs0,8(a0)
    181c:	0404                	addi	s1,sp,512
    181e:	0000                	unimp
    1820:	8801                	andi	s0,s0,0
    1822:	3520                	fld	fs0,104(a0)
    1824:	000a                	c.slli	zero,0x2
    1826:	0200                	addi	s0,sp,256
    1828:	5c91                	li	s9,-28
    182a:	7429                	lui	s0,0xfffea
    182c:	7068                	flw	fa0,100(s0)
    182e:	0100                	addi	s0,sp,128
    1830:	3288                	fld	fa0,32(a3)
    1832:	05c4                	addi	s1,sp,708
    1834:	0000                	unimp
    1836:	9102                	jalr	sp
    1838:	2558                	fld	fa4,136(a0)
    183a:	042c                	addi	a1,sp,520
    183c:	0000                	unimp
    183e:	8801                	andi	s0,s0,0
    1840:	0000753b          	0x753b
    1844:	0200                	addi	s0,sp,256
    1846:	5491                	li	s1,-28
    1848:	7029                	c.lui	zero,0xfffea
    184a:	0100                	addi	s0,sp,128
    184c:	4788                	lw	a0,8(a5)
    184e:	000000d3          	fadd.s	ft1,ft0,ft0,rne
    1852:	9102                	jalr	sp
    1854:	2650                	fld	fa2,136(a2)
    1856:	706d                	c.lui	zero,0xffffb
    1858:	0100                	addi	s0,sp,128
    185a:	0e8a                	slli	t4,t4,0x2
    185c:	0000060b          	0x60b
    1860:	9102                	jalr	sp
    1862:	006c                	addi	a1,sp,12
    1864:	0004822b          	0x4822b
    1868:	0100                	addi	s0,sp,128
    186a:	00750c73          	0x750c73
    186e:	0000                	unimp
    1870:	0b3e                	slli	s6,s6,0xf
    1872:	8000                	0x8000
    1874:	00dc                	addi	a5,sp,68
    1876:	0000                	unimp
    1878:	9c01                	0x9c01
    187a:	00059c2b          	0x59c2b
    187e:	0100                	addi	s0,sp,128
    1880:	0c5d                	addi	s8,s8,23
    1882:	0075                	c.nop	29
    1884:	0000                	unimp
    1886:	0a84                	addi	s1,sp,336
    1888:	8000                	0x8000
    188a:	00ba                	slli	ra,ra,0xe
    188c:	0000                	unimp
    188e:	9c01                	0x9c01
    1890:	0100                	addi	s0,sp,128
    1892:	0008                	0x8
    1894:	0400                	addi	s0,sp,512
    1896:	8000                	0x8000
    1898:	0006                	c.slli	zero,0x1
    189a:	0400                	addi	s0,sp,512
    189c:	8801                	andi	s0,s0,0
    189e:	0000                	unimp
    18a0:	0c00                	addi	s0,sp,528
    18a2:	07b6                	slli	a5,a5,0xd
    18a4:	0000                	unimp
    18a6:	000a                	c.slli	zero,0x2
    18a8:	0000                	unimp
    18aa:	188c                	addi	a1,sp,112
    18ac:	8000                	0x8000
    18ae:	0326                	slli	t1,t1,0x9
    18b0:	0000                	unimp
    18b2:	1bf9                	addi	s7,s7,-2
    18b4:	0000                	unimp
    18b6:	0102                	c.slli64	sp
    18b8:	7c06                	flw	fs8,96(sp)
    18ba:	0000                	unimp
    18bc:	0200                	addi	s0,sp,256
    18be:	0801                	addi	a6,a6,0
    18c0:	007a                	c.slli	zero,0x1e
    18c2:	0000                	unimp
    18c4:	0202                	c.slli64	tp
    18c6:	fc05                	bnez	s0,17fe <REGBYTES+0x17fa>
    18c8:	0000                	unimp
    18ca:	0200                	addi	s0,sp,256
    18cc:	0702                	c.slli64	a4
    18ce:	00e9                	addi	ra,ra,26
    18d0:	0000                	unimp
    18d2:	0402                	c.slli64	s0
    18d4:	3a05                	jal	1204 <REGBYTES+0x1200>
    18d6:	0000                	unimp
    18d8:	0300                	addi	s0,sp,384
    18da:	000001fb          	0x1fb
    18de:	4f02                	lw	t5,0(sp)
    18e0:	5419                	li	s0,-26
    18e2:	0000                	unimp
    18e4:	0200                	addi	s0,sp,256
    18e6:	0704                	addi	s1,sp,896
    18e8:	0068                	addi	a0,sp,12
    18ea:	0000                	unimp
    18ec:	0802                	c.slli64	a6
    18ee:	3505                	jal	170e <REGBYTES+0x170a>
    18f0:	0000                	unimp
    18f2:	0200                	addi	s0,sp,256
    18f4:	0708                	addi	a0,sp,896
    18f6:	00000063          	beqz	zero,18f6 <REGBYTES+0x18f2>
    18fa:	0404                	addi	s1,sp,512
    18fc:	6905                	lui	s2,0x1
    18fe:	746e                	flw	fs0,248(sp)
    1900:	0200                	addi	s0,sp,256
    1902:	0704                	addi	s1,sp,896
    1904:	006d                	c.nop	27
    1906:	0000                	unimp
    1908:	0001fd03          	0x1fd03
    190c:	0300                	addi	s0,sp,384
    190e:	1430                	addi	a2,sp,552
    1910:	0048                	addi	a0,sp,4
    1912:	0000                	unimp
    1914:	0004dd03          	lhu	s10,0(s1) # 4000 <REGBYTES+0x3ffc>
    1918:	0400                	addi	s0,sp,512
    191a:	0077120b          	0x77120b
    191e:	0000                	unimp
    1920:	0003f103          	0x3f103
    1924:	0400                	addi	s0,sp,512
    1926:	0f0c                	addi	a1,sp,912
    1928:	0000009b          	0x9b
    192c:	0405                	addi	s0,s0,1
    192e:	00a1                	addi	ra,ra,8
    1930:	0000                	unimp
    1932:	6906                	flw	fs2,64(sp)
    1934:	0000                	unimp
    1936:	b500                	fsd	fs0,40(a0)
    1938:	0000                	unimp
    193a:	0700                	addi	s0,sp,896
    193c:	0069                	c.nop	26
    193e:	0000                	unimp
    1940:	0000b507          	fld	fa0,0(ra)
    1944:	0000                	unimp
    1946:	0405                	addi	s0,s0,1
    1948:	000000bb          	0xbb
    194c:	0405                	addi	s0,s0,1
    194e:	00c1                	addi	ra,ra,16
    1950:	0000                	unimp
    1952:	0102                	c.slli64	sp
    1954:	8308                	0x8308
    1956:	0000                	unimp
    1958:	0300                	addi	s0,sp,384
    195a:	054c                	addi	a1,sp,644
    195c:	0000                	unimp
    195e:	0d04                	addi	s1,sp,656
    1960:	d410                	sw	a2,40(s0)
    1962:	0000                	unimp
    1964:	0500                	addi	s0,sp,640
    1966:	da04                	sw	s1,48(a2)
    1968:	0000                	unimp
    196a:	0800                	addi	s0,sp,16
    196c:	0709                	addi	a4,a4,2
    196e:	7004                	flw	fs1,32(s0)
    1970:	0000                	unimp
    1972:	0400                	addi	s0,sp,512
    1974:	00fc0e0f          	0xfc0e0f
    1978:	0000                	unimp
    197a:	bd0a                	fsd	ft2,184(sp)
    197c:	0006                	c.slli	zero,0x1
    197e:	0000                	unimp
    1980:	960a                	add	a2,a2,sp
    1982:	0006                	c.slli	zero,0x1
    1984:	0100                	addi	s0,sp,128
    1986:	320a                	fld	ft4,160(sp)
    1988:	0006                	c.slli	zero,0x1
    198a:	0200                	addi	s0,sp,256
    198c:	0300                	addi	s0,sp,384
    198e:	0359                	addi	t1,t1,22
    1990:	0000                	unimp
    1992:	1304                	addi	s1,sp,416
    1994:	0000db03          	lhu	s6,0(ra)
    1998:	0300                	addi	s0,sp,384
    199a:	048d                	addi	s1,s1,3
    199c:	0000                	unimp
    199e:	0705                	addi	a4,a4,1
    19a0:	0000330f          	0x330f
    19a4:	0900                	addi	s0,sp,144
    19a6:	00700407          	0x700407
    19aa:	0000                	unimp
    19ac:	0806                	slli	a6,a6,0x1
    19ae:	6b0e                	flw	fs6,192(sp)
    19b0:	0001                	nop
    19b2:	0a00                	addi	s0,sp,272
    19b4:	0732                	slli	a4,a4,0xc
    19b6:	0000                	unimp
    19b8:	0a00                	addi	s0,sp,272
    19ba:	0389                	addi	t2,t2,2
    19bc:	0000                	unimp
    19be:	0a01                	addi	s4,s4,0
    19c0:	04b5                	addi	s1,s1,13
    19c2:	0000                	unimp
    19c4:	0a02                	c.slli64	s4
    19c6:	00000343          	fmadd.s	ft6,ft0,ft0,ft0,rne
    19ca:	07160a03          	lb	s4,113(a2) # fffe0071 <bootstack+0x7f6e0071>
    19ce:	0000                	unimp
    19d0:	0a04                	addi	s1,sp,272
    19d2:	064e                	slli	a2,a2,0x13
    19d4:	0000                	unimp
    19d6:	0a05                	addi	s4,s4,1
    19d8:	0368                	addi	a0,sp,396
    19da:	0000                	unimp
    19dc:	0a06                	slli	s4,s4,0x1
    19de:	000005eb          	0x5eb
    19e2:	05850a07          	0x5850a07
    19e6:	0000                	unimp
    19e8:	0a08                	addi	a0,sp,272
    19ea:	040a                	slli	s0,s0,0x2
    19ec:	0000                	unimp
    19ee:	0a09                	addi	s4,s4,2
    19f0:	0000060b          	0x60b
    19f4:	0a0a                	slli	s4,s4,0x2
    19f6:	03d1                	addi	t2,t2,20
    19f8:	0000                	unimp
    19fa:	1c0b000b          	0x1c0b000b
    19fe:	1b06                	slli	s6,s6,0x21
    1a00:	d005                	beqz	s0,1920 <REGBYTES+0x191c>
    1a02:	0001                	nop
    1a04:	0c00                	addi	s0,sp,528
    1a06:	047d                	addi	s0,s0,31
    1a08:	0000                	unimp
    1a0a:	1c06                	slli	s8,s8,0x21
    1a0c:	8f11                	sub	a4,a4,a2
    1a0e:	0000                	unimp
    1a10:	0000                	unimp
    1a12:	ec0c                	fsw	fa1,24(s0)
    1a14:	0004                	0x4
    1a16:	0600                	addi	s0,sp,768
    1a18:	0d1d                	addi	s10,s10,7
    1a1a:	000000bb          	0xbb
    1a1e:	0c04                	addi	s1,sp,528
    1a20:	06b4                	addi	a3,sp,840
    1a22:	0000                	unimp
    1a24:	1e06                	slli	t3,t3,0x21
    1a26:	0000690b          	0x690b
    1a2a:	0800                	addi	s0,sp,16
    1a2c:	270c                	fld	fa1,8(a4)
    1a2e:	0004                	0x4
    1a30:	0600                	addi	s0,sp,768
    1a32:	0b1f 0069 0000      	0x690b1f
    1a38:	0c0c                	addi	a1,sp,528
    1a3a:	005e                	c.slli	zero,0x17
    1a3c:	0000                	unimp
    1a3e:	2006                	fld	ft0,64(sp)
    1a40:	0000690b          	0x690b
    1a44:	1000                	addi	s0,sp,32
    1a46:	060c                	addi	a1,sp,768
    1a48:	0001                	nop
    1a4a:	0600                	addi	s0,sp,768
    1a4c:	0e21                	addi	t3,t3,8
    1a4e:	00b5                	addi	ra,ra,13
    1a50:	0000                	unimp
    1a52:	0d14                	addi	a3,sp,656
    1a54:	6572                	flw	fa0,28(sp)
    1a56:	0074                	addi	a3,sp,12
    1a58:	2206                	fld	ft4,64(sp)
    1a5a:	8316                	mv	t1,t0
    1a5c:	0000                	unimp
    1a5e:	1800                	addi	s0,sp,48
    1a60:	0b00                	addi	s0,sp,400
    1a62:	0604                	addi	s1,sp,768
    1a64:	0526                	slli	a0,a0,0x9
    1a66:	000001e7          	jalr	gp,zero # 0 <REGBYTES-0x4>
    1a6a:	ca0c                	sw	a1,16(a2)
    1a6c:	0004                	0x4
    1a6e:	0600                	addi	s0,sp,768
    1a70:	00690b27          	0x690b27
    1a74:	0000                	unimp
    1a76:	0000                	unimp
    1a78:	2a06040b          	0x2a06040b
    1a7c:	fe05                	bnez	a2,19b4 <REGBYTES+0x19b0>
    1a7e:	0001                	nop
    1a80:	0d00                	addi	s0,sp,656
    1a82:	6572                	flw	fa0,28(sp)
    1a84:	0074                	addi	a3,sp,12
    1a86:	2b06                	fld	fs6,64(sp)
    1a88:	0000690b          	0x690b
    1a8c:	0000                	unimp
    1a8e:	0b00                	addi	s0,sp,400
    1a90:	0604                	addi	s1,sp,768
    1a92:	052e                	slli	a0,a0,0xb
    1a94:	0215                	addi	tp,tp,5
    1a96:	0000                	unimp
    1a98:	720d                	lui	tp,0xfffe3
    1a9a:	7465                	lui	s0,0xffff9
    1a9c:	0600                	addi	s0,sp,768
    1a9e:	00690b2f          	0x690b2f
    1aa2:	0000                	unimp
    1aa4:	0000                	unimp
    1aa6:	3206080b          	0x3206080b
    1aaa:	3805                	jal	12da <REGBYTES+0x12d6>
    1aac:	0002                	c.slli64	zero
    1aae:	0d00                	addi	s0,sp,656
    1ab0:	6469                	lui	s0,0x1a
    1ab2:	0600                	addi	s0,sp,768
    1ab4:	00831633          	sll	a2,t1,s0
    1ab8:	0000                	unimp
    1aba:	0d00                	addi	s0,sp,656
    1abc:	6572                	flw	fa0,28(sp)
    1abe:	0074                	addi	a3,sp,12
    1ac0:	3406                	fld	fs0,96(sp)
    1ac2:	0000690b          	0x690b
    1ac6:	0400                	addi	s0,sp,512
    1ac8:	0b00                	addi	s0,sp,400
    1aca:	0604                	addi	s1,sp,768
    1acc:	024e0537          	lui	a0,0x24e0
    1ad0:	0000                	unimp
    1ad2:	690d                	lui	s2,0x3
    1ad4:	0064                	addi	s1,sp,12
    1ad6:	3806                	fld	fa6,96(sp)
    1ad8:	8316                	mv	t1,t0
    1ada:	0000                	unimp
    1adc:	0000                	unimp
    1ade:	0b00                	addi	s0,sp,400
    1ae0:	0608                	addi	a0,sp,768
    1ae2:	0272053b          	0x272053b
    1ae6:	0000                	unimp
    1ae8:	b40c                	fsd	fa1,40(s0)
    1aea:	0006                	c.slli	zero,0x1
    1aec:	0600                	addi	s0,sp,768
    1aee:	0b3c                	addi	a5,sp,408
    1af0:	0069                	c.nop	26
    1af2:	0000                	unimp
    1af4:	0d00                	addi	s0,sp,656
    1af6:	6572                	flw	fa0,28(sp)
    1af8:	0074                	addi	a3,sp,12
    1afa:	3d06                	fld	fs10,96(sp)
    1afc:	0000690b          	0x690b
    1b00:	0400                	addi	s0,sp,512
    1b02:	0b00                	addi	s0,sp,400
    1b04:	0608                	addi	a0,sp,768
    1b06:	0540                	addi	s0,sp,644
    1b08:	0296                	slli	t0,t0,0x5
    1b0a:	0000                	unimp
    1b0c:	2c0c                	fld	fa1,24(s0)
    1b0e:	0004                	0x4
    1b10:	0600                	addi	s0,sp,768
    1b12:	0b41                	addi	s6,s6,16
    1b14:	0069                	c.nop	26
    1b16:	0000                	unimp
    1b18:	0d00                	addi	s0,sp,656
    1b1a:	6572                	flw	fa0,28(sp)
    1b1c:	0074                	addi	a3,sp,12
    1b1e:	4206                	lw	tp,64(sp)
    1b20:	960d                	srai	a2,a2,0x23
    1b22:	0002                	c.slli64	zero
    1b24:	0400                	addi	s0,sp,512
    1b26:	0e00                	addi	s0,sp,784
    1b28:	0b04                	addi	s1,sp,400
    1b2a:	0608                	addi	a0,sp,768
    1b2c:	0545                	addi	a0,a0,17
    1b2e:	02ba                	slli	t0,t0,0xe
    1b30:	0000                	unimp
    1b32:	700d                	c.lui	zero,0xfffe3
    1b34:	0600                	addi	s0,sp,768
    1b36:	0d46                	slli	s10,s10,0x11
    1b38:	000000bb          	0xbb
    1b3c:	0d00                	addi	s0,sp,656
    1b3e:	6572                	flw	fa0,28(sp)
    1b40:	0074                	addi	a3,sp,12
    1b42:	4706                	lw	a4,64(sp)
    1b44:	0000690b          	0x690b
    1b48:	0400                	addi	s0,sp,512
    1b4a:	0b00                	addi	s0,sp,400
    1b4c:	0610                	addi	a2,sp,768
    1b4e:	054a                	slli	a0,a0,0x12
    1b50:	02f5                	addi	t0,t0,29
    1b52:	0000                	unimp
    1b54:	690d                	lui	s2,0x3
    1b56:	0064                	addi	s1,sp,12
    1b58:	4b06                	lw	s6,64(sp)
    1b5a:	fc16                	fsw	ft5,56(sp)
    1b5c:	0000                	unimp
    1b5e:	0000                	unimp
    1b60:	2c0c                	fld	fa1,24(s0)
    1b62:	0004                	0x4
    1b64:	0600                	addi	s0,sp,768
    1b66:	0b4c                	addi	a1,sp,404
    1b68:	0069                	c.nop	26
    1b6a:	0000                	unimp
    1b6c:	0d04                	addi	s1,sp,656
    1b6e:	0070                	addi	a2,sp,12
    1b70:	4d06                	lw	s10,64(sp)
    1b72:	bb0d                	j	18a4 <REGBYTES+0x18a0>
    1b74:	0000                	unimp
    1b76:	0800                	addi	s0,sp,16
    1b78:	720d                	lui	tp,0xfffe3
    1b7a:	7465                	lui	s0,0xffff9
    1b7c:	0600                	addi	s0,sp,768
    1b7e:	0b4e                	slli	s6,s6,0x13
    1b80:	0069                	c.nop	26
    1b82:	0000                	unimp
    1b84:	000c                	0xc
    1b86:	5106100b          	0x5106100b
    1b8a:	3105                	jal	17aa <REGBYTES+0x17a6>
    1b8c:	0d000003          	lb	zero,208(zero) # d0 <REGBYTES+0xcc>
    1b90:	6469                	lui	s0,0x1a
    1b92:	0600                	addi	s0,sp,768
    1b94:	1652                	slli	a2,a2,0x34
    1b96:	00fc                	addi	a5,sp,76
    1b98:	0000                	unimp
    1b9a:	0c00                	addi	s0,sp,528
    1b9c:	03ad                	addi	t2,t2,11
    1b9e:	0000                	unimp
    1ba0:	5306                	lw	t1,96(sp)
    1ba2:	310c                	fld	fa1,32(a0)
    1ba4:	04000003          	lb	zero,64(zero) # 40 <REGBYTES+0x3c>
    1ba8:	700d                	c.lui	zero,0xfffe3
    1baa:	0070                	addi	a2,sp,12
    1bac:	5406                	lw	s0,96(sp)
    1bae:	b50e                	fsd	ft3,168(sp)
    1bb0:	0000                	unimp
    1bb2:	0800                	addi	s0,sp,16
    1bb4:	720d                	lui	tp,0xfffe3
    1bb6:	7465                	lui	s0,0xffff9
    1bb8:	0600                	addi	s0,sp,768
    1bba:	1655                	addi	a2,a2,-11
    1bbc:	00000083          	lb	ra,0(zero) # 0 <REGBYTES-0x4>
    1bc0:	000c                	0xc
    1bc2:	0405                	addi	s0,s0,1
    1bc4:	0069                	c.nop	26
    1bc6:	0000                	unimp
    1bc8:	58060c0b          	0x58060c0b
    1bcc:	6805                	lui	a6,0x1
    1bce:	0c000003          	lb	zero,192(zero) # c0 <REGBYTES+0xbc>
    1bd2:	0431                	addi	s0,s0,12
    1bd4:	0000                	unimp
    1bd6:	5906                	lw	s2,96(sp)
    1bd8:	0816                	slli	a6,a6,0x5
    1bda:	0001                	nop
    1bdc:	0000                	unimp
    1bde:	1f0c                	addi	a1,sp,944
    1be0:	0004                	0x4
    1be2:	0600                	addi	s0,sp,768
    1be4:	145a                	slli	s0,s0,0x36
    1be6:	00c8                	addi	a0,sp,68
    1be8:	0000                	unimp
    1bea:	0d04                	addi	s1,sp,656
    1bec:	6572                	flw	fa0,28(sp)
    1bee:	0074                	addi	a3,sp,12
    1bf0:	5b06                	lw	s6,96(sp)
    1bf2:	0000690b          	0x690b
    1bf6:	0800                	addi	s0,sp,16
    1bf8:	0f00                	addi	s0,sp,912
    1bfa:	061c                	addi	a5,sp,768
    1bfc:	0319                	addi	t1,t1,6
    1bfe:	0402                	c.slli64	s0
    1c00:	0000                	unimp
    1c02:	7210                	flw	fa2,32(a2)
    1c04:	6e75                	lui	t3,0x1d
    1c06:	0600                	addi	s0,sp,768
    1c08:	016b0723          	sb	s6,14(s6) # a6e4 <REGBYTES+0xa6e0>
    1c0c:	0000                	unimp
    1c0e:	ae11                	j	1f22 <REGBYTES+0x1f1e>
    1c10:	0005                	c.nop	1
    1c12:	0600                	addi	s0,sp,768
    1c14:	0728                	addi	a0,sp,904
    1c16:	01d0                	addi	a2,sp,196
    1c18:	0000                	unimp
    1c1a:	1211                	addi	tp,tp,-28
    1c1c:	0005                	c.nop	1
    1c1e:	0600                	addi	s0,sp,768
    1c20:	072c                	addi	a1,sp,904
    1c22:	000001e7          	jalr	gp,zero # 0 <REGBYTES-0x4>
    1c26:	6b11                	lui	s6,0x4
    1c28:	0006                	c.slli	zero,0x1
    1c2a:	0600                	addi	s0,sp,768
    1c2c:	0730                	addi	a2,sp,904
    1c2e:	01fe                	slli	gp,gp,0x1f
    1c30:	0000                	unimp
    1c32:	6f11                	lui	t5,0x4
    1c34:	0004                	0x4
    1c36:	0600                	addi	s0,sp,768
    1c38:	0735                	addi	a4,a4,13
    1c3a:	0215                	addi	tp,tp,5
    1c3c:	0000                	unimp
    1c3e:	a311                	j	2142 <REGBYTES+0x213e>
    1c40:	0004                	0x4
    1c42:	0600                	addi	s0,sp,768
    1c44:	0739                	addi	a4,a4,14
    1c46:	0238                	addi	a4,sp,264
    1c48:	0000                	unimp
    1c4a:	d711                	beqz	a4,1b56 <REGBYTES+0x1b52>
    1c4c:	0004                	0x4
    1c4e:	0600                	addi	s0,sp,768
    1c50:	073e                	slli	a4,a4,0xf
    1c52:	024e                	slli	tp,tp,0x13
    1c54:	0000                	unimp
    1c56:	3b11                	jal	196a <REGBYTES+0x1966>
    1c58:	0005                	c.nop	1
    1c5a:	0600                	addi	s0,sp,768
    1c5c:	02720743          	fmadd.d	fa4,ft4,ft7,ft0,rne
    1c60:	0000                	unimp
    1c62:	d311                	beqz	a4,1b66 <REGBYTES+0x1b62>
    1c64:	0005                	c.nop	1
    1c66:	0600                	addi	s0,sp,768
    1c68:	0748                	addi	a0,sp,900
    1c6a:	0298                	addi	a4,sp,320
    1c6c:	0000                	unimp
    1c6e:	6011                	c.lui	zero,0x4
    1c70:	0005                	c.nop	1
    1c72:	0600                	addi	s0,sp,768
    1c74:	02ba074f          	fnmadd.d	fa4,fs4,fa1,ft0,rne
    1c78:	0000                	unimp
    1c7a:	ba11                	j	158e <REGBYTES+0x158a>
    1c7c:	0005                	c.nop	1
    1c7e:	0600                	addi	s0,sp,768
    1c80:	0756                	slli	a4,a4,0x15
    1c82:	02f5                	addi	t0,t0,29
    1c84:	0000                	unimp
    1c86:	a511                	j	228a <REGBYTES+0x2286>
    1c88:	06000003          	lb	zero,96(zero) # 60 <REGBYTES+0x5c>
    1c8c:	075c                	addi	a5,sp,900
    1c8e:	00000337          	lui	t1,0x0
    1c92:	0b00                	addi	s0,sp,400
    1c94:	061c                	addi	a5,sp,768
    1c96:	0918                	addi	a4,sp,144
    1c98:	0418                	addi	a4,sp,512
    1c9a:	0000                	unimp
    1c9c:	750d                	lui	a0,0xfffe3
    1c9e:	006e                	c.slli	zero,0x1b
    1ca0:	5d06                	lw	s10,96(sp)
    1ca2:	6805                	lui	a6,0x1
    1ca4:	00000003          	lb	zero,0(zero) # 0 <REGBYTES-0x4>
    1ca8:	0300                	addi	s0,sp,384
    1caa:	03be                	slli	t2,t2,0xf
    1cac:	0000                	unimp
    1cae:	5e06                	lw	t3,96(sp)
    1cb0:	00040203          	lb	tp,0(s0) # ffff9000 <bootstack+0x7f6f9000>
    1cb4:	1200                	addi	s0,sp,288
    1cb6:	077e                	slli	a4,a4,0x1f
    1cb8:	0000                	unimp
    1cba:	8f01                	sub	a4,a4,s0
    1cbc:	6905                	lui	s2,0x1
    1cbe:	0000                	unimp
    1cc0:	6e00                	flw	fs0,24(a2)
    1cc2:	4480001b          	0x4480001b
    1cc6:	0000                	unimp
    1cc8:	0100                	addi	s0,sp,128
    1cca:	789c                	flw	fa5,48(s1)
    1ccc:	0004                	0x4
    1cce:	1300                	addi	s0,sp,416
    1cd0:	6469                	lui	s0,0x1a
    1cd2:	0100                	addi	s0,sp,128
    1cd4:	00fc1c8f          	0xfc1c8f
    1cd8:	0000                	unimp
    1cda:	9102                	jalr	sp
    1cdc:	144c                	addi	a1,sp,548
    1cde:	042c                	addi	a1,sp,520
    1ce0:	0000                	unimp
    1ce2:	8f01                	sub	a4,a4,s0
    1ce4:	6924                	flw	fs1,80(a0)
    1ce6:	0000                	unimp
    1ce8:	0200                	addi	s0,sp,256
    1cea:	4891                	li	a7,4
    1cec:	01007013          	andi	zero,zero,16
    1cf0:	00bb308f          	0xbb308f
    1cf4:	0000                	unimp
    1cf6:	9102                	jalr	sp
    1cf8:	1544                	addi	s1,sp,676
    1cfa:	0565                	addi	a0,a0,25
    1cfc:	0000                	unimp
    1cfe:	9101                	srli	a0,a0,0x20
    1d00:	1816                	slli	a6,a6,0x25
    1d02:	0004                	0x4
    1d04:	0200                	addi	s0,sp,256
    1d06:	5491                	li	s1,-28
    1d08:	1200                	addi	s0,sp,288
    1d0a:	07da                	slli	a5,a5,0x16
    1d0c:	0000                	unimp
    1d0e:	8701                	c.srai64	a4
    1d10:	6905                	lui	s2,0x1
    1d12:	0000                	unimp
    1d14:	4200                	lw	s0,0(a2)
    1d16:	2c80001b          	0x2c80001b
    1d1a:	0000                	unimp
    1d1c:	0100                	addi	s0,sp,128
    1d1e:	af9c                	fsd	fa5,24(a5)
    1d20:	0004                	0x4
    1d22:	1300                	addi	s0,sp,416
    1d24:	0070                	addi	a2,sp,12
    1d26:	8701                	c.srai64	a4
    1d28:	9615                	srai	a2,a2,0x25
    1d2a:	0002                	c.slli64	zero
    1d2c:	0200                	addi	s0,sp,256
    1d2e:	4c91                	li	s9,4
    1d30:	6515                	lui	a0,0x5
    1d32:	0005                	c.nop	1
    1d34:	0100                	addi	s0,sp,128
    1d36:	1689                	addi	a3,a3,-30
    1d38:	0418                	addi	a4,sp,512
    1d3a:	0000                	unimp
    1d3c:	9102                	jalr	sp
    1d3e:	0054                	addi	a3,sp,4
    1d40:	8d12                	mv	s10,tp
    1d42:	01000007          	0x1000007
    1d46:	077f                	0x77f
    1d48:	0296                	slli	t0,t0,0x5
    1d4a:	0000                	unimp
    1d4c:	1b16                	slli	s6,s6,0x25
    1d4e:	8000                	0x8000
    1d50:	002c                	addi	a1,sp,8
    1d52:	0000                	unimp
    1d54:	9c01                	0x9c01
    1d56:	04e8                	addi	a0,sp,588
    1d58:	0000                	unimp
    1d5a:	2c14                	fld	fa3,24(s0)
    1d5c:	0004                	0x4
    1d5e:	0100                	addi	s0,sp,128
    1d60:	167f                	0x167f
    1d62:	0069                	c.nop	26
    1d64:	0000                	unimp
    1d66:	9102                	jalr	sp
    1d68:	154c                	addi	a1,sp,676
    1d6a:	0565                	addi	a0,a0,25
    1d6c:	0000                	unimp
    1d6e:	8101                	c.srli64	a0
    1d70:	1816                	slli	a6,a6,0x25
    1d72:	0004                	0x4
    1d74:	0200                	addi	s0,sp,256
    1d76:	5491                	li	s1,-28
    1d78:	1200                	addi	s0,sp,288
    1d7a:	076a                	slli	a4,a4,0x1a
    1d7c:	0000                	unimp
    1d7e:	7701                	lui	a4,0xfffe0
    1d80:	6905                	lui	s2,0x1
    1d82:	0000                	unimp
    1d84:	ea00                	fsw	fs0,16(a2)
    1d86:	001a                	c.slli	zero,0x6
    1d88:	2c80                	fld	fs0,24(s1)
    1d8a:	0000                	unimp
    1d8c:	0100                	addi	s0,sp,128
    1d8e:	209c                	fld	fa5,0(s1)
    1d90:	0005                	c.nop	1
    1d92:	1300                	addi	s0,sp,416
    1d94:	6469                	lui	s0,0x1a
    1d96:	0100                	addi	s0,sp,128
    1d98:	00831e77          	0x831e77
    1d9c:	0000                	unimp
    1d9e:	9102                	jalr	sp
    1da0:	154c                	addi	a1,sp,676
    1da2:	0565                	addi	a0,a0,25
    1da4:	0000                	unimp
    1da6:	7901                	lui	s2,0xfffe0
    1da8:	1816                	slli	a6,a6,0x25
    1daa:	0004                	0x4
    1dac:	0200                	addi	s0,sp,256
    1dae:	5491                	li	s1,-28
    1db0:	1200                	addi	s0,sp,288
    1db2:	0000074f          	fnmadd.s	fa4,ft0,ft0,ft0,rne
    1db6:	6a01                	0x6a01
    1db8:	6905                	lui	s2,0x1
    1dba:	0000                	unimp
    1dbc:	b000                	fsd	fs0,32(s0)
    1dbe:	001a                	c.slli	zero,0x6
    1dc0:	3a80                	fld	fs0,48(a3)
    1dc2:	0000                	unimp
    1dc4:	0100                	addi	s0,sp,128
    1dc6:	689c                	flw	fa5,16(s1)
    1dc8:	0005                	c.nop	1
    1dca:	1400                	addi	s0,sp,544
    1dcc:	0431                	addi	s0,s0,12
    1dce:	0000                	unimp
    1dd0:	6a01                	0x6a01
    1dd2:	081f 0001 0200      	0x2000001081f
    1dd8:	4e91                	li	t4,4
    1dda:	1f14                	addi	a3,sp,944
    1ddc:	0004                	0x4
    1dde:	0100                	addi	s0,sp,128
    1de0:	326a                	fld	ft4,184(sp)
    1de2:	00c8                	addi	a0,sp,68
    1de4:	0000                	unimp
    1de6:	9102                	jalr	sp
    1de8:	1548                	addi	a0,sp,676
    1dea:	0565                	addi	a0,a0,25
    1dec:	0000                	unimp
    1dee:	6c01                	0x6c01
    1df0:	1816                	slli	a6,a6,0x25
    1df2:	0004                	0x4
    1df4:	0200                	addi	s0,sp,256
    1df6:	5491                	li	s1,-28
    1df8:	1200                	addi	s0,sp,288
    1dfa:	075a                	slli	a4,a4,0x16
    1dfc:	0000                	unimp
    1dfe:	6001                	0x6001
    1e00:	8310                	0x8310
    1e02:	0000                	unimp
    1e04:	6c00                	flw	fs0,24(s0)
    1e06:	001a                	c.slli	zero,0x6
    1e08:	4480                	lw	s0,8(s1)
    1e0a:	0000                	unimp
    1e0c:	0100                	addi	s0,sp,128
    1e0e:	bd9c                	fsd	fa5,56(a1)
    1e10:	0005                	c.nop	1
    1e12:	1300                	addi	s0,sp,416
    1e14:	6469                	lui	s0,0x1a
    1e16:	0100                	addi	s0,sp,128
    1e18:	2760                	fld	fs0,200(a4)
    1e1a:	00fc                	addi	a5,sp,76
    1e1c:	0000                	unimp
    1e1e:	9102                	jalr	sp
    1e20:	144c                	addi	a1,sp,548
    1e22:	03ad                	addi	t2,t2,11
    1e24:	0000                	unimp
    1e26:	6001                	0x6001
    1e28:	3130                	fld	fa2,96(a0)
    1e2a:	02000003          	lb	zero,32(zero) # 20 <REGBYTES+0x1c>
    1e2e:	4891                	li	a7,4
    1e30:	00707013          	andi	zero,zero,7
    1e34:	6001                	0x6001
    1e36:	b53e                	fsd	fa5,168(sp)
    1e38:	0000                	unimp
    1e3a:	0200                	addi	s0,sp,256
    1e3c:	4491                	li	s1,4
    1e3e:	6515                	lui	a0,0x5
    1e40:	0005                	c.nop	1
    1e42:	0100                	addi	s0,sp,128
    1e44:	1662                	slli	a2,a2,0x38
    1e46:	0418                	addi	a4,sp,512
    1e48:	0000                	unimp
    1e4a:	9102                	jalr	sp
    1e4c:	0054                	addi	a3,sp,4
    1e4e:	e412                	fsw	ft4,8(sp)
    1e50:	01000007          	0x1000007
    1e54:	0556                	slli	a0,a0,0x15
    1e56:	0069                	c.nop	26
    1e58:	0000                	unimp
    1e5a:	1a1c                	addi	a5,sp,304
    1e5c:	8000                	0x8000
    1e5e:	0050                	addi	a2,sp,4
    1e60:	0000                	unimp
    1e62:	9c01                	0x9c01
    1e64:	0611                	addi	a2,a2,4
    1e66:	0000                	unimp
    1e68:	00646913          	ori	s2,s0,6
    1e6c:	5601                	li	a2,-32
    1e6e:	fc1c                	fsw	fa5,56(s0)
    1e70:	0000                	unimp
    1e72:	0200                	addi	s0,sp,256
    1e74:	4c91                	li	s9,4
    1e76:	2c14                	fld	fa3,24(s0)
    1e78:	0004                	0x4
    1e7a:	0100                	addi	s0,sp,128
    1e7c:	2456                	fld	fs0,336(sp)
    1e7e:	0069                	c.nop	26
    1e80:	0000                	unimp
    1e82:	9102                	jalr	sp
    1e84:	1348                	addi	a0,sp,420
    1e86:	0070                	addi	a2,sp,12
    1e88:	5601                	li	a2,-32
    1e8a:	bb30                	fsd	fa2,112(a4)
    1e8c:	0000                	unimp
    1e8e:	0200                	addi	s0,sp,256
    1e90:	4491                	li	s1,4
    1e92:	6515                	lui	a0,0x5
    1e94:	0005                	c.nop	1
    1e96:	0100                	addi	s0,sp,128
    1e98:	1658                	addi	a4,sp,804
    1e9a:	0418                	addi	a4,sp,512
    1e9c:	0000                	unimp
    1e9e:	9102                	jalr	sp
    1ea0:	0054                	addi	a3,sp,4
    1ea2:	ac12                	fsd	ft4,24(sp)
    1ea4:	01000007          	0x1000007
    1ea8:	054e                	slli	a0,a0,0x13
    1eaa:	0069                	c.nop	26
    1eac:	0000                	unimp
    1eae:	19f0                	addi	a2,sp,252
    1eb0:	8000                	0x8000
    1eb2:	002c                	addi	a1,sp,8
    1eb4:	0000                	unimp
    1eb6:	9c01                	0x9c01
    1eb8:	0648                	addi	a0,sp,772
    1eba:	0000                	unimp
    1ebc:	01007013          	andi	zero,zero,16
    1ec0:	154e                	slli	a0,a0,0x33
    1ec2:	0296                	slli	t0,t0,0x5
    1ec4:	0000                	unimp
    1ec6:	9102                	jalr	sp
    1ec8:	154c                	addi	a1,sp,676
    1eca:	0565                	addi	a0,a0,25
    1ecc:	0000                	unimp
    1ece:	5001                	c.li	zero,-32
    1ed0:	1816                	slli	a6,a6,0x25
    1ed2:	0004                	0x4
    1ed4:	0200                	addi	s0,sp,256
    1ed6:	5491                	li	s1,-28
    1ed8:	1200                	addi	s0,sp,288
    1eda:	07a1                	addi	a5,a5,8
    1edc:	0000                	unimp
    1ede:	4601                	li	a2,0
    1ee0:	00029607          	0x29607
    1ee4:	c400                	sw	s0,8(s0)
    1ee6:	0019                	c.nop	6
    1ee8:	2c80                	fld	fs0,24(s1)
    1eea:	0000                	unimp
    1eec:	0100                	addi	s0,sp,128
    1eee:	819c                	0x819c
    1ef0:	0006                	c.slli	zero,0x1
    1ef2:	1400                	addi	s0,sp,544
    1ef4:	042c                	addi	a1,sp,520
    1ef6:	0000                	unimp
    1ef8:	4601                	li	a2,0
    1efa:	6916                	flw	fs2,68(sp)
    1efc:	0000                	unimp
    1efe:	0200                	addi	s0,sp,256
    1f00:	4c91                	li	s9,4
    1f02:	6515                	lui	a0,0x5
    1f04:	0005                	c.nop	1
    1f06:	0100                	addi	s0,sp,128
    1f08:	1648                	addi	a0,sp,804
    1f0a:	0418                	addi	a4,sp,512
    1f0c:	0000                	unimp
    1f0e:	9102                	jalr	sp
    1f10:	0054                	addi	a3,sp,4
    1f12:	c012                	sw	tp,0(sp)
    1f14:	01000007          	0x1000007
    1f18:	053e                	slli	a0,a0,0xf
    1f1a:	0069                	c.nop	26
    1f1c:	0000                	unimp
    1f1e:	1998                	addi	a4,sp,240
    1f20:	8000                	0x8000
    1f22:	002c                	addi	a1,sp,8
    1f24:	0000                	unimp
    1f26:	9c01                	0x9c01
    1f28:	06ba                	slli	a3,a3,0xe
    1f2a:	0000                	unimp
    1f2c:	b414                	fsd	fa3,40(s0)
    1f2e:	0006                	c.slli	zero,0x1
    1f30:	0100                	addi	s0,sp,128
    1f32:	123e                	slli	tp,tp,0x2f
    1f34:	0069                	c.nop	26
    1f36:	0000                	unimp
    1f38:	9102                	jalr	sp
    1f3a:	154c                	addi	a1,sp,676
    1f3c:	0565                	addi	a0,a0,25
    1f3e:	0000                	unimp
    1f40:	4001                	c.li	zero,0
    1f42:	1816                	slli	a6,a6,0x25
    1f44:	0004                	0x4
    1f46:	0200                	addi	s0,sp,256
    1f48:	5491                	li	s1,-28
    1f4a:	1200                	addi	s0,sp,288
    1f4c:	07d1                	addi	a5,a5,20
    1f4e:	0000                	unimp
    1f50:	3701                	jal	1e50 <REGBYTES+0x1e4c>
    1f52:	8310                	0x8310
    1f54:	0000                	unimp
    1f56:	7800                	flw	fs0,48(s0)
    1f58:	0019                	c.nop	6
    1f5a:	2080                	fld	fs0,0(s1)
    1f5c:	0000                	unimp
    1f5e:	0100                	addi	s0,sp,128
    1f60:	e49c                	fsw	fa5,8(s1)
    1f62:	0006                	c.slli	zero,0x1
    1f64:	1500                	addi	s0,sp,672
    1f66:	0565                	addi	a0,a0,25
    1f68:	0000                	unimp
    1f6a:	3901                	jal	1b7a <REGBYTES+0x1b76>
    1f6c:	1816                	slli	a6,a6,0x25
    1f6e:	0004                	0x4
    1f70:	0200                	addi	s0,sp,256
    1f72:	5491                	li	s1,-28
    1f74:	1200                	addi	s0,sp,288
    1f76:	0774                	addi	a3,sp,908
    1f78:	0000                	unimp
    1f7a:	2f01                	jal	268a <REGBYTES+0x2686>
    1f7c:	6905                	lui	s2,0x1
    1f7e:	0000                	unimp
    1f80:	4c00                	lw	s0,24(s0)
    1f82:	0019                	c.nop	6
    1f84:	2c80                	fld	fs0,24(s1)
    1f86:	0000                	unimp
    1f88:	0100                	addi	s0,sp,128
    1f8a:	1c9c                	addi	a5,sp,624
    1f8c:	13000007          	0x13000007
    1f90:	6469                	lui	s0,0x1a
    1f92:	0100                	addi	s0,sp,128
    1f94:	00831e2f          	0x831e2f
    1f98:	0000                	unimp
    1f9a:	9102                	jalr	sp
    1f9c:	154c                	addi	a1,sp,676
    1f9e:	0565                	addi	a0,a0,25
    1fa0:	0000                	unimp
    1fa2:	3101                	jal	1ba2 <REGBYTES+0x1b9e>
    1fa4:	1816                	slli	a6,a6,0x25
    1fa6:	0004                	0x4
    1fa8:	0200                	addi	s0,sp,256
    1faa:	5491                	li	s1,-28
    1fac:	1200                	addi	s0,sp,288
    1fae:	0798                	addi	a4,sp,960
    1fb0:	0000                	unimp
    1fb2:	2801                	jal	1fc2 <REGBYTES+0x1fbe>
    1fb4:	6905                	lui	s2,0x1
    1fb6:	0000                	unimp
    1fb8:	2c00                	fld	fs0,24(s0)
    1fba:	0019                	c.nop	6
    1fbc:	2080                	fld	fs0,0(s1)
    1fbe:	0000                	unimp
    1fc0:	0100                	addi	s0,sp,128
    1fc2:	469c                	lw	a5,8(a3)
    1fc4:	15000007          	0x15000007
    1fc8:	0565                	addi	a0,a0,25
    1fca:	0000                	unimp
    1fcc:	2a01                	jal	20dc <REGBYTES+0x20d8>
    1fce:	1816                	slli	a6,a6,0x25
    1fd0:	0004                	0x4
    1fd2:	0200                	addi	s0,sp,256
    1fd4:	5491                	li	s1,-28
    1fd6:	1200                	addi	s0,sp,288
    1fd8:	0762                	slli	a4,a4,0x18
    1fda:	0000                	unimp
    1fdc:	2101                	jal	23dc <REGBYTES+0x23d8>
    1fde:	6905                	lui	s2,0x1
    1fe0:	0000                	unimp
    1fe2:	0c00                	addi	s0,sp,528
    1fe4:	0019                	c.nop	6
    1fe6:	2080                	fld	fs0,0(s1)
    1fe8:	0000                	unimp
    1fea:	0100                	addi	s0,sp,128
    1fec:	709c                	flw	fa5,32(s1)
    1fee:	15000007          	0x15000007
    1ff2:	0565                	addi	a0,a0,25
    1ff4:	0000                	unimp
    1ff6:	2301                	jal	24f6 <REGBYTES+0x24f2>
    1ff8:	1816                	slli	a6,a6,0x25
    1ffa:	0004                	0x4
    1ffc:	0200                	addi	s0,sp,256
    1ffe:	5491                	li	s1,-28
    2000:	1600                	addi	s0,sp,800
    2002:	07c9                	addi	a5,a5,18
    2004:	0000                	unimp
    2006:	1c01                	addi	s8,s8,-32
    2008:	f406                	fsw	ft1,40(sp)
    200a:	0018                	0x18
    200c:	1880                	addi	s0,sp,112
    200e:	0000                	unimp
    2010:	0100                	addi	s0,sp,128
    2012:	179c                	addi	a5,sp,992
    2014:	0786                	slli	a5,a5,0x1
    2016:	0000                	unimp
    2018:	0b01                	addi	s6,s6,0
    201a:	8310                	0x8310
    201c:	0000                	unimp
    201e:	8c00                	0x8c00
    2020:	0018                	0x18
    2022:	6880                	flw	fs0,16(s1)
    2024:	0000                	unimp
    2026:	0100                	addi	s0,sp,128
    2028:	149c                	addi	a5,sp,608
    202a:	047d                	addi	s0,s0,31
    202c:	0000                	unimp
    202e:	0b01                	addi	s6,s6,0
    2030:	8f21                	xor	a4,a4,s0
    2032:	0000                	unimp
    2034:	0200                	addi	s0,sp,256
    2036:	4c91                	li	s9,4
    2038:	ec14                	fsw	fa3,24(s0)
    203a:	0004                	0x4
    203c:	0100                	addi	s0,sp,128
    203e:	00bb2d0b          	0xbb2d0b
    2042:	0000                	unimp
    2044:	9102                	jalr	sp
    2046:	1448                	addi	a0,sp,548
    2048:	06b4                	addi	a3,sp,840
    204a:	0000                	unimp
    204c:	0b01                	addi	s6,s6,0
    204e:	00006937          	lui	s2,0x6
    2052:	0200                	addi	s0,sp,256
    2054:	4491                	li	s1,4
    2056:	2714                	fld	fa3,8(a4)
    2058:	0004                	0x4
    205a:	0100                	addi	s0,sp,128
    205c:	0069450b          	0x69450b
    2060:	0000                	unimp
    2062:	9102                	jalr	sp
    2064:	1440                	addi	s0,sp,548
    2066:	005e                	c.slli	zero,0x17
    2068:	0000                	unimp
    206a:	0b01                	addi	s6,s6,0
    206c:	6954                	flw	fa3,20(a0)
    206e:	0000                	unimp
    2070:	0300                	addi	s0,sp,384
    2072:	bc91                	j	1ac6 <REGBYTES+0x1ac2>
    2074:	147f                	0x147f
    2076:	0106                	slli	sp,sp,0x1
    2078:	0000                	unimp
    207a:	0b01                	addi	s6,s6,0
    207c:	b560                	fsd	fs0,232(a0)
    207e:	0000                	unimp
    2080:	0300                	addi	s0,sp,384
    2082:	b891                	j	18d6 <REGBYTES+0x18d2>
    2084:	157f                	0x157f
    2086:	0565                	addi	a0,a0,25
    2088:	0000                	unimp
    208a:	0d01                	addi	s10,s10,0
    208c:	1816                	slli	a6,a6,0x25
    208e:	0004                	0x4
    2090:	0200                	addi	s0,sp,256
    2092:	5491                	li	s1,-28
    2094:	0000                	unimp
    2096:	025e                	slli	tp,tp,0x17
    2098:	0000                	unimp
    209a:	0004                	0x4
    209c:	000007e3          	beqz	zero,28aa <REGBYTES+0x28a6>
    20a0:	0104                	addi	s1,sp,128
    20a2:	0088                	addi	a0,sp,64
    20a4:	0000                	unimp
    20a6:	000c                	0xc
    20a8:	0008                	0x8
    20aa:	0a00                	addi	s0,sp,272
    20ac:	0000                	unimp
    20ae:	b200                	fsd	fs0,32(a2)
    20b0:	0080001b          	0x80001b
    20b4:	0002                	c.slli64	zero
    20b6:	af00                	fsd	fs0,24(a4)
    20b8:	001f 0200 0601      	0x6010200001f
    20be:	007c                	addi	a5,sp,12
    20c0:	0000                	unimp
    20c2:	0102                	c.slli64	sp
    20c4:	7a08                	flw	fa0,48(a2)
    20c6:	0000                	unimp
    20c8:	0200                	addi	s0,sp,256
    20ca:	0502                	c.slli64	a0
    20cc:	00fc                	addi	a5,sp,76
    20ce:	0000                	unimp
    20d0:	0202                	c.slli64	tp
    20d2:	0000e907          	0xe907
    20d6:	0200                	addi	s0,sp,256
    20d8:	0504                	addi	s1,sp,640
    20da:	003a                	c.slli	zero,0xe
    20dc:	0000                	unimp
    20de:	0402                	c.slli64	s0
    20e0:	00006807          	0x6807
    20e4:	0200                	addi	s0,sp,256
    20e6:	0508                	addi	a0,sp,640
    20e8:	0035                	c.nop	13
    20ea:	0000                	unimp
    20ec:	0802                	c.slli64	a6
    20ee:	00006307          	0x6307
    20f2:	0300                	addi	s0,sp,384
    20f4:	0504                	addi	s1,sp,640
    20f6:	6e69                	lui	t3,0x1a
    20f8:	0074                	addi	a3,sp,12
    20fa:	0402                	c.slli64	s0
    20fc:	00006d07          	0x6d07
    2100:	0400                	addi	s0,sp,512
    2102:	7104                	flw	fs1,32(a0)
    2104:	0000                	unimp
    2106:	0200                	addi	s0,sp,256
    2108:	0801                	addi	a6,a6,0
    210a:	00000083          	lb	ra,0(zero) # 0 <REGBYTES-0x4>
    210e:	0405                	addi	s0,s0,1
    2110:	2006                	fld	ft0,64(sp)
    2112:	0008                	0x8
    2114:	0800                	addi	s0,sp,16
    2116:	0a01                	addi	s4,s4,0
    2118:	a210                	fsd	fa2,0(a2)
    211a:	0000                	unimp
    211c:	0700                	addi	s0,sp,896
    211e:	072d                	addi	a4,a4,11
    2120:	0000                	unimp
    2122:	0b01                	addi	s6,s6,0
    2124:	a218                	fsd	fa4,0(a2)
    2126:	0000                	unimp
    2128:	0000                	unimp
    212a:	00042c07          	flw	fs8,0(s0) # 1a000 <REGBYTES+0x19ffc>
    212e:	0100                	addi	s0,sp,128
    2130:	070c                	addi	a1,sp,896
    2132:	005d                	c.nop	23
    2134:	0000                	unimp
    2136:	0004                	0x4
    2138:	0404                	addi	s1,sp,512
    213a:	007a                	c.slli	zero,0x1e
    213c:	0000                	unimp
    213e:	2108                	fld	fa0,0(a0)
    2140:	0008                	0x8
    2142:	0100                	addi	s0,sp,128
    2144:	030d                	addi	t1,t1,3
    2146:	007a                	c.slli	zero,0x1e
    2148:	0000                	unimp
    214a:	3d06                	fld	fs10,96(sp)
    214c:	0008                	0x8
    214e:	0c00                	addi	s0,sp,528
    2150:	1201                	addi	tp,tp,-32
    2152:	e910                	fsw	fa2,16(a0)
    2154:	0000                	unimp
    2156:	0700                	addi	s0,sp,896
    2158:	042c                	addi	a1,sp,520
    215a:	0000                	unimp
    215c:	1301                	addi	t1,t1,-32
    215e:	00005d07          	0x5d07
    2162:	0000                	unimp
    2164:	6e09                	lui	t3,0x2
    2166:	6d75                	lui	s10,0x1d
    2168:	0100                	addi	s0,sp,128
    216a:	0714                	addi	a3,sp,896
    216c:	005d                	c.nop	23
    216e:	0000                	unimp
    2170:	0704                	addi	s1,sp,896
    2172:	07f2                	slli	a5,a5,0x1c
    2174:	0000                	unimp
    2176:	1501                	addi	a0,a0,-32
    2178:	e910                	fsw	fa2,16(a0)
    217a:	0000                	unimp
    217c:	0800                	addi	s0,sp,16
    217e:	0400                	addi	s0,sp,512
    2180:	a804                	fsd	fs1,16(s0)
    2182:	0000                	unimp
    2184:	0800                	addi	s0,sp,16
    2186:	083e                	slli	a6,a6,0xf
    2188:	0000                	unimp
    218a:	1601                	addi	a2,a2,-32
    218c:	0000b403          	0xb403
    2190:	0a00                	addi	s0,sp,272
    2192:	000000ef          	jal	ra,2192 <REGBYTES+0x218e>
    2196:	0000010b          	0x10b
    219a:	0000640b          	0x640b
    219e:	0200                	addi	s0,sp,256
    21a0:	0c00                	addi	s0,sp,528
    21a2:	0844                	addi	s1,sp,20
    21a4:	0000                	unimp
    21a6:	1901                	addi	s2,s2,-32
    21a8:	0000fb13          	andi	s6,ra,0
    21ac:	0500                	addi	s0,sp,640
    21ae:	00329403          	lh	s0,3(t0)
    21b2:	0d80                	addi	s0,sp,720
    21b4:	07ec                	addi	a1,sp,972
    21b6:	0000                	unimp
    21b8:	6201                	0x6201
    21ba:	3606                	fld	fa2,96(sp)
    21bc:	001d                	c.nop	7
    21be:	7c80                	flw	fs0,56(s1)
    21c0:	0000                	unimp
    21c2:	0100                	addi	s0,sp,128
    21c4:	6b9c                	flw	fa5,16(a5)
    21c6:	0001                	nop
    21c8:	0e00                	addi	s0,sp,784
    21ca:	656d                	lui	a0,0x1b
    21cc:	006d                	c.nop	27
    21ce:	6201                	0x6201
    21d0:	00007817          	auipc	a6,0x7
    21d4:	0200                	addi	s0,sp,256
    21d6:	5c91                	li	s9,-28
    21d8:	0100690f          	0x100690f
    21dc:	0764                	addi	s1,sp,908
    21de:	005d                	c.nop	23
    21e0:	0000                	unimp
    21e2:	9102                	jalr	sp
    21e4:	0f6c                	addi	a1,sp,924
    21e6:	706d                	c.lui	zero,0xffffb
    21e8:	0100                	addi	s0,sp,128
    21ea:	1065                	c.nop	-7
    21ec:	00e9                	addi	ra,ra,26
    21ee:	0000                	unimp
    21f0:	9102                	jalr	sp
    21f2:	0f68                	addi	a0,sp,924
    21f4:	0070                	addi	a2,sp,12
    21f6:	6601                	0x6601
    21f8:	00016b0f          	0x16b0f
    21fc:	0200                	addi	s0,sp,256
    21fe:	6491                	lui	s1,0x4
    2200:	0400                	addi	s0,sp,512
    2202:	ef04                	fsw	fs1,24(a4)
    2204:	0000                	unimp
    2206:	1000                	addi	s0,sp,32
    2208:	0814                	addi	a3,sp,16
    220a:	0000                	unimp
    220c:	4201                	li	tp,0
    220e:	00007807          	0x7807
    2212:	a000                	fsd	fs0,0(s0)
    2214:	001c                	0x1c
    2216:	9680                	0x9680
    2218:	0000                	unimp
    221a:	0100                	addi	s0,sp,128
    221c:	c39c                	sw	a5,0(a5)
    221e:	0001                	nop
    2220:	1100                	addi	s0,sp,160
    2222:	042c                	addi	a1,sp,520
    2224:	0000                	unimp
    2226:	4201                	li	tp,0
    2228:	00005d17          	auipc	s10,0x5
    222c:	0200                	addi	s0,sp,256
    222e:	5c91                	li	s9,-28
    2230:	0100690f          	0x100690f
    2234:	0744                	addi	s1,sp,900
    2236:	005d                	c.nop	23
    2238:	0000                	unimp
    223a:	9102                	jalr	sp
    223c:	0f6c                	addi	a1,sp,924
    223e:	706d                	c.lui	zero,0xffffb
    2240:	0100                	addi	s0,sp,128
    2242:	1045                	c.nop	-15
    2244:	00e9                	addi	ra,ra,26
    2246:	0000                	unimp
    2248:	9102                	jalr	sp
    224a:	0f64                	addi	s1,sp,924
    224c:	0070                	addi	a2,sp,12
    224e:	4601                	li	a2,0
    2250:	00016b0f          	0x16b0f
    2254:	0200                	addi	s0,sp,256
    2256:	6891                	lui	a7,0x4
    2258:	1000                	addi	s0,sp,32
    225a:	0809                	addi	a6,a6,2
    225c:	0000                	unimp
    225e:	3701                	jal	215e <REGBYTES+0x215a>
    2260:	5d05                	li	s10,-31
    2262:	0000                	unimp
    2264:	5800                	lw	s0,48(s0)
    2266:	001c                	0x1c
    2268:	4880                	lw	s0,16(s1)
    226a:	0000                	unimp
    226c:	0100                	addi	s0,sp,128
    226e:	eb9c                	fsw	fa5,16(a5)
    2270:	0001                	nop
    2272:	0f00                	addi	s0,sp,912
    2274:	0069                	c.nop	26
    2276:	3901                	jal	1e86 <REGBYTES+0x1e82>
    2278:	00005d07          	0x5d07
    227c:	0200                	addi	s0,sp,256
    227e:	6c91                	lui	s9,0x4
    2280:	1200                	addi	s0,sp,288
    2282:	082d                	addi	a6,a6,11
    2284:	0000                	unimp
    2286:	1f01                	addi	t5,t5,-32
    2288:	5d0c                	lw	a1,56(a0)
    228a:	0000                	unimp
    228c:	b200                	fsd	fs0,32(a2)
    228e:	a680001b          	0xa680001b
    2292:	0000                	unimp
    2294:	0100                	addi	s0,sp,128
    2296:	5b9c                	lw	a5,48(a5)
    2298:	0002                	c.slli64	zero
    229a:	0e00                	addi	s0,sp,784
    229c:	0070                	addi	a2,sp,12
    229e:	1f01                	addi	t5,t5,-32
    22a0:	6b28                	flw	fa0,80(a4)
    22a2:	0001                	nop
    22a4:	0200                	addi	s0,sp,256
    22a6:	5c91                	li	s9,-28
    22a8:	0100690f          	0x100690f
    22ac:	0721                	addi	a4,a4,8
    22ae:	005d                	c.nop	23
    22b0:	0000                	unimp
    22b2:	9102                	jalr	sp
    22b4:	0f6c                	addi	a1,sp,924
    22b6:	706d                	c.lui	zero,0xffffb
    22b8:	0100                	addi	s0,sp,128
    22ba:	1022                	c.slli	zero,0x28
    22bc:	00e9                	addi	ra,ra,26
    22be:	0000                	unimp
    22c0:	9102                	jalr	sp
    22c2:	0f68                	addi	a0,sp,924
    22c4:	706d                	c.lui	zero,0xffffb
    22c6:	0070                	addi	a2,sp,12
    22c8:	2301                	jal	27c8 <REGBYTES+0x27c4>
    22ca:	5b11                	li	s6,-28
    22cc:	0002                	c.slli64	zero
    22ce:	0200                	addi	s0,sp,256
    22d0:	6491                	lui	s1,0x4
    22d2:	0007f713          	andi	a4,a5,0
    22d6:	0100                	addi	s0,sp,128
    22d8:	0f24                	addi	s1,sp,920
    22da:	0071                	c.nop	28
    22dc:	0000                	unimp
    22de:	fb0c                	fsw	fa1,48(a4)
    22e0:	01000007          	0x1000007
    22e4:	1025                	c.nop	-23
    22e6:	0000006b          	0x6b
    22ea:	0305                	addi	t1,t1,1
    22ec:	32c4                	fld	fs1,160(a3)
    22ee:	8000                	0x8000
    22f0:	0400                	addi	s0,sp,512
    22f2:	e904                	fsw	fs1,16(a0)
    22f4:	0000                	unimp
    22f6:	0000                	unimp
    22f8:	035d                	addi	t1,t1,23
    22fa:	0000                	unimp
    22fc:	0004                	0x4
    22fe:	091e                	slli	s2,s2,0x7
    2300:	0000                	unimp
    2302:	0104                	addi	s1,sp,128
    2304:	0088                	addi	a0,sp,64
    2306:	0000                	unimp
    2308:	7f0c                	flw	fa1,56(a4)
    230a:	0008                	0x8
    230c:	0a00                	addi	s0,sp,272
    230e:	0000                	unimp
    2310:	b200                	fsd	fs0,32(a2)
    2312:	001d                	c.nop	7
    2314:	0880                	addi	s0,sp,80
    2316:	0004                	0x4
    2318:	6400                	flw	fs0,8(s0)
    231a:	0022                	c.slli	zero,0x8
    231c:	0200                	addi	s0,sp,256
    231e:	0601                	addi	a2,a2,0
    2320:	007c                	addi	a5,sp,12
    2322:	0000                	unimp
    2324:	0102                	c.slli64	sp
    2326:	7a08                	flw	fa0,48(a2)
    2328:	0000                	unimp
    232a:	0200                	addi	s0,sp,256
    232c:	0502                	c.slli64	a0
    232e:	00fc                	addi	a5,sp,76
    2330:	0000                	unimp
    2332:	0202                	c.slli64	tp
    2334:	0000e907          	0xe907
    2338:	0200                	addi	s0,sp,256
    233a:	0504                	addi	s1,sp,640
    233c:	003a                	c.slli	zero,0xe
    233e:	0000                	unimp
    2340:	0001fb03          	0x1fb03
    2344:	0200                	addi	s0,sp,256
    2346:	0054194f          	fnmadd.s	fs2,fs0,ft5,ft0,rtz
    234a:	0000                	unimp
    234c:	0402                	c.slli64	s0
    234e:	00006807          	0x6807
    2352:	0200                	addi	s0,sp,256
    2354:	0508                	addi	a0,sp,640
    2356:	0035                	c.nop	13
    2358:	0000                	unimp
    235a:	0802                	c.slli64	a6
    235c:	00006307          	0x6307
    2360:	0400                	addi	s0,sp,512
    2362:	0504                	addi	s1,sp,640
    2364:	6e69                	lui	t3,0x1a
    2366:	0074                	addi	a3,sp,12
    2368:	0402                	c.slli64	s0
    236a:	00006d07          	0x6d07
    236e:	0300                	addi	s0,sp,384
    2370:	01fd                	addi	gp,gp,31
    2372:	0000                	unimp
    2374:	48143003          	0x48143003
    2378:	0000                	unimp
    237a:	0300                	addi	s0,sp,384
    237c:	04dd                	addi	s1,s1,23
    237e:	0000                	unimp
    2380:	0b04                	addi	s1,sp,400
    2382:	7712                	flw	fa4,36(sp)
    2384:	0000                	unimp
    2386:	0500                	addi	s0,sp,640
    2388:	9504                	0x9504
    238a:	0000                	unimp
    238c:	0500                	addi	s0,sp,640
    238e:	9b04                	0x9b04
    2390:	0000                	unimp
    2392:	0200                	addi	s0,sp,256
    2394:	0801                	addi	a6,a6,0
    2396:	00000083          	lb	ra,0(zero) # 0 <REGBYTES-0x4>
    239a:	0706                	slli	a4,a4,0x1
    239c:	7004                	flw	fs1,32(s0)
    239e:	0000                	unimp
    23a0:	0400                	addi	s0,sp,512
    23a2:	00c30e0f          	0xc30e0f
    23a6:	0000                	unimp
    23a8:	0006bd07          	fld	fs10,0(a3)
    23ac:	0000                	unimp
    23ae:	00069607          	0x69607
    23b2:	0100                	addi	s0,sp,128
    23b4:	00063207          	fld	ft4,0(a2)
    23b8:	0200                	addi	s0,sp,256
    23ba:	0800                	addi	s0,sp,16
    23bc:	0849                	addi	a6,a6,18
    23be:	0000                	unimp
    23c0:	0118                	addi	a4,sp,128
    23c2:	0f0c                	addi	a1,sp,912
    23c4:	011e                	slli	sp,sp,0x7
    23c6:	0000                	unimp
    23c8:	6909                	lui	s2,0x2
    23ca:	0064                	addi	s1,sp,12
    23cc:	0d01                	addi	s10,s10,0
    23ce:	8312                	mv	t1,tp
    23d0:	0000                	unimp
    23d2:	0000                	unimp
    23d4:	370a                	fld	fa4,160(sp)
    23d6:	0002                	c.slli64	zero
    23d8:	0100                	addi	s0,sp,128
    23da:	070e                	slli	a4,a4,0x3
    23dc:	0069                	c.nop	26
    23de:	0000                	unimp
    23e0:	0a04                	addi	s1,sp,272
    23e2:	086d                	addi	a6,a6,27
    23e4:	0000                	unimp
    23e6:	1001                	c.nop	-32
    23e8:	9509                	srai	a0,a0,0x22
    23ea:	0000                	unimp
    23ec:	0800                	addi	s0,sp,16
    23ee:	760a                	flw	fa2,160(sp)
    23f0:	0008                	0x8
    23f2:	0100                	addi	s0,sp,128
    23f4:	0911                	addi	s2,s2,4
    23f6:	0095                	addi	ra,ra,5
    23f8:	0000                	unimp
    23fa:	0a0c                	addi	a1,sp,272
    23fc:	08b6                	slli	a7,a7,0xd
    23fe:	0000                	unimp
    2400:	1201                	addi	tp,tp,-32
    2402:	00006907          	0x6907
    2406:	1000                	addi	s0,sp,32
    2408:	bf0a                	fsd	ft2,440(sp)
    240a:	0008                	0x8
    240c:	0100                	addi	s0,sp,128
    240e:	00690713          	addi	a4,s2,6 # 2006 <REGBYTES+0x2002>
    2412:	0000                	unimp
    2414:	0014                	0x14
    2416:	0000c30b          	0xc30b
    241a:	2e00                	fld	fs0,24(a2)
    241c:	0001                	nop
    241e:	0c00                	addi	s0,sp,528
    2420:	0070                	addi	a2,sp,12
    2422:	0000                	unimp
    2424:	0000                	unimp
    2426:	490d                	li	s2,3
    2428:	0008                	0x8
    242a:	0100                	addi	s0,sp,128
    242c:	0314                	addi	a3,sp,384
    242e:	011e                	slli	sp,sp,0x7
    2430:	0000                	unimp
    2432:	0305                	addi	t1,t1,1
    2434:	3650                	fld	fa2,168(a2)
    2436:	8000                	0x8000
    2438:	9a0e                	add	s4,s4,gp
    243a:	0008                	0x8
    243c:	0100                	addi	s0,sp,128
    243e:	05a5                	addi	a1,a1,9
    2440:	0069                	c.nop	26
    2442:	0000                	unimp
    2444:	2136                	fld	ft2,328(sp)
    2446:	8000                	0x8000
    2448:	0084                	addi	s1,sp,64
    244a:	0000                	unimp
    244c:	9c01                	0x9c01
    244e:	01b2                	slli	gp,gp,0xc
    2450:	0000                	unimp
    2452:	00005e0f          	0x5e0f
    2456:	0100                	addi	s0,sp,128
    2458:	16a5                	addi	a3,a3,-23
    245a:	0069                	c.nop	26
    245c:	0000                	unimp
    245e:	9102                	jalr	sp
    2460:	0f5c                	addi	a5,sp,916
    2462:	0106                	slli	sp,sp,0x1
    2464:	0000                	unimp
    2466:	a501                	j	2a66 <REGBYTES+0x2a62>
    2468:	8f22                	mv	t5,s0
    246a:	0000                	unimp
    246c:	0200                	addi	s0,sp,256
    246e:	5891                	li	a7,-28
    2470:	2c0d                	jal	26a2 <REGBYTES+0x269e>
    2472:	0004                	0x4
    2474:	0100                	addi	s0,sp,128
    2476:	006907a7          	0x6907a7
    247a:	0000                	unimp
    247c:	9102                	jalr	sp
    247e:	0d64                	addi	s1,sp,668
    2480:	00000237          	lui	tp,0x0
    2484:	a701                	j	2b84 <REGBYTES+0x2b80>
    2486:	690d                	lui	s2,0x3
    2488:	0000                	unimp
    248a:	0200                	addi	s0,sp,256
    248c:	6891                	lui	a7,0x4
    248e:	6910                	flw	fa2,16(a0)
    2490:	0064                	addi	s1,sp,12
    2492:	a801                	j	24a2 <REGBYTES+0x249e>
    2494:	8312                	mv	t1,tp
    2496:	0000                	unimp
    2498:	0200                	addi	s0,sp,256
    249a:	6c91                	lui	s9,0x4
    249c:	7010                	flw	fa2,32(s0)
    249e:	0100                	addi	s0,sp,128
    24a0:	09a9                	addi	s3,s3,10
    24a2:	0095                	addi	ra,ra,5
    24a4:	0000                	unimp
    24a6:	9102                	jalr	sp
    24a8:	0060                	addi	s0,sp,12
    24aa:	5111                	li	sp,-28
    24ac:	0008                	0x8
    24ae:	0100                	addi	s0,sp,128
    24b0:	00690c87          	0x690c87
    24b4:	0000                	unimp
    24b6:	207e                	fld	ft0,472(sp)
    24b8:	8000                	0x8000
    24ba:	00b8                	addi	a4,sp,72
    24bc:	0000                	unimp
    24be:	9c01                	0x9c01
    24c0:	024d                	addi	tp,tp,19
    24c2:	0000                	unimp
    24c4:	0008a70f          	0x8a70f
    24c8:	0100                	addi	s0,sp,128
    24ca:	024d2c87          	flw	fs9,36(s10) # 724c <REGBYTES+0x7248>
    24ce:	0000                	unimp
    24d0:	9102                	jalr	sp
    24d2:	125c                	addi	a5,sp,292
    24d4:	6469                	lui	s0,0x1a
    24d6:	0100                	addi	s0,sp,128
    24d8:	00834187          	flq	ft3,8(t1) # 8 <REGBYTES+0x4>
    24dc:	0000                	unimp
    24de:	9102                	jalr	sp
    24e0:	0f58                	addi	a4,sp,916
    24e2:	00000237          	lui	tp,0x0
    24e6:	8801                	andi	s0,s0,0
    24e8:	0000690b          	0x690b
    24ec:	0200                	addi	s0,sp,256
    24ee:	5491                	li	s1,-28
    24f0:	00042c0f          	0x42c0f
    24f4:	0100                	addi	s0,sp,128
    24f6:	1688                	addi	a0,sp,864
    24f8:	0069                	c.nop	26
    24fa:	0000                	unimp
    24fc:	9102                	jalr	sp
    24fe:	0f50                	addi	a2,sp,916
    2500:	0859                	addi	a6,a6,22
    2502:	0000                	unimp
    2504:	8801                	andi	s0,s0,0
    2506:	9522                	add	a0,a0,s0
    2508:	0000                	unimp
    250a:	0200                	addi	s0,sp,256
    250c:	4c91                	li	s9,4
    250e:	00210013          	addi	zero,sp,2 # 444de <REGBYTES+0x444da>
    2512:	0880                	addi	s0,sp,80
    2514:	0000                	unimp
    2516:	3300                	fld	fs0,32(a4)
    2518:	0002                	c.slli64	zero
    251a:	0d00                	addi	s0,sp,656
    251c:	0058                	addi	a4,sp,4
    251e:	0000                	unimp
    2520:	9901                	andi	a0,a0,-32
    2522:	5405                	li	s0,-31
    2524:	0000                	unimp
    2526:	0200                	addi	s0,sp,256
    2528:	6c91                	lui	s9,0x4
    252a:	1400                	addi	s0,sp,544
    252c:	2120                	fld	fs0,64(a0)
    252e:	8000                	0x8000
    2530:	0008                	0x8
    2532:	0000                	unimp
    2534:	580d                	li	a6,-29
    2536:	0000                	unimp
    2538:	0100                	addi	s0,sp,128
    253a:	0054059b          	0x54059b
    253e:	0000                	unimp
    2540:	9102                	jalr	sp
    2542:	0068                	addi	a0,sp,12
    2544:	0500                	addi	s0,sp,640
    2546:	c304                	sw	s1,0(a4)
    2548:	0000                	unimp
    254a:	1500                	addi	s0,sp,672
    254c:	08d5                	addi	a7,a7,21
    254e:	0000                	unimp
    2550:	7d01                	lui	s10,0xfffe0
    2552:	690c                	flw	fa1,16(a0)
    2554:	0000                	unimp
    2556:	5a00                	lw	s0,48(a2)
    2558:	0020                	addi	s0,sp,8
    255a:	2480                	fld	fs0,8(s1)
    255c:	0000                	unimp
    255e:	0100                	addi	s0,sp,128
    2560:	169c                	addi	a5,sp,864
    2562:	08c8                	addi	a0,sp,84
    2564:	0000                	unimp
    2566:	6a01                	0x6a01
    2568:	e80d                	bnez	s0,259a <REGBYTES+0x2596>
    256a:	001f 7280 0000      	0x7280001f
    2570:	0100                	addi	s0,sp,128
    2572:	9c9c                	0x9c9c
    2574:	0002                	c.slli64	zero
    2576:	1000                	addi	s0,sp,32
    2578:	0069                	c.nop	26
    257a:	6c01                	0x6c01
    257c:	00006907          	0x6907
    2580:	0200                	addi	s0,sp,256
    2582:	6c91                	lui	s9,0x4
    2584:	a70d                	j	2ca6 <REGBYTES+0x2ca2>
    2586:	0008                	0x8
    2588:	0100                	addi	s0,sp,128
    258a:	136d                	addi	t1,t1,-5
    258c:	024d                	addi	tp,tp,19
    258e:	0000                	unimp
    2590:	9102                	jalr	sp
    2592:	0068                	addi	a0,sp,12
    2594:	8911                	andi	a0,a0,4
    2596:	0008                	0x8
    2598:	0100                	addi	s0,sp,128
    259a:	0c40                	addi	s0,sp,532
    259c:	0069                	c.nop	26
    259e:	0000                	unimp
    25a0:	1ef0                	addi	a2,sp,892
    25a2:	8000                	0x8000
    25a4:	00f8                	addi	a4,sp,76
    25a6:	0000                	unimp
    25a8:	9c01                	0x9c01
    25aa:	02e0                	addi	s0,sp,332
    25ac:	0000                	unimp
    25ae:	0008a70f          	0x8a70f
    25b2:	0100                	addi	s0,sp,128
    25b4:	2d40                	fld	fs0,152(a0)
    25b6:	024d                	addi	tp,tp,19
    25b8:	0000                	unimp
    25ba:	9102                	jalr	sp
    25bc:	105c                	addi	a5,sp,36
    25be:	42010063          	beqz	sp,29de <REGBYTES+0x29da>
    25c2:	2c11                	jal	27d6 <REGBYTES+0x27d2>
    25c4:	0000                	unimp
    25c6:	0200                	addi	s0,sp,256
    25c8:	6b91                	lui	s7,0x4
    25ca:	7010                	flw	fa2,32(s0)
    25cc:	0100                	addi	s0,sp,128
    25ce:	00950943          	fmadd.s	fs2,fa0,fs1,ft0,rne
    25d2:	0000                	unimp
    25d4:	9102                	jalr	sp
    25d6:	006c                	addi	a1,sp,12
    25d8:	6116                	flw	ft2,68(sp)
    25da:	0008                	0x8
    25dc:	0100                	addi	s0,sp,128
    25de:	0d2a                	slli	s10,s10,0xa
    25e0:	1e30                	addi	a2,sp,824
    25e2:	8000                	0x8000
    25e4:	00c0                	addi	s0,sp,68
    25e6:	0000                	unimp
    25e8:	9c01                	0x9c01
    25ea:	0331                	addi	t1,t1,12
    25ec:	0000                	unimp
    25ee:	0008a70f          	0x8a70f
    25f2:	0100                	addi	s0,sp,128
    25f4:	292a                	fld	fs2,136(sp)
    25f6:	024d                	addi	tp,tp,19
    25f8:	0000                	unimp
    25fa:	9102                	jalr	sp
    25fc:	125c                	addi	a5,sp,292
    25fe:	00727473          	csrrci	s0,0x7,4
    2602:	2a01                	jal	2712 <REGBYTES+0x270e>
    2604:	9535                	srai	a0,a0,0x2d
    2606:	0000                	unimp
    2608:	0200                	addi	s0,sp,256
    260a:	5891                	li	a7,-28
    260c:	6c12                	flw	fs8,4(sp)
    260e:	6e65                	lui	t3,0x19
    2610:	0100                	addi	s0,sp,128
    2612:	3e2a                	fld	ft8,168(sp)
    2614:	0069                	c.nop	26
    2616:	0000                	unimp
    2618:	9102                	jalr	sp
    261a:	1054                	addi	a3,sp,36
    261c:	0069                	c.nop	26
    261e:	2c01                	jal	282e <REGBYTES+0x282a>
    2620:	00006907          	0x6907
    2624:	0200                	addi	s0,sp,256
    2626:	6c91                	lui	s9,0x4
    2628:	1700                	addi	s0,sp,928
    262a:	08ac                	addi	a1,sp,88
    262c:	0000                	unimp
    262e:	1d01                	addi	s10,s10,-32
    2630:	b20d                	j	1f52 <REGBYTES+0x1f4e>
    2632:	001d                	c.nop	7
    2634:	7e80                	flw	fs0,56(a3)
    2636:	0000                	unimp
    2638:	0100                	addi	s0,sp,128
    263a:	0f9c                	addi	a5,sp,976
    263c:	000008a7          	0x8a7
    2640:	1d01                	addi	s10,s10,-32
    2642:	00024d27          	fsq	ft0,26(tp) # 1a <REGBYTES+0x16>
    2646:	0200                	addi	s0,sp,256
    2648:	5c91                	li	s9,-28
    264a:	6910                	flw	fa2,16(a0)
    264c:	0100                	addi	s0,sp,128
    264e:	071f 0069 0000      	0x69071f
    2654:	9102                	jalr	sp
    2656:	006c                	addi	a1,sp,12
    2658:	6200                	flw	fs0,0(a2)
    265a:	0001                	nop
    265c:	0400                	addi	s0,sp,512
    265e:	9f00                	0x9f00
    2660:	000a                	c.slli	zero,0x2
    2662:	0400                	addi	s0,sp,512
    2664:	8801                	andi	s0,s0,0
    2666:	0000                	unimp
    2668:	0c00                	addi	s0,sp,528
    266a:	00000903          	lb	s2,0(zero) # 0 <REGBYTES-0x4>
    266e:	000a                	c.slli	zero,0x2
    2670:	0000                	unimp
    2672:	21ba                	fld	ft3,392(sp)
    2674:	8000                	0x8000
    2676:	0154                	addi	a3,sp,132
    2678:	0000                	unimp
    267a:	27be                	fld	fa5,456(sp)
    267c:	0000                	unimp
    267e:	0102                	c.slli64	sp
    2680:	7c06                	flw	fs8,96(sp)
    2682:	0000                	unimp
    2684:	0200                	addi	s0,sp,256
    2686:	0801                	addi	a6,a6,0
    2688:	007a                	c.slli	zero,0x1e
    268a:	0000                	unimp
    268c:	0202                	c.slli64	tp
    268e:	fc05                	bnez	s0,25c6 <REGBYTES+0x25c2>
    2690:	0000                	unimp
    2692:	0200                	addi	s0,sp,256
    2694:	0702                	c.slli64	a4
    2696:	00e9                	addi	ra,ra,26
    2698:	0000                	unimp
    269a:	0402                	c.slli64	s0
    269c:	3a05                	jal	1fcc <REGBYTES+0x1fc8>
    269e:	0000                	unimp
    26a0:	0200                	addi	s0,sp,256
    26a2:	0704                	addi	s1,sp,896
    26a4:	0068                	addi	a0,sp,12
    26a6:	0000                	unimp
    26a8:	0802                	c.slli64	a6
    26aa:	3505                	jal	24ca <REGBYTES+0x24c6>
    26ac:	0000                	unimp
    26ae:	0200                	addi	s0,sp,256
    26b0:	0708                	addi	a0,sp,896
    26b2:	00000063          	beqz	zero,26b2 <REGBYTES+0x26ae>
    26b6:	69050403          	lb	s0,1680(a0) # 1b690 <REGBYTES+0x1b68c>
    26ba:	746e                	flw	fs0,248(sp)
    26bc:	0200                	addi	s0,sp,256
    26be:	0704                	addi	s1,sp,896
    26c0:	006d                	c.nop	27
    26c2:	0000                	unimp
    26c4:	0404                	addi	s1,sp,512
    26c6:	0071                	c.nop	28
    26c8:	0000                	unimp
    26ca:	0404                	addi	s1,sp,512
    26cc:	00000077          	0x77
    26d0:	0102                	c.slli64	sp
    26d2:	8308                	0x8308
    26d4:	0000                	unimp
    26d6:	0500                	addi	s0,sp,640
    26d8:	00640407          	0x640407
    26dc:	0000                	unimp
    26de:	0f02                	c.slli64	t5
    26e0:	9f0e                	add	t5,t5,gp
    26e2:	0000                	unimp
    26e4:	0600                	addi	s0,sp,768
    26e6:	06bd                	addi	a3,a3,15
    26e8:	0000                	unimp
    26ea:	0600                	addi	s0,sp,768
    26ec:	0696                	slli	a3,a3,0x5
    26ee:	0000                	unimp
    26f0:	0601                	addi	a2,a2,0
    26f2:	0632                	slli	a2,a2,0xc
    26f4:	0000                	unimp
    26f6:	0002                	c.slli64	zero
    26f8:	0008f607          	0x8f607
    26fc:	0100                	addi	s0,sp,128
    26fe:	0522                	slli	a0,a0,0x8
    2700:	005d                	c.nop	23
    2702:	0000                	unimp
    2704:	228c                	fld	fa1,0(a3)
    2706:	8000                	0x8000
    2708:	0082                	c.slli64	ra
    270a:	0000                	unimp
    270c:	9c01                	0x9c01
    270e:	00f4                	addi	a3,sp,76
    2710:	0000                	unimp
    2712:	5e08                	lw	a0,56(a2)
    2714:	0000                	unimp
    2716:	0100                	addi	s0,sp,128
    2718:	1622                	slli	a2,a2,0x28
    271a:	005d                	c.nop	23
    271c:	0000                	unimp
    271e:	9102                	jalr	sp
    2720:	085c                	addi	a5,sp,20
    2722:	0106                	slli	sp,sp,0x1
    2724:	0000                	unimp
    2726:	2201                	jal	2826 <REGBYTES+0x2822>
    2728:	6b22                	flw	fs6,8(sp)
    272a:	0000                	unimp
    272c:	0200                	addi	s0,sp,256
    272e:	5891                	li	a7,-28
    2730:	7009                	c.lui	zero,0xfffe2
    2732:	0100                	addi	s0,sp,128
    2734:	0924                	addi	s1,sp,152
    2736:	0071                	c.nop	28
    2738:	0000                	unimp
    273a:	9102                	jalr	sp
    273c:	0a6c                	addi	a1,sp,284
    273e:	042c                	addi	a1,sp,520
    2740:	0000                	unimp
    2742:	2501                	jal	2d42 <REGBYTES+0x2d3e>
    2744:	00005d07          	0x5d07
    2748:	0200                	addi	s0,sp,256
    274a:	6891                	lui	a7,0x4
    274c:	0b00                	addi	s0,sp,400
    274e:	000008eb          	0x8eb
    2752:	1601                	addi	a2,a2,-32
    2754:	1a0d                	addi	s4,s4,-29
    2756:	0022                	c.slli	zero,0x8
    2758:	7280                	flw	fs0,32(a3)
    275a:	0000                	unimp
    275c:	0100                	addi	s0,sp,128
    275e:	369c                	fld	fa5,40(a3)
    2760:	0001                	nop
    2762:	0c00                	addi	s0,sp,528
    2764:	00727473          	csrrci	s0,0x7,4
    2768:	1601                	addi	a2,a2,-32
    276a:	711e                	flw	ft2,228(sp)
    276c:	0000                	unimp
    276e:	0200                	addi	s0,sp,256
    2770:	5c91                	li	s9,-28
    2772:	7009                	c.lui	zero,0xfffe2
    2774:	0100                	addi	s0,sp,128
    2776:	0918                	addi	a4,sp,144
    2778:	0071                	c.nop	28
    277a:	0000                	unimp
    277c:	9102                	jalr	sp
    277e:	0968                	addi	a0,sp,156
    2780:	656c                	flw	fa1,76(a0)
    2782:	006e                	c.slli	zero,0x1b
    2784:	1901                	addi	s2,s2,-32
    2786:	00005d07          	0x5d07
    278a:	0200                	addi	s0,sp,256
    278c:	6c91                	lui	s9,0x4
    278e:	0d00                	addi	s0,sp,656
    2790:	08e2                	slli	a7,a7,0x18
    2792:	0000                	unimp
    2794:	0901                	addi	s2,s2,0
    2796:	ba0d                	j	20c8 <REGBYTES+0x20c4>
    2798:	0021                	c.nop	8
    279a:	6080                	flw	fs0,0(s1)
    279c:	0000                	unimp
    279e:	0100                	addi	s0,sp,128
    27a0:	089c                	addi	a5,sp,80
    27a2:	00000237          	lui	tp,0x0
    27a6:	0901                	addi	s2,s2,0
    27a8:	5d1a                	lw	s10,164(sp)
    27aa:	0000                	unimp
    27ac:	0200                	addi	s0,sp,256
    27ae:	5c91                	li	s9,-28
    27b0:	7009                	c.lui	zero,0xfffe2
    27b2:	0100                	addi	s0,sp,128
    27b4:	0071090b          	0x71090b
    27b8:	0000                	unimp
    27ba:	9102                	jalr	sp
    27bc:	006c                	addi	a1,sp,12
	...

Disassembly of section .debug_abbrev:

00000000 <.debug_abbrev>:
   0:	1101                	addi	sp,sp,-32
   2:	1000                	addi	s0,sp,32
   4:	1106                	slli	sp,sp,0x21
   6:	1201                	addi	tp,tp,-32
   8:	0301                	addi	t1,t1,0
   a:	1b0e                	slli	s6,s6,0x23
   c:	250e                	fld	fa0,192(sp)
   e:	130e                	slli	t1,t1,0x23
  10:	0005                	c.nop	1
  12:	0000                	unimp
  14:	1101                	addi	sp,sp,-32
  16:	1000                	addi	s0,sp,32
  18:	1106                	slli	sp,sp,0x21
  1a:	1201                	addi	tp,tp,-32
  1c:	0301                	addi	t1,t1,0
  1e:	1b0e                	slli	s6,s6,0x23
  20:	250e                	fld	fa0,192(sp)
  22:	130e                	slli	t1,t1,0x23
  24:	0005                	c.nop	1
  26:	0000                	unimp
  28:	1101                	addi	sp,sp,-32
  2a:	2501                	jal	62a <REGBYTES+0x626>
  2c:	130e                	slli	t1,t1,0x23
  2e:	1b0e030b          	0x1b0e030b
  32:	110e                	slli	sp,sp,0x23
  34:	1201                	addi	tp,tp,-32
  36:	1006                	c.slli	zero,0x21
  38:	02000017          	auipc	zero,0x2000
  3c:	0024                	addi	s1,sp,8
  3e:	0b3e0b0b          	0xb3e0b0b
  42:	00000e03          	lb	t3,0(zero) # 0 <REGBYTES-0x4>
  46:	0b002403          	lw	s0,176(zero) # b0 <REGBYTES+0xac>
  4a:	030b3e0b          	0x30b3e0b
  4e:	0008                	0x8
  50:	0400                	addi	s0,sp,512
  52:	0b0b000f          	0xb0b000f
  56:	1349                	addi	t1,t1,-14
  58:	0000                	unimp
  5a:	2e05                	jal	38a <REGBYTES+0x386>
  5c:	3f01                	jal	ffffff6c <bootstack+0x7f6fff6c>
  5e:	0319                	addi	t1,t1,6
  60:	3a0e                	fld	fs4,224(sp)
  62:	390b3b0b          	0x390b3b0b
  66:	4919270b          	0x4919270b
  6a:	12011113          	0x12011113
  6e:	4006                	0x4006
  70:	9618                	0x9618
  72:	1942                	slli	s2,s2,0x30
  74:	1301                	addi	t1,t1,-32
  76:	0000                	unimp
  78:	0b06                	slli	s6,s6,0x1
  7a:	1101                	addi	sp,sp,-32
  7c:	1201                	addi	tp,tp,-32
  7e:	0106                	slli	sp,sp,0x1
  80:	07000013          	li	zero,112
  84:	0034                	addi	a3,sp,8
  86:	0b3a0e03          	lb	t3,179(s4)
  8a:	0b390b3b          	0xb390b3b
  8e:	1349                	addi	t1,t1,-14
  90:	1802                	slli	a6,a6,0x20
  92:	0000                	unimp
  94:	0b08                	addi	a0,sp,400
  96:	1101                	addi	sp,sp,-32
  98:	1201                	addi	tp,tp,-32
  9a:	0006                	c.slli	zero,0x1
  9c:	0900                	addi	s0,sp,144
  9e:	012e                	slli	sp,sp,0xb
  a0:	0b3a0e03          	lb	t3,179(s4)
  a4:	0b390b3b          	0xb390b3b
  a8:	13491927          	0x13491927
  ac:	0111                	addi	sp,sp,4
  ae:	0612                	slli	a2,a2,0x4
  b0:	1840                	addi	s0,sp,52
  b2:	4296                	lw	t0,68(sp)
  b4:	0019                	c.nop	6
  b6:	0a00                	addi	s0,sp,272
  b8:	0005                	c.nop	1
  ba:	0b3a0e03          	lb	t3,179(s4)
  be:	0b390b3b          	0xb390b3b
  c2:	1349                	addi	t1,t1,-14
  c4:	1802                	slli	a6,a6,0x20
  c6:	0000                	unimp
  c8:	0100                	addi	s0,sp,128
  ca:	0111                	addi	sp,sp,4
  cc:	0e25                	addi	t3,t3,9
  ce:	0e030b13          	addi	s6,t1,224
  d2:	01110e1b          	0x1110e1b
  d6:	0612                	slli	a2,a2,0x4
  d8:	1710                	addi	a2,sp,928
  da:	0000                	unimp
  dc:	2e02                	fld	ft8,0(sp)
  de:	3f00                	fld	fs0,56(a4)
  e0:	0319                	addi	t1,t1,6
  e2:	3a0e                	fld	fs4,224(sp)
  e4:	390b3b0b          	0x390b3b0b
  e8:	4919270b          	0x4919270b
  ec:	12011113          	0x12011113
  f0:	4006                	0x4006
  f2:	9718                	0x9718
  f4:	1942                	slli	s2,s2,0x30
  f6:	0000                	unimp
  f8:	0b002403          	lw	s0,176(zero) # b0 <REGBYTES+0xac>
  fc:	030b3e0b          	0x30b3e0b
 100:	0008                	0x8
 102:	0000                	unimp
 104:	1101                	addi	sp,sp,-32
 106:	2501                	jal	706 <REGBYTES+0x702>
 108:	130e                	slli	t1,t1,0x23
 10a:	1b0e030b          	0x1b0e030b
 10e:	110e                	slli	sp,sp,0x23
 110:	1201                	addi	tp,tp,-32
 112:	1006                	c.slli	zero,0x21
 114:	02000017          	auipc	zero,0x2000
 118:	0024                	addi	s1,sp,8
 11a:	0b3e0b0b          	0xb3e0b0b
 11e:	00000e03          	lb	t3,0(zero) # 0 <REGBYTES-0x4>
 122:	03001603          	lh	a2,48(zero) # 30 <REGBYTES+0x2c>
 126:	3a0e                	fld	fs4,224(sp)
 128:	390b3b0b          	0x390b3b0b
 12c:	0013490b          	0x13490b
 130:	0400                	addi	s0,sp,512
 132:	0024                	addi	s1,sp,8
 134:	0b3e0b0b          	0xb3e0b0b
 138:	00000803          	lb	a6,0(zero) # 0 <REGBYTES-0x4>
 13c:	3505                	jal	ffffff5c <bootstack+0x7f6fff5c>
 13e:	4900                	lw	s0,16(a0)
 140:	06000013          	li	zero,96
 144:	0e030113          	addi	sp,t1,224
 148:	0b3a0b0b          	0xb3a0b0b
 14c:	0b390b3b          	0xb390b3b
 150:	1301                	addi	t1,t1,-32
 152:	0000                	unimp
 154:	03000d07          	0x3000d07
 158:	3a0e                	fld	fs4,224(sp)
 15a:	390b3b0b          	0x390b3b0b
 15e:	3813490b          	0x3813490b
 162:	0800000b          	0x800000b
 166:	000d                	c.nop	3
 168:	0b3a0803          	lb	a6,179(s4)
 16c:	0b390b3b          	0xb390b3b
 170:	1349                	addi	t1,t1,-14
 172:	0b38                	addi	a4,sp,408
 174:	0000                	unimp
 176:	1309                	addi	t1,t1,-30
 178:	0b01                	addi	s6,s6,0
 17a:	3b0b3a0b          	0x3b0b3a0b
 17e:	010b390b          	0x10b390b
 182:	0a000013          	li	zero,160
 186:	0b0b000f          	0xb0b000f
 18a:	1349                	addi	t1,t1,-14
 18c:	0000                	unimp
 18e:	4901010b          	0x4901010b
 192:	00130113          	addi	sp,t1,1
 196:	0c00                	addi	s0,sp,528
 198:	0021                	c.nop	8
 19a:	1349                	addi	t1,t1,-14
 19c:	00000b2f          	0xb2f
 1a0:	340d                	jal	fffffbc2 <bootstack+0x7f6ffbc2>
 1a2:	0300                	addi	s0,sp,384
 1a4:	3a0e                	fld	fs4,224(sp)
 1a6:	390b3b0b          	0x390b3b0b
 1aa:	0213490b          	0x213490b
 1ae:	0018                	0x18
 1b0:	0e00                	addi	s0,sp,784
 1b2:	012e                	slli	sp,sp,0xb
 1b4:	0e03193f 0b3b0b3a 	0xb3b0b3a0e03193f
 1bc:	0b39                	addi	s6,s6,14
 1be:	01111927          	0x1111927
 1c2:	0612                	slli	a2,a2,0x4
 1c4:	1840                	addi	s0,sp,52
 1c6:	01194297          	auipc	t0,0x1194
 1ca:	0f000013          	li	zero,240
 1ce:	0005                	c.nop	1
 1d0:	0b3a0e03          	lb	t3,179(s4)
 1d4:	0b390b3b          	0xb390b3b
 1d8:	1349                	addi	t1,t1,-14
 1da:	1802                	slli	a6,a6,0x20
 1dc:	0000                	unimp
 1de:	2e10                	fld	fa2,24(a2)
 1e0:	3f01                	jal	f0 <REGBYTES+0xec>
 1e2:	0319                	addi	t1,t1,6
 1e4:	3a0e                	fld	fs4,224(sp)
 1e6:	390b3b0b          	0x390b3b0b
 1ea:	4919270b          	0x4919270b
 1ee:	12011113          	0x12011113
 1f2:	4006                	0x4006
 1f4:	9718                	0x9718
 1f6:	1942                	slli	s2,s2,0x30
 1f8:	1301                	addi	t1,t1,-32
 1fa:	0000                	unimp
 1fc:	2e11                	jal	510 <REGBYTES+0x50c>
 1fe:	3f01                	jal	10e <REGBYTES+0x10a>
 200:	0319                	addi	t1,t1,6
 202:	3a0e                	fld	fs4,224(sp)
 204:	390b3b0b          	0x390b3b0b
 208:	4919270b          	0x4919270b
 20c:	12011113          	0x12011113
 210:	4006                	0x4006
 212:	9618                	0x9618
 214:	1942                	slli	s2,s2,0x30
 216:	1301                	addi	t1,t1,-32
 218:	0000                	unimp
 21a:	3412                	fld	fs0,288(sp)
 21c:	0300                	addi	s0,sp,384
 21e:	3a08                	fld	fa0,48(a2)
 220:	390b3b0b          	0x390b3b0b
 224:	0213490b          	0x213490b
 228:	0018                	0x18
 22a:	1300                	addi	s0,sp,416
 22c:	0005                	c.nop	1
 22e:	0b3a0803          	lb	a6,179(s4)
 232:	0b390b3b          	0xb390b3b
 236:	1349                	addi	t1,t1,-14
 238:	1802                	slli	a6,a6,0x20
 23a:	0000                	unimp
 23c:	2e14                	fld	fa3,24(a2)
 23e:	3f01                	jal	14e <REGBYTES+0x14a>
 240:	0319                	addi	t1,t1,6
 242:	3a0e                	fld	fs4,224(sp)
 244:	390b3b0b          	0x390b3b0b
 248:	4919270b          	0x4919270b
 24c:	12011113          	0x12011113
 250:	4006                	0x4006
 252:	9718                	0x9718
 254:	1942                	slli	s2,s2,0x30
 256:	0000                	unimp
 258:	0100                	addi	s0,sp,128
 25a:	0111                	addi	sp,sp,4
 25c:	0e25                	addi	t3,t3,9
 25e:	0e030b13          	addi	s6,t1,224
 262:	01110e1b          	0x1110e1b
 266:	0612                	slli	a2,a2,0x4
 268:	1710                	addi	a2,sp,928
 26a:	0000                	unimp
 26c:	2402                	fld	fs0,0(sp)
 26e:	0b00                	addi	s0,sp,400
 270:	030b3e0b          	0x30b3e0b
 274:	000e                	c.slli	zero,0x3
 276:	0300                	addi	s0,sp,384
 278:	0016                	c.slli	zero,0x5
 27a:	0b3a0e03          	lb	t3,179(s4)
 27e:	0b390b3b          	0xb390b3b
 282:	1349                	addi	t1,t1,-14
 284:	0000                	unimp
 286:	2404                	fld	fs1,8(s0)
 288:	0b00                	addi	s0,sp,400
 28a:	030b3e0b          	0x30b3e0b
 28e:	0008                	0x8
 290:	0500                	addi	s0,sp,640
 292:	0035                	c.nop	13
 294:	1349                	addi	t1,t1,-14
 296:	0000                	unimp
 298:	0f06                	slli	t5,t5,0x1
 29a:	0b00                	addi	s0,sp,400
 29c:	0013490b          	0x13490b
 2a0:	0700                	addi	s0,sp,896
 2a2:	0026                	c.slli	zero,0x9
 2a4:	1349                	addi	t1,t1,-14
 2a6:	0000                	unimp
 2a8:	3408                	fld	fa0,40(s0)
 2aa:	0300                	addi	s0,sp,384
 2ac:	3a0e                	fld	fs4,224(sp)
 2ae:	390b3b0b          	0x390b3b0b
 2b2:	3f13490b          	0x3f13490b
 2b6:	8819                	andi	s0,s0,6
 2b8:	0b01                	addi	s6,s6,0
 2ba:	1802                	slli	a6,a6,0x20
 2bc:	0000                	unimp
 2be:	2e09                	jal	5d0 <REGBYTES+0x5cc>
 2c0:	3f01                	jal	1d0 <REGBYTES+0x1cc>
 2c2:	0319                	addi	t1,t1,6
 2c4:	3a0e                	fld	fs4,224(sp)
 2c6:	390b3b0b          	0x390b3b0b
 2ca:	4919270b          	0x4919270b
 2ce:	12011113          	0x12011113
 2d2:	4006                	0x4006
 2d4:	9618                	0x9618
 2d6:	1942                	slli	s2,s2,0x30
 2d8:	1301                	addi	t1,t1,-32
 2da:	0000                	unimp
 2dc:	050a                	slli	a0,a0,0x2
 2de:	0300                	addi	s0,sp,384
 2e0:	3a0e                	fld	fs4,224(sp)
 2e2:	390b3b0b          	0x390b3b0b
 2e6:	0213490b          	0x213490b
 2ea:	0018                	0x18
 2ec:	0b00                	addi	s0,sp,400
 2ee:	0034                	addi	a3,sp,8
 2f0:	0b3a0803          	lb	a6,179(s4)
 2f4:	0b390b3b          	0xb390b3b
 2f8:	1349                	addi	t1,t1,-14
 2fa:	1802                	slli	a6,a6,0x20
 2fc:	0000                	unimp
 2fe:	010c                	addi	a1,sp,128
 300:	4901                	li	s2,0
 302:	00130113          	addi	sp,t1,1
 306:	0d00                	addi	s0,sp,656
 308:	0021                	c.nop	8
 30a:	1349                	addi	t1,t1,-14
 30c:	00000b2f          	0xb2f
 310:	050e                	slli	a0,a0,0x3
 312:	0300                	addi	s0,sp,384
 314:	3a08                	fld	fa0,48(a2)
 316:	390b3b0b          	0x390b3b0b
 31a:	0213490b          	0x213490b
 31e:	0018                	0x18
 320:	0f00                	addi	s0,sp,912
 322:	0034                	addi	a3,sp,8
 324:	0b3a0e03          	lb	t3,179(s4)
 328:	0b390b3b          	0xb390b3b
 32c:	1349                	addi	t1,t1,-14
 32e:	1802                	slli	a6,a6,0x20
 330:	0000                	unimp
 332:	0b10                	addi	a2,sp,400
 334:	1101                	addi	sp,sp,-32
 336:	1201                	addi	tp,tp,-32
 338:	0006                	c.slli	zero,0x1
 33a:	1100                	addi	s0,sp,160
 33c:	0034                	addi	a3,sp,8
 33e:	0b3a0e03          	lb	t3,179(s4)
 342:	0b390b3b          	0xb390b3b
 346:	1349                	addi	t1,t1,-14
 348:	0188                	addi	a0,sp,192
 34a:	0018020b          	0x18020b
 34e:	1200                	addi	s0,sp,288
 350:	012e                	slli	sp,sp,0xb
 352:	0e03193f 0b3b0b3a 	0xb3b0b3a0e03193f
 35a:	0b39                	addi	s6,s6,14
 35c:	13491927          	0x13491927
 360:	0111                	addi	sp,sp,4
 362:	0612                	slli	a2,a2,0x4
 364:	1840                	addi	s0,sp,52
 366:	01194297          	auipc	t0,0x1194
 36a:	13000013          	li	zero,304
 36e:	0026                	c.slli	zero,0x9
 370:	0000                	unimp
 372:	0f14                	addi	a3,sp,912
 374:	0b00                	addi	s0,sp,400
 376:	1500000b          	0x1500000b
 37a:	012e                	slli	sp,sp,0xb
 37c:	0e03193f 0b3b0b3a 	0xb3b0b3a0e03193f
 384:	0b39                	addi	s6,s6,14
 386:	13491927          	0x13491927
 38a:	0111                	addi	sp,sp,4
 38c:	0612                	slli	a2,a2,0x4
 38e:	1840                	addi	s0,sp,52
 390:	00194297          	auipc	t0,0x194
 394:	0000                	unimp
 396:	1101                	addi	sp,sp,-32
 398:	2501                	jal	998 <REGBYTES+0x994>
 39a:	130e                	slli	t1,t1,0x23
 39c:	1b0e030b          	0x1b0e030b
 3a0:	110e                	slli	sp,sp,0x23
 3a2:	1201                	addi	tp,tp,-32
 3a4:	1006                	c.slli	zero,0x21
 3a6:	02000017          	auipc	zero,0x2000
 3aa:	0024                	addi	s1,sp,8
 3ac:	0b3e0b0b          	0xb3e0b0b
 3b0:	00000e03          	lb	t3,0(zero) # 0 <REGBYTES-0x4>
 3b4:	03001603          	lh	a2,48(zero) # 30 <REGBYTES+0x2c>
 3b8:	3a0e                	fld	fs4,224(sp)
 3ba:	390b3b0b          	0x390b3b0b
 3be:	0013490b          	0x13490b
 3c2:	0400                	addi	s0,sp,512
 3c4:	0024                	addi	s1,sp,8
 3c6:	0b3e0b0b          	0xb3e0b0b
 3ca:	00000803          	lb	a6,0(zero) # 0 <REGBYTES-0x4>
 3ce:	0f05                	addi	t5,t5,1
 3d0:	0b00                	addi	s0,sp,400
 3d2:	0013490b          	0x13490b
 3d6:	0600                	addi	s0,sp,768
 3d8:	0115                	addi	sp,sp,5
 3da:	13491927          	0x13491927
 3de:	1301                	addi	t1,t1,-32
 3e0:	0000                	unimp
 3e2:	49000507          	0x49000507
 3e6:	08000013          	li	zero,128
 3ea:	0015                	c.nop	5
 3ec:	00001927          	0x1927
 3f0:	0409                	addi	s0,s0,2
 3f2:	3e01                	jal	ffffff02 <bootstack+0x7f6fff02>
 3f4:	490b0b0b          	0x490b0b0b
 3f8:	3b0b3a13          	sltiu	s4,s6,944
 3fc:	010b390b          	0x10b390b
 400:	0a000013          	li	zero,160
 404:	0028                	addi	a0,sp,8
 406:	0b1c0e03          	lb	t3,177(s8) # 180b1 <REGBYTES+0x180ad>
 40a:	0000                	unimp
 40c:	0b01130b          	0xb01130b
 410:	3b0b3a0b          	0x3b0b3a0b
 414:	010b390b          	0x10b390b
 418:	0c000013          	li	zero,192
 41c:	000d                	c.nop	3
 41e:	0b3a0e03          	lb	t3,179(s4)
 422:	0b390b3b          	0xb390b3b
 426:	1349                	addi	t1,t1,-14
 428:	0b38                	addi	a4,sp,408
 42a:	0000                	unimp
 42c:	0d0d                	addi	s10,s10,3
 42e:	0300                	addi	s0,sp,384
 430:	3a08                	fld	fa0,48(a2)
 432:	390b3b0b          	0x390b3b0b
 436:	3813490b          	0x3813490b
 43a:	0e00000b          	0xe00000b
 43e:	0b0b000f          	0xb0b000f
 442:	0000                	unimp
 444:	0b01170f          	0xb01170f
 448:	3b0b3a0b          	0x3b0b3a0b
 44c:	010b390b          	0x10b390b
 450:	10000013          	li	zero,256
 454:	000d                	c.nop	3
 456:	0b3a0803          	lb	a6,179(s4)
 45a:	0b390b3b          	0xb390b3b
 45e:	1349                	addi	t1,t1,-14
 460:	0000                	unimp
 462:	0d11                	addi	s10,s10,4
 464:	0300                	addi	s0,sp,384
 466:	3a0e                	fld	fs4,224(sp)
 468:	390b3b0b          	0x390b3b0b
 46c:	0013490b          	0x13490b
 470:	1200                	addi	s0,sp,288
 472:	0e030113          	addi	sp,t1,224
 476:	0b3a0b0b          	0xb3a0b0b
 47a:	0b390b3b          	0xb390b3b
 47e:	1301                	addi	t1,t1,-32
 480:	0000                	unimp
 482:	49010113          	addi	sp,sp,1168
 486:	00130113          	addi	sp,t1,1
 48a:	1400                	addi	s0,sp,544
 48c:	0021                	c.nop	8
 48e:	1349                	addi	t1,t1,-14
 490:	00000b2f          	0xb2f
 494:	3415                	jal	fffffeb8 <bootstack+0x7f6ffeb8>
 496:	0300                	addi	s0,sp,384
 498:	3a0e                	fld	fs4,224(sp)
 49a:	390b3b0b          	0x390b3b0b
 49e:	0213490b          	0x213490b
 4a2:	0018                	0x18
 4a4:	1600                	addi	s0,sp,800
 4a6:	012e                	slli	sp,sp,0xb
 4a8:	0e03193f 053b0b3a 	0x53b0b3a0e03193f
 4b0:	0b39                	addi	s6,s6,14
 4b2:	01111927          	0x1111927
 4b6:	0612                	slli	a2,a2,0x4
 4b8:	1840                	addi	s0,sp,52
 4ba:	4296                	lw	t0,68(sp)
 4bc:	0119                	addi	sp,sp,6
 4be:	17000013          	li	zero,368
 4c2:	0005                	c.nop	1
 4c4:	0b3a0e03          	lb	t3,179(s4)
 4c8:	0b39053b          	0xb39053b
 4cc:	1349                	addi	t1,t1,-14
 4ce:	1802                	slli	a6,a6,0x20
 4d0:	0000                	unimp
 4d2:	2e18                	fld	fa4,24(a2)
 4d4:	3f01                	jal	3e4 <REGBYTES+0x3e0>
 4d6:	0319                	addi	t1,t1,6
 4d8:	3a0e                	fld	fs4,224(sp)
 4da:	39053b0b          	0x39053b0b
 4de:	1119270b          	0x1119270b
 4e2:	1201                	addi	tp,tp,-32
 4e4:	4006                	0x4006
 4e6:	9718                	0x9718
 4e8:	1942                	slli	s2,s2,0x30
 4ea:	1301                	addi	t1,t1,-32
 4ec:	0000                	unimp
 4ee:	2e19                	jal	804 <REGBYTES+0x800>
 4f0:	3f00                	fld	fs0,56(a4)
 4f2:	0319                	addi	t1,t1,6
 4f4:	3a0e                	fld	fs4,224(sp)
 4f6:	39053b0b          	0x39053b0b
 4fa:	1119270b          	0x1119270b
 4fe:	1201                	addi	tp,tp,-32
 500:	4006                	0x4006
 502:	9618                	0x9618
 504:	1942                	slli	s2,s2,0x30
 506:	0000                	unimp
 508:	051a                	slli	a0,a0,0x6
 50a:	0300                	addi	s0,sp,384
 50c:	3a08                	fld	fa0,48(a2)
 50e:	39053b0b          	0x39053b0b
 512:	0213490b          	0x213490b
 516:	0018                	0x18
 518:	1b00                	addi	s0,sp,432
 51a:	0034                	addi	a3,sp,8
 51c:	0b3a0e03          	lb	t3,179(s4)
 520:	0b39053b          	0xb39053b
 524:	1349                	addi	t1,t1,-14
 526:	1802                	slli	a6,a6,0x20
 528:	0000                	unimp
 52a:	0b1c                	addi	a5,sp,400
 52c:	1101                	addi	sp,sp,-32
 52e:	1201                	addi	tp,tp,-32
 530:	0106                	slli	sp,sp,0x1
 532:	1d000013          	li	zero,464
 536:	0111010b          	0x111010b
 53a:	0612                	slli	a2,a2,0x4
 53c:	0000                	unimp
 53e:	2e1e                	fld	ft8,448(sp)
 540:	0301                	addi	t1,t1,0
 542:	3a0e                	fld	fs4,224(sp)
 544:	39053b0b          	0x39053b0b
 548:	1119270b          	0x1119270b
 54c:	1201                	addi	tp,tp,-32
 54e:	4006                	0x4006
 550:	9618                	0x9618
 552:	1942                	slli	s2,s2,0x30
 554:	1301                	addi	t1,t1,-32
 556:	0000                	unimp
 558:	2e1f 0300 3a0e      	0x3a0e03002e1f
 55e:	39053b0b          	0x39053b0b
 562:	1119270b          	0x1119270b
 566:	1201                	addi	tp,tp,-32
 568:	4006                	0x4006
 56a:	9618                	0x9618
 56c:	1942                	slli	s2,s2,0x30
 56e:	0000                	unimp
 570:	3420                	fld	fs0,104(s0)
 572:	0300                	addi	s0,sp,384
 574:	3a08                	fld	fa0,48(a2)
 576:	39053b0b          	0x39053b0b
 57a:	0213490b          	0x213490b
 57e:	0018                	0x18
 580:	2100                	fld	fs0,0(a0)
 582:	012e                	slli	sp,sp,0xb
 584:	0b3a0e03          	lb	t3,179(s4)
 588:	0b39053b          	0xb39053b
 58c:	13491927          	0x13491927
 590:	0111                	addi	sp,sp,4
 592:	0612                	slli	a2,a2,0x4
 594:	1840                	addi	s0,sp,52
 596:	4296                	lw	t0,68(sp)
 598:	0119                	addi	sp,sp,6
 59a:	22000013          	li	zero,544
 59e:	002e                	c.slli	zero,0xb
 5a0:	0b3a0e03          	lb	t3,179(s4)
 5a4:	0b39053b          	0xb39053b
 5a8:	13491927          	0x13491927
 5ac:	0111                	addi	sp,sp,4
 5ae:	0612                	slli	a2,a2,0x4
 5b0:	1840                	addi	s0,sp,52
 5b2:	4296                	lw	t0,68(sp)
 5b4:	0019                	c.nop	6
 5b6:	2300                	fld	fs0,0(a4)
 5b8:	002e                	c.slli	zero,0xb
 5ba:	0b3a0e03          	lb	t3,179(s4)
 5be:	0b39053b          	0xb39053b
 5c2:	13491927          	0x13491927
 5c6:	0111                	addi	sp,sp,4
 5c8:	0612                	slli	a2,a2,0x4
 5ca:	1840                	addi	s0,sp,52
 5cc:	00194297          	auipc	t0,0x194
 5d0:	2400                	fld	fs0,8(s0)
 5d2:	012e                	slli	sp,sp,0xb
 5d4:	0b3a0e03          	lb	t3,179(s4)
 5d8:	0b390b3b          	0xb390b3b
 5dc:	13491927          	0x13491927
 5e0:	0111                	addi	sp,sp,4
 5e2:	0612                	slli	a2,a2,0x4
 5e4:	1840                	addi	s0,sp,52
 5e6:	4296                	lw	t0,68(sp)
 5e8:	0119                	addi	sp,sp,6
 5ea:	25000013          	li	zero,592
 5ee:	0005                	c.nop	1
 5f0:	0b3a0e03          	lb	t3,179(s4)
 5f4:	0b390b3b          	0xb390b3b
 5f8:	1349                	addi	t1,t1,-14
 5fa:	1802                	slli	a6,a6,0x20
 5fc:	0000                	unimp
 5fe:	3426                	fld	fs0,104(sp)
 600:	0300                	addi	s0,sp,384
 602:	3a08                	fld	fa0,48(a2)
 604:	390b3b0b          	0x390b3b0b
 608:	0213490b          	0x213490b
 60c:	0018                	0x18
 60e:	2700                	fld	fs0,8(a4)
 610:	0034                	addi	a3,sp,8
 612:	0b3a0e03          	lb	t3,179(s4)
 616:	0b390b3b          	0xb390b3b
 61a:	1349                	addi	t1,t1,-14
 61c:	193c193f 2e280000 	0x2e280000193c193f
 624:	0301                	addi	t1,t1,0
 626:	3a0e                	fld	fs4,224(sp)
 628:	390b3b0b          	0x390b3b0b
 62c:	1119270b          	0x1119270b
 630:	1201                	addi	tp,tp,-32
 632:	4006                	0x4006
 634:	9618                	0x9618
 636:	1942                	slli	s2,s2,0x30
 638:	1301                	addi	t1,t1,-32
 63a:	0000                	unimp
 63c:	0529                	addi	a0,a0,10
 63e:	0300                	addi	s0,sp,384
 640:	3a08                	fld	fa0,48(a2)
 642:	390b3b0b          	0x390b3b0b
 646:	0213490b          	0x213490b
 64a:	0018                	0x18
 64c:	2a00                	fld	fs0,16(a2)
 64e:	002e                	c.slli	zero,0xb
 650:	0b3a0e03          	lb	t3,179(s4)
 654:	0b390b3b          	0xb390b3b
 658:	01111927          	0x1111927
 65c:	0612                	slli	a2,a2,0x4
 65e:	1840                	addi	s0,sp,52
 660:	4296                	lw	t0,68(sp)
 662:	0019                	c.nop	6
 664:	2b00                	fld	fs0,16(a4)
 666:	002e                	c.slli	zero,0xb
 668:	0b3a0e03          	lb	t3,179(s4)
 66c:	0b390b3b          	0xb390b3b
 670:	13491927          	0x13491927
 674:	0111                	addi	sp,sp,4
 676:	0612                	slli	a2,a2,0x4
 678:	1840                	addi	s0,sp,52
 67a:	00194297          	auipc	t0,0x194
 67e:	0000                	unimp
 680:	1101                	addi	sp,sp,-32
 682:	2501                	jal	c82 <REGBYTES+0xc7e>
 684:	130e                	slli	t1,t1,0x23
 686:	1b0e030b          	0x1b0e030b
 68a:	110e                	slli	sp,sp,0x23
 68c:	1201                	addi	tp,tp,-32
 68e:	1006                	c.slli	zero,0x21
 690:	02000017          	auipc	zero,0x2000
 694:	0024                	addi	s1,sp,8
 696:	0b3e0b0b          	0xb3e0b0b
 69a:	00000e03          	lb	t3,0(zero) # 0 <REGBYTES-0x4>
 69e:	03001603          	lh	a2,48(zero) # 30 <REGBYTES+0x2c>
 6a2:	3a0e                	fld	fs4,224(sp)
 6a4:	390b3b0b          	0x390b3b0b
 6a8:	0013490b          	0x13490b
 6ac:	0400                	addi	s0,sp,512
 6ae:	0024                	addi	s1,sp,8
 6b0:	0b3e0b0b          	0xb3e0b0b
 6b4:	00000803          	lb	a6,0(zero) # 0 <REGBYTES-0x4>
 6b8:	0f05                	addi	t5,t5,1
 6ba:	0b00                	addi	s0,sp,400
 6bc:	0013490b          	0x13490b
 6c0:	0600                	addi	s0,sp,768
 6c2:	0115                	addi	sp,sp,5
 6c4:	13491927          	0x13491927
 6c8:	1301                	addi	t1,t1,-32
 6ca:	0000                	unimp
 6cc:	49000507          	0x49000507
 6d0:	08000013          	li	zero,128
 6d4:	0015                	c.nop	5
 6d6:	00001927          	0x1927
 6da:	0409                	addi	s0,s0,2
 6dc:	3e01                	jal	1ec <REGBYTES+0x1e8>
 6de:	490b0b0b          	0x490b0b0b
 6e2:	3b0b3a13          	sltiu	s4,s6,944
 6e6:	010b390b          	0x10b390b
 6ea:	0a000013          	li	zero,160
 6ee:	0028                	addi	a0,sp,8
 6f0:	0b1c0e03          	lb	t3,177(s8)
 6f4:	0000                	unimp
 6f6:	0b01130b          	0xb01130b
 6fa:	3b0b3a0b          	0x3b0b3a0b
 6fe:	010b390b          	0x10b390b
 702:	0c000013          	li	zero,192
 706:	000d                	c.nop	3
 708:	0b3a0e03          	lb	t3,179(s4)
 70c:	0b390b3b          	0xb390b3b
 710:	1349                	addi	t1,t1,-14
 712:	0b38                	addi	a4,sp,408
 714:	0000                	unimp
 716:	0d0d                	addi	s10,s10,3
 718:	0300                	addi	s0,sp,384
 71a:	3a08                	fld	fa0,48(a2)
 71c:	390b3b0b          	0x390b3b0b
 720:	3813490b          	0x3813490b
 724:	0e00000b          	0xe00000b
 728:	0b0b000f          	0xb0b000f
 72c:	0000                	unimp
 72e:	0b01170f          	0xb01170f
 732:	3b0b3a0b          	0x3b0b3a0b
 736:	010b390b          	0x10b390b
 73a:	10000013          	li	zero,256
 73e:	000d                	c.nop	3
 740:	0b3a0803          	lb	a6,179(s4)
 744:	0b390b3b          	0xb390b3b
 748:	1349                	addi	t1,t1,-14
 74a:	0000                	unimp
 74c:	0d11                	addi	s10,s10,4
 74e:	0300                	addi	s0,sp,384
 750:	3a0e                	fld	fs4,224(sp)
 752:	390b3b0b          	0x390b3b0b
 756:	0013490b          	0x13490b
 75a:	1200                	addi	s0,sp,288
 75c:	012e                	slli	sp,sp,0xb
 75e:	0e03193f 0b3b0b3a 	0xb3b0b3a0e03193f
 766:	0b39                	addi	s6,s6,14
 768:	13491927          	0x13491927
 76c:	0111                	addi	sp,sp,4
 76e:	0612                	slli	a2,a2,0x4
 770:	1840                	addi	s0,sp,52
 772:	4296                	lw	t0,68(sp)
 774:	0119                	addi	sp,sp,6
 776:	13000013          	li	zero,304
 77a:	0005                	c.nop	1
 77c:	0b3a0803          	lb	a6,179(s4)
 780:	0b390b3b          	0xb390b3b
 784:	1349                	addi	t1,t1,-14
 786:	1802                	slli	a6,a6,0x20
 788:	0000                	unimp
 78a:	0514                	addi	a3,sp,640
 78c:	0300                	addi	s0,sp,384
 78e:	3a0e                	fld	fs4,224(sp)
 790:	390b3b0b          	0x390b3b0b
 794:	0213490b          	0x213490b
 798:	0018                	0x18
 79a:	1500                	addi	s0,sp,672
 79c:	0034                	addi	a3,sp,8
 79e:	0b3a0e03          	lb	t3,179(s4)
 7a2:	0b390b3b          	0xb390b3b
 7a6:	1349                	addi	t1,t1,-14
 7a8:	1802                	slli	a6,a6,0x20
 7aa:	0000                	unimp
 7ac:	2e16                	fld	ft8,320(sp)
 7ae:	3f00                	fld	fs0,56(a4)
 7b0:	0319                	addi	t1,t1,6
 7b2:	3a0e                	fld	fs4,224(sp)
 7b4:	390b3b0b          	0x390b3b0b
 7b8:	1119270b          	0x1119270b
 7bc:	1201                	addi	tp,tp,-32
 7be:	4006                	0x4006
 7c0:	9618                	0x9618
 7c2:	1942                	slli	s2,s2,0x30
 7c4:	0000                	unimp
 7c6:	3f012e17          	auipc	t3,0x3f012
 7ca:	0319                	addi	t1,t1,6
 7cc:	3a0e                	fld	fs4,224(sp)
 7ce:	390b3b0b          	0x390b3b0b
 7d2:	4919270b          	0x4919270b
 7d6:	12011113          	0x12011113
 7da:	4006                	0x4006
 7dc:	9618                	0x9618
 7de:	1942                	slli	s2,s2,0x30
 7e0:	0000                	unimp
 7e2:	0100                	addi	s0,sp,128
 7e4:	0111                	addi	sp,sp,4
 7e6:	0e25                	addi	t3,t3,9
 7e8:	0e030b13          	addi	s6,t1,224
 7ec:	01110e1b          	0x1110e1b
 7f0:	0612                	slli	a2,a2,0x4
 7f2:	1710                	addi	a2,sp,928
 7f4:	0000                	unimp
 7f6:	2402                	fld	fs0,0(sp)
 7f8:	0b00                	addi	s0,sp,400
 7fa:	030b3e0b          	0x30b3e0b
 7fe:	000e                	c.slli	zero,0x3
 800:	0300                	addi	s0,sp,384
 802:	0024                	addi	s1,sp,8
 804:	0b3e0b0b          	0xb3e0b0b
 808:	00000803          	lb	a6,0(zero) # 0 <REGBYTES-0x4>
 80c:	0f04                	addi	s1,sp,912
 80e:	0b00                	addi	s0,sp,400
 810:	0013490b          	0x13490b
 814:	0500                	addi	s0,sp,640
 816:	0b0b000f          	0xb0b000f
 81a:	0000                	unimp
 81c:	1306                	slli	t1,t1,0x21
 81e:	0301                	addi	t1,t1,0
 820:	0b0e                	slli	s6,s6,0x3
 822:	3b0b3a0b          	0x3b0b3a0b
 826:	010b390b          	0x10b390b
 82a:	07000013          	li	zero,112
 82e:	000d                	c.nop	3
 830:	0b3a0e03          	lb	t3,179(s4)
 834:	0b390b3b          	0xb390b3b
 838:	1349                	addi	t1,t1,-14
 83a:	0b38                	addi	a4,sp,408
 83c:	0000                	unimp
 83e:	1608                	addi	a0,sp,800
 840:	0300                	addi	s0,sp,384
 842:	3a0e                	fld	fs4,224(sp)
 844:	390b3b0b          	0x390b3b0b
 848:	0013490b          	0x13490b
 84c:	0900                	addi	s0,sp,144
 84e:	000d                	c.nop	3
 850:	0b3a0803          	lb	a6,179(s4)
 854:	0b390b3b          	0xb390b3b
 858:	1349                	addi	t1,t1,-14
 85a:	0b38                	addi	a4,sp,408
 85c:	0000                	unimp
 85e:	010a                	slli	sp,sp,0x2
 860:	4901                	li	s2,0
 862:	00130113          	addi	sp,t1,1
 866:	0b00                	addi	s0,sp,400
 868:	0021                	c.nop	8
 86a:	1349                	addi	t1,t1,-14
 86c:	00000b2f          	0xb2f
 870:	340c                	fld	fa1,40(s0)
 872:	0300                	addi	s0,sp,384
 874:	3a0e                	fld	fs4,224(sp)
 876:	390b3b0b          	0x390b3b0b
 87a:	0213490b          	0x213490b
 87e:	0018                	0x18
 880:	0d00                	addi	s0,sp,656
 882:	012e                	slli	sp,sp,0xb
 884:	0e03193f 0b3b0b3a 	0xb3b0b3a0e03193f
 88c:	0b39                	addi	s6,s6,14
 88e:	01111927          	0x1111927
 892:	0612                	slli	a2,a2,0x4
 894:	1840                	addi	s0,sp,52
 896:	4296                	lw	t0,68(sp)
 898:	0119                	addi	sp,sp,6
 89a:	0e000013          	li	zero,224
 89e:	0005                	c.nop	1
 8a0:	0b3a0803          	lb	a6,179(s4)
 8a4:	0b390b3b          	0xb390b3b
 8a8:	1349                	addi	t1,t1,-14
 8aa:	1802                	slli	a6,a6,0x20
 8ac:	0000                	unimp
 8ae:	0300340f          	0x300340f
 8b2:	3a08                	fld	fa0,48(a2)
 8b4:	390b3b0b          	0x390b3b0b
 8b8:	0213490b          	0x213490b
 8bc:	0018                	0x18
 8be:	1000                	addi	s0,sp,32
 8c0:	012e                	slli	sp,sp,0xb
 8c2:	0e03193f 0b3b0b3a 	0xb3b0b3a0e03193f
 8ca:	0b39                	addi	s6,s6,14
 8cc:	13491927          	0x13491927
 8d0:	0111                	addi	sp,sp,4
 8d2:	0612                	slli	a2,a2,0x4
 8d4:	1840                	addi	s0,sp,52
 8d6:	4296                	lw	t0,68(sp)
 8d8:	0119                	addi	sp,sp,6
 8da:	11000013          	li	zero,272
 8de:	0005                	c.nop	1
 8e0:	0b3a0e03          	lb	t3,179(s4)
 8e4:	0b390b3b          	0xb390b3b
 8e8:	1349                	addi	t1,t1,-14
 8ea:	1802                	slli	a6,a6,0x20
 8ec:	0000                	unimp
 8ee:	2e12                	fld	ft8,256(sp)
 8f0:	0301                	addi	t1,t1,0
 8f2:	3a0e                	fld	fs4,224(sp)
 8f4:	390b3b0b          	0x390b3b0b
 8f8:	4919270b          	0x4919270b
 8fc:	12011113          	0x12011113
 900:	4006                	0x4006
 902:	9618                	0x9618
 904:	1942                	slli	s2,s2,0x30
 906:	1301                	addi	t1,t1,-32
 908:	0000                	unimp
 90a:	03003413          	sltiu	s0,zero,48
 90e:	3a0e                	fld	fs4,224(sp)
 910:	390b3b0b          	0x390b3b0b
 914:	3f13490b          	0x3f13490b
 918:	3c19                	jal	32e <REGBYTES+0x32a>
 91a:	0019                	c.nop	6
 91c:	0000                	unimp
 91e:	1101                	addi	sp,sp,-32
 920:	2501                	jal	f20 <REGBYTES+0xf1c>
 922:	130e                	slli	t1,t1,0x23
 924:	1b0e030b          	0x1b0e030b
 928:	110e                	slli	sp,sp,0x23
 92a:	1201                	addi	tp,tp,-32
 92c:	1006                	c.slli	zero,0x21
 92e:	02000017          	auipc	zero,0x2000
 932:	0024                	addi	s1,sp,8
 934:	0b3e0b0b          	0xb3e0b0b
 938:	00000e03          	lb	t3,0(zero) # 0 <REGBYTES-0x4>
 93c:	03001603          	lh	a2,48(zero) # 30 <REGBYTES+0x2c>
 940:	3a0e                	fld	fs4,224(sp)
 942:	390b3b0b          	0x390b3b0b
 946:	0013490b          	0x13490b
 94a:	0400                	addi	s0,sp,512
 94c:	0024                	addi	s1,sp,8
 94e:	0b3e0b0b          	0xb3e0b0b
 952:	00000803          	lb	a6,0(zero) # 0 <REGBYTES-0x4>
 956:	0f05                	addi	t5,t5,1
 958:	0b00                	addi	s0,sp,400
 95a:	0013490b          	0x13490b
 95e:	0600                	addi	s0,sp,768
 960:	0104                	addi	s1,sp,128
 962:	0b3e                	slli	s6,s6,0xf
 964:	13490b0b          	0x13490b0b
 968:	0b3a                	slli	s6,s6,0xe
 96a:	0b390b3b          	0xb390b3b
 96e:	1301                	addi	t1,t1,-32
 970:	0000                	unimp
 972:	03002807          	flw	fa6,48(zero) # 30 <REGBYTES+0x2c>
 976:	1c0e                	slli	s8,s8,0x23
 978:	0800000b          	0x800000b
 97c:	0e030113          	addi	sp,t1,224
 980:	0b3a0b0b          	0xb3a0b0b
 984:	0b390b3b          	0xb390b3b
 988:	1301                	addi	t1,t1,-32
 98a:	0000                	unimp
 98c:	0d09                	addi	s10,s10,2
 98e:	0300                	addi	s0,sp,384
 990:	3a08                	fld	fa0,48(a2)
 992:	390b3b0b          	0x390b3b0b
 996:	3813490b          	0x3813490b
 99a:	0a00000b          	0xa00000b
 99e:	000d                	c.nop	3
 9a0:	0b3a0e03          	lb	t3,179(s4)
 9a4:	0b390b3b          	0xb390b3b
 9a8:	1349                	addi	t1,t1,-14
 9aa:	0b38                	addi	a4,sp,408
 9ac:	0000                	unimp
 9ae:	4901010b          	0x4901010b
 9b2:	00130113          	addi	sp,t1,1
 9b6:	0c00                	addi	s0,sp,528
 9b8:	0021                	c.nop	8
 9ba:	1349                	addi	t1,t1,-14
 9bc:	00000b2f          	0xb2f
 9c0:	340d                	jal	3e2 <REGBYTES+0x3de>
 9c2:	0300                	addi	s0,sp,384
 9c4:	3a0e                	fld	fs4,224(sp)
 9c6:	390b3b0b          	0x390b3b0b
 9ca:	0213490b          	0x213490b
 9ce:	0018                	0x18
 9d0:	0e00                	addi	s0,sp,784
 9d2:	012e                	slli	sp,sp,0xb
 9d4:	0e03193f 0b3b0b3a 	0xb3b0b3a0e03193f
 9dc:	0b39                	addi	s6,s6,14
 9de:	13491927          	0x13491927
 9e2:	0111                	addi	sp,sp,4
 9e4:	0612                	slli	a2,a2,0x4
 9e6:	1840                	addi	s0,sp,52
 9e8:	4296                	lw	t0,68(sp)
 9ea:	0119                	addi	sp,sp,6
 9ec:	0f000013          	li	zero,240
 9f0:	0005                	c.nop	1
 9f2:	0b3a0e03          	lb	t3,179(s4)
 9f6:	0b390b3b          	0xb390b3b
 9fa:	1349                	addi	t1,t1,-14
 9fc:	1802                	slli	a6,a6,0x20
 9fe:	0000                	unimp
 a00:	3410                	fld	fa2,40(s0)
 a02:	0300                	addi	s0,sp,384
 a04:	3a08                	fld	fa0,48(a2)
 a06:	390b3b0b          	0x390b3b0b
 a0a:	0213490b          	0x213490b
 a0e:	0018                	0x18
 a10:	1100                	addi	s0,sp,160
 a12:	012e                	slli	sp,sp,0xb
 a14:	0b3a0e03          	lb	t3,179(s4)
 a18:	0b390b3b          	0xb390b3b
 a1c:	13491927          	0x13491927
 a20:	0111                	addi	sp,sp,4
 a22:	0612                	slli	a2,a2,0x4
 a24:	1840                	addi	s0,sp,52
 a26:	4296                	lw	t0,68(sp)
 a28:	0119                	addi	sp,sp,6
 a2a:	12000013          	li	zero,288
 a2e:	0005                	c.nop	1
 a30:	0b3a0803          	lb	a6,179(s4)
 a34:	0b390b3b          	0xb390b3b
 a38:	1349                	addi	t1,t1,-14
 a3a:	1802                	slli	a6,a6,0x20
 a3c:	0000                	unimp
 a3e:	11010b13          	addi	s6,sp,272
 a42:	1201                	addi	tp,tp,-32
 a44:	0106                	slli	sp,sp,0x1
 a46:	14000013          	li	zero,320
 a4a:	0111010b          	0x111010b
 a4e:	0612                	slli	a2,a2,0x4
 a50:	0000                	unimp
 a52:	2e15                	jal	d86 <REGBYTES+0xd82>
 a54:	0300                	addi	s0,sp,384
 a56:	3a0e                	fld	fs4,224(sp)
 a58:	390b3b0b          	0x390b3b0b
 a5c:	4919270b          	0x4919270b
 a60:	12011113          	0x12011113
 a64:	4006                	0x4006
 a66:	9618                	0x9618
 a68:	1942                	slli	s2,s2,0x30
 a6a:	0000                	unimp
 a6c:	2e16                	fld	ft8,320(sp)
 a6e:	0301                	addi	t1,t1,0
 a70:	3a0e                	fld	fs4,224(sp)
 a72:	390b3b0b          	0x390b3b0b
 a76:	1119270b          	0x1119270b
 a7a:	1201                	addi	tp,tp,-32
 a7c:	4006                	0x4006
 a7e:	9618                	0x9618
 a80:	1942                	slli	s2,s2,0x30
 a82:	1301                	addi	t1,t1,-32
 a84:	0000                	unimp
 a86:	03012e17          	auipc	t3,0x3012
 a8a:	3a0e                	fld	fs4,224(sp)
 a8c:	390b3b0b          	0x390b3b0b
 a90:	1119270b          	0x1119270b
 a94:	1201                	addi	tp,tp,-32
 a96:	4006                	0x4006
 a98:	9618                	0x9618
 a9a:	1942                	slli	s2,s2,0x30
 a9c:	0000                	unimp
 a9e:	0100                	addi	s0,sp,128
 aa0:	0111                	addi	sp,sp,4
 aa2:	0e25                	addi	t3,t3,9
 aa4:	0e030b13          	addi	s6,t1,224
 aa8:	01110e1b          	0x1110e1b
 aac:	0612                	slli	a2,a2,0x4
 aae:	1710                	addi	a2,sp,928
 ab0:	0000                	unimp
 ab2:	2402                	fld	fs0,0(sp)
 ab4:	0b00                	addi	s0,sp,400
 ab6:	030b3e0b          	0x30b3e0b
 aba:	000e                	c.slli	zero,0x3
 abc:	0300                	addi	s0,sp,384
 abe:	0024                	addi	s1,sp,8
 ac0:	0b3e0b0b          	0xb3e0b0b
 ac4:	00000803          	lb	a6,0(zero) # 0 <REGBYTES-0x4>
 ac8:	0f04                	addi	s1,sp,912
 aca:	0b00                	addi	s0,sp,400
 acc:	0013490b          	0x13490b
 ad0:	0500                	addi	s0,sp,640
 ad2:	0104                	addi	s1,sp,128
 ad4:	0b3e                	slli	s6,s6,0xf
 ad6:	13490b0b          	0x13490b0b
 ada:	0b3a                	slli	s6,s6,0xe
 adc:	0b390b3b          	0xb390b3b
 ae0:	1301                	addi	t1,t1,-32
 ae2:	0000                	unimp
 ae4:	2806                	fld	fa6,64(sp)
 ae6:	0300                	addi	s0,sp,384
 ae8:	1c0e                	slli	s8,s8,0x23
 aea:	0700000b          	0x700000b
 aee:	012e                	slli	sp,sp,0xb
 af0:	0e03193f 0b3b0b3a 	0xb3b0b3a0e03193f
 af8:	0b39                	addi	s6,s6,14
 afa:	13491927          	0x13491927
 afe:	0111                	addi	sp,sp,4
 b00:	0612                	slli	a2,a2,0x4
 b02:	1840                	addi	s0,sp,52
 b04:	4296                	lw	t0,68(sp)
 b06:	0119                	addi	sp,sp,6
 b08:	08000013          	li	zero,128
 b0c:	0005                	c.nop	1
 b0e:	0b3a0e03          	lb	t3,179(s4)
 b12:	0b390b3b          	0xb390b3b
 b16:	1349                	addi	t1,t1,-14
 b18:	1802                	slli	a6,a6,0x20
 b1a:	0000                	unimp
 b1c:	3409                	jal	51e <REGBYTES+0x51a>
 b1e:	0300                	addi	s0,sp,384
 b20:	3a08                	fld	fa0,48(a2)
 b22:	390b3b0b          	0x390b3b0b
 b26:	0213490b          	0x213490b
 b2a:	0018                	0x18
 b2c:	0a00                	addi	s0,sp,272
 b2e:	0034                	addi	a3,sp,8
 b30:	0b3a0e03          	lb	t3,179(s4)
 b34:	0b390b3b          	0xb390b3b
 b38:	1349                	addi	t1,t1,-14
 b3a:	1802                	slli	a6,a6,0x20
 b3c:	0000                	unimp
 b3e:	03012e0b          	0x3012e0b
 b42:	3a0e                	fld	fs4,224(sp)
 b44:	390b3b0b          	0x390b3b0b
 b48:	1119270b          	0x1119270b
 b4c:	1201                	addi	tp,tp,-32
 b4e:	4006                	0x4006
 b50:	9618                	0x9618
 b52:	1942                	slli	s2,s2,0x30
 b54:	1301                	addi	t1,t1,-32
 b56:	0000                	unimp
 b58:	050c                	addi	a1,sp,640
 b5a:	0300                	addi	s0,sp,384
 b5c:	3a08                	fld	fa0,48(a2)
 b5e:	390b3b0b          	0x390b3b0b
 b62:	0213490b          	0x213490b
 b66:	0018                	0x18
 b68:	0d00                	addi	s0,sp,656
 b6a:	012e                	slli	sp,sp,0xb
 b6c:	0b3a0e03          	lb	t3,179(s4)
 b70:	0b390b3b          	0xb390b3b
 b74:	01111927          	0x1111927
 b78:	0612                	slli	a2,a2,0x4
 b7a:	1840                	addi	s0,sp,52
 b7c:	4296                	lw	t0,68(sp)
 b7e:	0019                	c.nop	6
	...

Disassembly of section .debug_aranges:

00000000 <.debug_aranges>:
   0:	001c                	0x1c
   2:	0000                	unimp
   4:	0002                	c.slli64	zero
   6:	0000                	unimp
   8:	0000                	unimp
   a:	0004                	0x4
   c:	0000                	unimp
   e:	0000                	unimp
  10:	0000                	unimp
  12:	8000                	0x8000
  14:	009a                	slli	ra,ra,0x6
	...
  1e:	0000                	unimp
  20:	001c                	0x1c
  22:	0000                	unimp
  24:	0002                	c.slli64	zero
  26:	0026                	c.slli	zero,0x9
  28:	0000                	unimp
  2a:	0004                	0x4
  2c:	0000                	unimp
  2e:	0000                	unimp
  30:	2400                	fld	fs0,8(s0)
  32:	8000                	0x8000
  34:	0da2                	slli	s11,s11,0x8
	...
  3e:	0000                	unimp
  40:	001c                	0x1c
  42:	0000                	unimp
  44:	0002                	c.slli64	zero
  46:	004c                	addi	a1,sp,4
  48:	0000                	unimp
  4a:	0004                	0x4
  4c:	0000                	unimp
  4e:	0000                	unimp
  50:	009a                	slli	ra,ra,0x6
  52:	8000                	0x8000
  54:	00bc                	addi	a5,sp,72
	...
  5e:	0000                	unimp
  60:	001c                	0x1c
  62:	0000                	unimp
  64:	0002                	c.slli64	zero
  66:	01a4                	addi	s1,sp,200
  68:	0000                	unimp
  6a:	0004                	0x4
  6c:	0000                	unimp
  6e:	0000                	unimp
  70:	0156                	slli	sp,sp,0x15
  72:	8000                	0x8000
  74:	0020                	addi	s0,sp,8
	...
  7e:	0000                	unimp
  80:	001c                	0x1c
  82:	0000                	unimp
  84:	0002                	c.slli64	zero
  86:	000001e7          	jalr	gp,zero # 0 <REGBYTES-0x4>
  8a:	0004                	0x4
  8c:	0000                	unimp
  8e:	0000                	unimp
  90:	0176                	slli	sp,sp,0x1d
  92:	8000                	0x8000
  94:	0332                	slli	t1,t1,0xc
	...
  9e:	0000                	unimp
  a0:	001c                	0x1c
  a2:	0000                	unimp
  a4:	0002                	c.slli64	zero
  a6:	05c5                	addi	a1,a1,17
  a8:	0000                	unimp
  aa:	0004                	0x4
  ac:	0000                	unimp
  ae:	0000                	unimp
  b0:	04a8                	addi	a0,sp,584
  b2:	8000                	0x8000
  b4:	05dc                	addi	a5,sp,708
	...
  be:	0000                	unimp
  c0:	001c                	0x1c
  c2:	0000                	unimp
  c4:	0002                	c.slli64	zero
  c6:	0b22                	slli	s6,s6,0x8
  c8:	0000                	unimp
  ca:	0004                	0x4
  cc:	0000                	unimp
  ce:	0000                	unimp
  d0:	0a84                	addi	s1,sp,336
  d2:	8000                	0x8000
  d4:	0e08                	addi	a0,sp,784
	...
  de:	0000                	unimp
  e0:	001c                	0x1c
  e2:	0000                	unimp
  e4:	0002                	c.slli64	zero
  e6:	1891                	addi	a7,a7,-28
  e8:	0000                	unimp
  ea:	0004                	0x4
  ec:	0000                	unimp
  ee:	0000                	unimp
  f0:	188c                	addi	a1,sp,112
  f2:	8000                	0x8000
  f4:	0326                	slli	t1,t1,0x9
	...
  fe:	0000                	unimp
 100:	001c                	0x1c
 102:	0000                	unimp
 104:	0002                	c.slli64	zero
 106:	2096                	fld	ft1,320(sp)
 108:	0000                	unimp
 10a:	0004                	0x4
 10c:	0000                	unimp
 10e:	0000                	unimp
 110:	1bb2                	slli	s7,s7,0x2c
 112:	8000                	0x8000
 114:	0200                	addi	s0,sp,256
	...
 11e:	0000                	unimp
 120:	001c                	0x1c
 122:	0000                	unimp
 124:	0002                	c.slli64	zero
 126:	22f8                	fld	fa4,192(a3)
 128:	0000                	unimp
 12a:	0004                	0x4
 12c:	0000                	unimp
 12e:	0000                	unimp
 130:	1db2                	slli	s11,s11,0x2c
 132:	8000                	0x8000
 134:	0408                	addi	a0,sp,512
	...
 13e:	0000                	unimp
 140:	001c                	0x1c
 142:	0000                	unimp
 144:	0002                	c.slli64	zero
 146:	2659                	jal	4cc <REGBYTES+0x4c8>
 148:	0000                	unimp
 14a:	0004                	0x4
 14c:	0000                	unimp
 14e:	0000                	unimp
 150:	21ba                	fld	ft3,392(sp)
 152:	8000                	0x8000
 154:	0154                	addi	a3,sp,132
	...

Disassembly of section .debug_str:

00000000 <.debug_str>:
   0:	72617473          	csrrci	s0,0x726,2
   4:	7574                	flw	fa3,108(a0)
   6:	2e70                	fld	fa2,216(a2)
   8:	682f0073          	0x682f0073
   c:	2f656d6f          	jal	s10,56302 <REGBYTES+0x562fe>
  10:	61677573          	csrrci	a0,0x616,14
  14:	7369722f          	0x7369722f
  18:	2f762d63          	0x2f762d63
  1c:	6f7a6f6b          	0x6f7a6f6b
  20:	4e470073          	0x4e470073
  24:	2055                	jal	c8 <REGBYTES+0xc4>
  26:	5341                	li	t1,-16
  28:	3220                	fld	fs0,96(a2)
  2a:	332e                	fld	ft6,232(sp)
  2c:	0032                	c.slli	zero,0xc
  2e:	6e69                	lui	t3,0x1a
  30:	7274                	flw	fa3,100(a2)
  32:	532e                	lw	t1,232(sp)
  34:	6c00                	flw	fs0,24(s0)
  36:	20676e6f          	jal	t3,7623c <REGBYTES+0x76238>
  3a:	6f6c                	flw	fa1,92(a4)
  3c:	676e                	flw	fa4,216(sp)
  3e:	6920                	flw	fs0,80(a0)
  40:	746e                	flw	fs0,248(sp)
  42:	7300                	flw	fs0,32(a4)
  44:	6174                	flw	fa3,68(a0)
  46:	7472                	flw	fs0,60(sp)
  48:	745f 7268 6165      	0x61657268745f
  4e:	7364                	flw	fs1,100(a4)
  50:	6d00                	flw	fs0,24(a0)
  52:	6961                	lui	s2,0x18
  54:	2e6e                	fld	ft8,216(sp)
  56:	5f5f0063          	beq	t5,s5,636 <REGBYTES+0x632>
  5a:	6d74                	flw	fa3,92(a0)
  5c:	0070                	addi	a2,sp,12
  5e:	7261                	lui	tp,0xffff8
  60:	6c006367          	0x6c006367
  64:	20676e6f          	jal	t3,7626a <REGBYTES+0x76266>
  68:	6f6c                	flw	fa1,92(a4)
  6a:	676e                	flw	fa4,216(sp)
  6c:	7520                	flw	fs0,104(a0)
  6e:	736e                	flw	ft6,248(sp)
  70:	6769                	lui	a4,0x1a
  72:	656e                	flw	fa0,216(sp)
  74:	2064                	fld	fs1,192(s0)
  76:	6e69                	lui	t3,0x1a
  78:	0074                	addi	a3,sp,12
  7a:	6e75                	lui	t3,0x1d
  7c:	6e676973          	csrrsi	s2,0x6e6,14
  80:	6465                	lui	s0,0x19
  82:	6320                	flw	fs0,64(a4)
  84:	6168                	flw	fa0,68(a0)
  86:	0072                	c.slli	zero,0x1c
  88:	20554e47          	fmsub.s	ft8,fa0,ft5,ft4,rmm
  8c:	20313143          	fmadd.s	ft2,ft2,ft3,ft4,rup
  90:	2e38                	fld	fa4,88(a2)
  92:	20302e33          	0x20302e33
  96:	6d2d                	lui	s10,0xb
  98:	7261                	lui	tp,0xffff8
  9a:	723d6863          	bltu	s10,gp,7ca <REGBYTES+0x7c6>
  9e:	3376                	fld	ft6,376(sp)
  a0:	6932                	flw	fs2,12(sp)
  a2:	616d                	addi	sp,sp,240
  a4:	6d2d2063          	0x6d2d2063
  a8:	6261                	lui	tp,0x18
  aa:	3d69                	jal	ffffff44 <bootstack+0x7f6fff44>
  ac:	6c69                	lui	s8,0x1a
  ae:	3370                	fld	fa2,224(a4)
  b0:	2032                	fld	ft0,264(sp)
  b2:	6d2d                	lui	s10,0xb
  b4:	646f6d63          	bltu	t5,t1,70e <REGBYTES+0x70a>
  b8:	6c65                	lui	s8,0x19
  ba:	6d3d                	lui	s10,0xf
  bc:	6465                	lui	s0,0x19
  be:	6e61                	lui	t3,0x18
  c0:	2079                	jal	14e <REGBYTES+0x14a>
  c2:	672d                	lui	a4,0xb
  c4:	2d20                	fld	fs0,88(a0)
  c6:	3d647473          	csrrci	s0,0x3d6,8
  ca:	31756e67          	0x31756e67
  ce:	2031                	jal	da <REGBYTES+0xd6>
  d0:	662d                	lui	a2,0xb
  d2:	6f6e                	flw	ft10,216(sp)
  d4:	632d                	lui	t1,0xb
  d6:	6f6d6d6f          	jal	s10,d67cc <REGBYTES+0xd67c8>
  da:	206e                	fld	ft0,216(sp)
  dc:	662d                	lui	a2,0xb
  de:	6f6e                	flw	ft10,216(sp)
  e0:	622d                	lui	tp,0xb
  e2:	6975                	lui	s2,0x1d
  e4:	746c                	flw	fa1,108(s0)
  e6:	6e69                	lui	t3,0x1a
  e8:	7300                	flw	fs0,32(a4)
  ea:	6f68                	flw	fa0,92(a4)
  ec:	7472                	flw	fs0,60(sp)
  ee:	7520                	flw	fs0,104(a0)
  f0:	736e                	flw	ft6,248(sp)
  f2:	6769                	lui	a4,0x1a
  f4:	656e                	flw	fa0,216(sp)
  f6:	2064                	fld	fs1,192(s0)
  f8:	6e69                	lui	t3,0x1a
  fa:	0074                	addi	a3,sp,12
  fc:	726f6873          	csrrsi	a6,0x726,30
 100:	2074                	fld	fa3,192(s0)
 102:	6e69                	lui	t3,0x1a
 104:	0074                	addi	a3,sp,12
 106:	7261                	lui	tp,0xffff8
 108:	69007667          	0x69007667
 10c:	746e                	flw	fs0,248(sp)
 10e:	7265                	lui	tp,0xffff9
 110:	7572                	flw	fa0,60(sp)
 112:	7470                	flw	fa2,108(s0)
 114:	632e                	flw	ft6,200(sp)
 116:	6d00                	flw	fs0,24(a0)
 118:	7674                	flw	fa3,108(a2)
 11a:	6365                	lui	t1,0x19
 11c:	695f 696e 0074      	0x74696e695f
 122:	6572                	flw	fa0,28(sp)
 124:	76696563          	bltu	s2,t1,88e <REGBYTES+0x88a>
 128:	6465                	lui	s0,0x19
 12a:	765f 6c61 7300      	0x73006c61765f
 130:	7265                	lui	tp,0xffff9
 132:	6169                	addi	sp,sp,208
 134:	5f6c                	lw	a1,124(a4)
 136:	6e69                	lui	t3,0x1a
 138:	7274                	flw	fa3,100(a2)
 13a:	725f 6365 5f76      	0x5f766365725f
 140:	6e65                	lui	t3,0x19
 142:	6261                	lui	tp,0x18
 144:	656c                	flw	fa1,76(a0)
 146:	5f00                	lw	s0,56(a4)
 148:	695f 746e 3233      	0x3233746e695f
 14e:	745f 7300 7265      	0x72657300745f
 154:	6169                	addi	sp,sp,208
 156:	5f6c                	lw	a1,124(a4)
 158:	6e69                	lui	t3,0x1a
 15a:	7274                	flw	fa3,100(a2)
 15c:	695f 5f73 6572      	0x65725f73695f
 162:	655f7663          	bgeu	t5,s5,7ae <REGBYTES+0x7aa>
 166:	616e                	flw	ft2,216(sp)
 168:	6c62                	flw	fs8,24(sp)
 16a:	0065                	c.nop	25
 16c:	69726573          	csrrsi	a0,0x697,4
 170:	6c61                	lui	s8,0x18
 172:	695f 746e 5f72      	0x5f72746e695f
 178:	7369                	lui	t1,0xffffa
 17a:	735f 6e65 5f64      	0x5f646e65735f
 180:	6e65                	lui	t3,0x19
 182:	6261                	lui	tp,0x18
 184:	656c                	flw	fa1,76(a0)
 186:	7300                	flw	fs0,32(a4)
 188:	7265                	lui	tp,0xffff9
 18a:	6169                	addi	sp,sp,208
 18c:	5f6c                	lw	a1,124(a4)
 18e:	7369                	lui	t1,0xffffa
 190:	725f 6365 5f76      	0x5f766365725f
 196:	6e65                	lui	t3,0x19
 198:	6261                	lui	tp,0x18
 19a:	656c                	flw	fa1,76(a0)
 19c:	7200                	flw	fs0,32(a2)
 19e:	6478                	flw	fa4,76(s0)
 1a0:	7461                	lui	s0,0xffff8
 1a2:	0061                	c.nop	24
 1a4:	69726573          	csrrsi	a0,0x697,4
 1a8:	6c61                	lui	s8,0x18
 1aa:	695f 5f73 6573      	0x65735f73695f
 1b0:	646e                	flw	fs0,216(sp)
 1b2:	655f 616e 6c62      	0x6c62616e655f
 1b8:	0065                	c.nop	25
 1ba:	7874                	flw	fa3,116(s0)
 1bc:	6c727463          	bgeu	tp,t2,884 <REGBYTES+0x880>
 1c0:	7300                	flw	fs0,32(a4)
 1c2:	7265                	lui	tp,0xffff9
 1c4:	6169                	addi	sp,sp,208
 1c6:	5f6c                	lw	a1,124(a4)
 1c8:	6e69                	lui	t3,0x1a
 1ca:	7274                	flw	fa3,100(a2)
 1cc:	725f 6365 5f76      	0x5f766365725f
 1d2:	6964                	flw	fs1,84(a0)
 1d4:	6c626173          	csrrsi	sp,0x6c6,4
 1d8:	0065                	c.nop	25
 1da:	69726573          	csrrsi	a0,0x697,4
 1de:	6c61                	lui	s8,0x18
 1e0:	695f 746e 5f72      	0x5f72746e695f
 1e6:	646e6573          	csrrsi	a0,0x646,28
 1ea:	655f 616e 6c62      	0x6c62616e655f
 1f0:	0065                	c.nop	25
 1f2:	69726573          	csrrsi	a0,0x697,4
 1f6:	6c61                	lui	s8,0x18
 1f8:	632e                	flw	ft6,200(sp)
 1fa:	5f00                	lw	s0,56(a4)
 1fc:	755f 6e69 3374      	0x33746e69755f
 202:	5f32                	lw	t5,44(sp)
 204:	0074                	addi	a3,sp,12
 206:	6572                	flw	fa0,28(sp)
 208:	72007367          	0x72007367
 20c:	6378                	flw	fa4,68(a4)
 20e:	7274                	flw	fa3,100(a2)
 210:	006c                	addi	a1,sp,12
 212:	69726573          	csrrsi	a0,0x697,4
 216:	6c61                	lui	s8,0x18
 218:	695f 746e 5f72      	0x5f72746e695f
 21e:	646e6573          	csrrsi	a0,0x646,28
 222:	645f 7369 6261      	0x62617369645f
 228:	656c                	flw	fa1,76(a0)
 22a:	7300                	flw	fs0,32(a4)
 22c:	7265                	lui	tp,0xffff9
 22e:	6169                	addi	sp,sp,208
 230:	5f6c                	lw	a1,124(a4)
 232:	6e69                	lui	t3,0x1a
 234:	7469                	lui	s0,0xffffa
 236:	6900                	flw	fs0,16(a0)
 238:	646e                	flw	fs0,216(sp)
 23a:	7865                	lui	a6,0xffff9
 23c:	7300                	flw	fs0,32(a4)
 23e:	7265                	lui	tp,0xffff9
 240:	6169                	addi	sp,sp,208
 242:	5f6c                	lw	a1,124(a4)
 244:	6572                	flw	fa0,28(sp)
 246:	625f7663          	bgeu	t5,t0,872 <REGBYTES+0x86e>
 24a:	7479                	lui	s0,0xffffe
 24c:	0065                	c.nop	25
 24e:	69726573          	csrrsi	a0,0x697,4
 252:	6c61                	lui	s8,0x18
 254:	735f 6e65 5f64      	0x5f646e65735f
 25a:	7962                	flw	fs2,56(sp)
 25c:	6574                	flw	fa3,76(a0)
 25e:	7400                	flw	fs0,40(s0)
 260:	6478                	flw	fa4,76(s0)
 262:	7461                	lui	s0,0xffff8
 264:	0061                	c.nop	24
 266:	6974                	flw	fa3,84(a0)
 268:	796e                	flw	fs2,248(sp)
 26a:	616c                	flw	fa1,68(a0)
 26c:	636e                	flw	ft6,216(sp)
 26e:	5f65                	li	t5,-7
 270:	6175                	addi	sp,sp,368
 272:	7472                	flw	fs0,60(sp)
 274:	7a00                	flw	fs0,48(a2)
 276:	7265                	lui	tp,0xffff9
 278:	7478456f          	jal	a0,851be <REGBYTES+0x851ba>
 27c:	6e65                	lui	t3,0x19
 27e:	0064                	addi	s1,sp,12
 280:	63746567          	0x63746567
 284:	6300                	flw	fs0,0(a4)
 286:	6d756c6f          	jal	s8,5715c <REGBYTES+0x57158>
 28a:	006e                	c.slli	zero,0x1b
 28c:	63696877          	0x63696877
 290:	0068                	addi	a0,sp,12
 292:	656d                	lui	a0,0x1b
 294:	636d                	lui	t1,0x1b
 296:	7970                	flw	fa2,116(a0)
 298:	7300                	flw	fs0,32(a4)
 29a:	7274                	flw	fa3,100(a2)
 29c:	636e                	flw	ft6,216(sp)
 29e:	706d                	c.lui	zero,0xffffb
 2a0:	7600                	flw	fs0,40(a2)
 2a2:	6c61                	lui	s8,0x18
 2a4:	6575                	lui	a0,0x1d
 2a6:	7400                	flw	fs0,40(s0)
 2a8:	736f686f          	jal	a6,f69de <REGBYTES+0xf69da>
 2ac:	0074                	addi	a3,sp,12
 2ae:	7261                	lui	tp,0xffff8
 2b0:	61003067          	0x61003067
 2b4:	6772                	flw	fa4,28(sp)
 2b6:	0031                	c.nop	12
 2b8:	7261                	lui	tp,0xffff8
 2ba:	6d003267          	0x6d003267
 2be:	6d65                	lui	s10,0x19
 2c0:	00706d63          	bltu	zero,t2,2da <REGBYTES+0x2d6>
 2c4:	656d                	lui	a0,0x1b
 2c6:	736d                	lui	t1,0xffffb
 2c8:	7465                	lui	s0,0xffff9
 2ca:	6700                	flw	fs0,8(a4)
 2cc:	7465                	lui	s0,0xffff9
 2ce:	696c0073          	0x696c0073
 2d2:	2e62                	fld	ft8,24(sp)
 2d4:	65720063          	beq	tp,s7,914 <REGBYTES+0x910>
 2d8:	7574                	flw	fa3,108(a0)
 2da:	6e72                	flw	ft8,28(sp)
 2dc:	6156                	flw	ft2,84(sp)
 2de:	756c                	flw	fa1,108(a0)
 2e0:	0065                	c.nop	25
 2e2:	7570                	flw	fa2,108(a0)
 2e4:	6374                	flw	fa3,68(a4)
 2e6:	7000                	flw	fs0,32(s0)
 2e8:	7672                	flw	fa2,60(sp)
 2ea:	63737953          	0x63737953
 2ee:	6c61                	lui	s8,0x18
 2f0:	546c                	lw	a1,108(s0)
 2f2:	736f486f          	jal	a6,f4a28 <REGBYTES+0xf4a24>
 2f6:	0074                	addi	a3,sp,12
 2f8:	7570                	flw	fa2,108(a0)
 2fa:	7374                	flw	fa3,100(a4)
 2fc:	6d00                	flw	fs0,24(a0)
 2fe:	6761                	lui	a4,0x18
 300:	6369                	lui	t1,0x1a
 302:	6d5f 6d65 7300      	0x73006d656d5f
 308:	7274                	flw	fa3,100(a2)
 30a:	656c                	flw	fa1,76(a0)
 30c:	006e                	c.slli	zero,0x1b
 30e:	63727473          	csrrci	s0,0x637,4
 312:	7970                	flw	fa2,116(a0)
 314:	7000                	flw	fs0,32(s0)
 316:	7475                	lui	s0,0xffffd
 318:	70735f73          	csrrwi	t5,0x707,6
 31c:	6b69                	lui	s6,0x1a
 31e:	0065                	c.nop	25
 320:	5f5f 6975 746e      	0x746e69755f5f
 326:	3436                	fld	fs0,360(sp)
 328:	745f 6600 6f72      	0x6f726600745f
 32e:	686d                	lui	a6,0x1b
 330:	0074736f          	jal	t1,47b36 <REGBYTES+0x47b32>
 334:	63727473          	csrrci	s0,0x637,4
 338:	706d                	c.lui	zero,0xffffb
 33a:	7000                	flw	fs0,32(s0)
 33c:	7475                	lui	s0,0xffffd
 33e:	7678                	flw	fa4,108(a2)
 340:	6c61                	lui	s8,0x18
 342:	4b00                	lw	s0,16(a4)
 344:	5f5a                	lw	t5,180(sp)
 346:	43535953          	0x43535953
 34a:	4c41                	li	s8,16
 34c:	5f4c                	lw	a1,60(a4)
 34e:	5954                	lw	a3,52(a0)
 350:	4550                	lw	a2,12(a0)
 352:	535f 454c 5045      	0x5045454c535f
 358:	6b00                	flw	fs0,16(a4)
 35a:	5f7a                	lw	t5,188(sp)
 35c:	736d                	lui	t1,0xffffb
 35e:	786f6267          	0x786f6267
 362:	695f 5f64 0074      	0x745f64695f
 368:	535f5a4b          	fnmsub.d	fs4,ft10,fs5,fa0,unknown
 36c:	5359                	li	t1,-10
 36e:	4c4c4143          	0x4c4c4143
 372:	545f 5059 5f45      	0x5f455059545f
 378:	52504843          	fmadd.d	fa6,ft0,ft5,fa0,rmm
 37c:	0049                	c.nop	18
 37e:	735f7a6b          	0x735f7a6b
 382:	7379                	lui	t1,0xffffe
 384:	6f64                	flw	fs1,92(a4)
 386:	4b006e77          	0x4b006e77
 38a:	5f5a                	lw	t5,180(sp)
 38c:	43535953          	0x43535953
 390:	4c41                	li	s8,16
 392:	5f4c                	lw	a1,60(a4)
 394:	5954                	lw	a3,52(a0)
 396:	4550                	lw	a2,12(a0)
 398:	455f 4958 0054      	0x544958455f
 39e:	6874                	flw	fa3,84(s0)
 3a0:	6572                	flw	fa0,28(sp)
 3a2:	6461                	lui	s0,0x18
 3a4:	735f 7465 6e69      	0x6e697465735f
 3aa:	7274                	flw	fa3,100(a2)
 3ac:	7300                	flw	fs0,32(a4)
 3ae:	7a69                	lui	s4,0xffffa
 3b0:	7065                	c.lui	zero,0xffff9
 3b2:	6b00                	flw	fs0,16(a4)
 3b4:	5f7a                	lw	t5,188(sp)
 3b6:	63737973          	csrrci	s2,0x637,6
 3ba:	6c61                	lui	s8,0x18
 3bc:	006c                	addi	a1,sp,12
 3be:	735f7a6b          	0x735f7a6b
 3c2:	7379                	lui	t1,0xffffe
 3c4:	6c6c6163          	bltu	s8,t1,a86 <REGBYTES+0xa82>
 3c8:	705f 7261 6d61      	0x6d617261705f
 3ce:	745f 4b00 5f5a      	0x5f5a4b00745f
 3d4:	43535953          	0x43535953
 3d8:	4c41                	li	s8,16
 3da:	5f4c                	lw	a1,60(a4)
 3dc:	5954                	lw	a3,52(a0)
 3de:	4550                	lw	a2,12(a0)
 3e0:	535f 5445 4e49      	0x4e495445535f
 3e6:	5254                	lw	a3,36(a2)
 3e8:	7300                	flw	fs0,32(a4)
 3ea:	6e65                	lui	t3,0x19
 3ec:	6d64                	flw	fs1,92(a0)
 3ee:	6b006773          	csrrsi	a4,0x6b0,0
 3f2:	5f7a                	lw	t5,188(sp)
 3f4:	7566                	flw	fa0,120(sp)
 3f6:	636e                	flw	ft6,216(sp)
 3f8:	745f 6b00 5f7a      	0x5f7a6b00745f
 3fe:	72617473          	csrrci	s0,0x726,2
 402:	0074                	addi	a3,sp,12
 404:	626d                	lui	tp,0x1b
 406:	0070786f          	jal	a6,7c0c <REGBYTES+0x7c08>
 40a:	535f5a4b          	fnmsub.d	fs4,ft10,fs5,fa0,unknown
 40e:	5359                	li	t1,-10
 410:	4c4c4143          	0x4c4c4143
 414:	545f 5059 5f45      	0x5f455059545f
 41a:	444e4553          	0x444e4553
 41e:	6800                	flw	fs0,16(s0)
 420:	6e61                	lui	t3,0x18
 422:	6c64                	flw	fs1,92(s0)
 424:	7265                	lui	tp,0xffff9
 426:	7300                	flw	fs0,32(a4)
 428:	6174                	flw	fa3,68(a0)
 42a:	69736b63          	bltu	t1,s7,ac0 <REGBYTES+0xabc>
 42e:	657a                	flw	fa0,156(sp)
 430:	7400                	flw	fs0,40(s0)
 432:	7079                	c.lui	zero,0xffffe
 434:	0065                	c.nop	25
 436:	6568                	flw	fa0,76(a0)
 438:	6461                	lui	s0,0x18
 43a:	7300                	flw	fs0,32(a4)
 43c:	64656863          	bltu	a0,t1,a8c <REGBYTES+0xa88>
 440:	6c75                	lui	s8,0x1d
 442:	0065                	c.nop	25
 444:	6874                	flw	fa3,84(s0)
 446:	6572                	flw	fa0,28(sp)
 448:	6461                	lui	s0,0x18
 44a:	735f 6174 6b63      	0x6b636174735f
 450:	5f00                	lw	s0,56(a4)
 452:	6d5f7a6b          	0x6d5f7a6b
 456:	6f626773          	csrrsi	a4,0x6f6,4
 45a:	0078                	addi	a4,sp,12
 45c:	6874                	flw	fa3,84(s0)
 45e:	6572                	flw	fa0,28(sp)
 460:	6461                	lui	s0,0x18
 462:	695f 696e 0074      	0x74696e695f
 468:	6874                	flw	fa3,84(s0)
 46a:	6572                	flw	fa0,28(sp)
 46c:	6461                	lui	s0,0x18
 46e:	775f 6b61 7565      	0x75656b61775f
 474:	0070                	addi	a2,sp,12
 476:	646e6573          	csrrsi	a0,0x646,28
 47a:	7265                	lui	tp,0xffff9
 47c:	6600                	flw	fs0,8(a2)
 47e:	6e75                	lui	t3,0x1d
 480:	75700063          	beq	zero,s7,bc0 <REGBYTES+0xbbc>
 484:	6374                	flw	fa3,68(a4)
 486:	7275                	lui	tp,0xffffd
 488:	6572                	flw	fa0,28(sp)
 48a:	746e                	flw	fs0,248(sp)
 48c:	7300                	flw	fs0,32(a4)
 48e:	7674666f          	jal	a2,473f4 <REGBYTES+0x473f0>
 492:	6365                	lui	t1,0x19
 494:	745f 7079 5f65      	0x5f657079745f
 49a:	0074                	addi	a3,sp,12
 49c:	6874                	flw	fa3,84(s0)
 49e:	6572                	flw	fa0,28(sp)
 4a0:	6461                	lui	s0,0x18
 4a2:	675f 7465 6469      	0x64697465675f
 4a8:	5f00                	lw	s0,56(a4)
 4aa:	635f7a6b          	0x635f7a6b
 4ae:	65746e6f          	jal	t3,47304 <REGBYTES+0x47300>
 4b2:	7478                	flw	fa4,108(s0)
 4b4:	4b00                	lw	s0,16(a4)
 4b6:	5f5a                	lw	t5,180(sp)
 4b8:	43535953          	0x43535953
 4bc:	4c41                	li	s8,16
 4be:	5f4c                	lw	a1,60(a4)
 4c0:	5954                	lw	a3,52(a0)
 4c2:	4550                	lw	a2,12(a0)
 4c4:	575f 4941 0054      	0x544941575f
 4ca:	7564                	flw	fs1,108(a0)
 4cc:	6d6d                	lui	s10,0x1b
 4ce:	0079                	c.nop	30
 4d0:	6874                	flw	fa3,84(s0)
 4d2:	6572                	flw	fa0,28(sp)
 4d4:	6461                	lui	s0,0x18
 4d6:	635f 7068 6972      	0x69727068635f
 4dc:	6b00                	flw	fs0,16(a4)
 4de:	5f7a                	lw	t5,188(sp)
 4e0:	6874                	flw	fa3,84(s0)
 4e2:	6572                	flw	fa0,28(sp)
 4e4:	6461                	lui	s0,0x18
 4e6:	695f 5f64 0074      	0x745f64695f
 4ec:	616e                	flw	ft2,216(sp)
 4ee:	656d                	lui	a0,0x1b
 4f0:	7400                	flw	fs0,40(s0)
 4f2:	6961                	lui	s2,0x18
 4f4:	006c                	addi	a1,sp,12
 4f6:	6874                	flw	fa3,84(s0)
 4f8:	6572                	flw	fa0,28(sp)
 4fa:	6461                	lui	s0,0x18
 4fc:	725f 6e75 7500      	0x75006e75725f
 502:	73726573          	csrrsi	a0,0x737,4
 506:	6174                	flw	fa3,68(a0)
 508:	74006b63          	bltu	zero,zero,c5e <REGBYTES+0xc5a>
 50c:	7268                	flw	fa0,100(a2)
 50e:	6165                	addi	sp,sp,112
 510:	5f64                	lw	s1,124(a4)
 512:	74696177          	0x74696177
 516:	6d00                	flw	fs0,24(a0)
 518:	73756163          	bltu	a0,s7,c3a <REGBYTES+0xc36>
 51c:	0065                	c.nop	25
 51e:	6b5f 5f7a 6874      	0x68745f7a6b5f
 524:	6572                	flw	fa0,28(sp)
 526:	6461                	lui	s0,0x18
 528:	6d00                	flw	fs0,24(a0)
 52a:	7065                	c.lui	zero,0xffff9
 52c:	6c660063          	beq	a2,t1,bec <REGBYTES+0xbe8>
 530:	6761                	lui	a4,0x18
 532:	68740073          	0x68740073
 536:	6572                	flw	fa0,28(sp)
 538:	6461                	lui	s0,0x18
 53a:	6b5f 616d 6c6c      	0x6c6c616d6b5f
 540:	6800636f          	jal	t1,6bc0 <REGBYTES+0x6bbc>
 544:	6e61                	lui	t3,0x18
 546:	6c64                	flw	fs1,92(s0)
 548:	7265                	lui	tp,0xffff9
 54a:	7a6b0073          	0x7a6b0073
 54e:	685f 6e61 6c64      	0x6c646e61685f
 554:	7265                	lui	tp,0xffff9
 556:	745f 7400 7268      	0x72687400745f
 55c:	6165                	addi	sp,sp,112
 55e:	5f64                	lw	s1,124(a4)
 560:	646e6573          	csrrsi	a0,0x646,28
 564:	7000                	flw	fs0,32(s0)
 566:	7261                	lui	tp,0xffff8
 568:	6d61                	lui	s10,0x18
 56a:	7300                	flw	fs0,32(a4)
 56c:	7379                	lui	t1,0xffffe
 56e:	6c6c6163          	bltu	s8,t1,c30 <REGBYTES+0xc2c>
 572:	705f 6f72 0063      	0x636f72705f
 578:	74666f73          	csrrsi	t5,0x746,12
 57c:	7265                	lui	tp,0xffff9
 57e:	5f72                	lw	t5,60(sp)
 580:	6e69                	lui	t3,0x1a
 582:	7274                	flw	fa3,100(a2)
 584:	4b00                	lw	s0,16(a4)
 586:	5f5a                	lw	t5,180(sp)
 588:	43535953          	0x43535953
 58c:	4c41                	li	s8,16
 58e:	5f4c                	lw	a1,60(a4)
 590:	5954                	lw	a3,52(a0)
 592:	4550                	lw	a2,12(a0)
 594:	4b5f 464d 4552      	0x4552464d4b5f
 59a:	0045                	c.nop	17
 59c:	63746567          	0x63746567
 5a0:	7275                	lui	tp,0xffffd
 5a2:	6572                	flw	fa0,28(sp)
 5a4:	746e                	flw	fs0,248(sp)
 5a6:	7400                	flw	fs0,40(s0)
 5a8:	7268                	flw	fa0,100(a2)
 5aa:	6165                	addi	sp,sp,112
 5ac:	5f64                	lw	s1,124(a4)
 5ae:	7865                	lui	a6,0xffff9
 5b0:	7469                	lui	s0,0xffffa
 5b2:	7400                	flw	fs0,40(s0)
 5b4:	7268                	flw	fa0,100(a2)
 5b6:	6165                	addi	sp,sp,112
 5b8:	5f64                	lw	s1,124(a4)
 5ba:	6572                	flw	fa0,28(sp)
 5bc:	73007663          	bgeu	zero,a6,ce8 <REGBYTES+0xce4>
 5c0:	7379                	lui	t1,0xffffe
 5c2:	6c6c6163          	bltu	s8,t1,c84 <REGBYTES+0xc80>
 5c6:	695f 746e 0072      	0x72746e695f
 5cc:	6874                	flw	fa3,84(s0)
 5ce:	6572                	flw	fa0,28(sp)
 5d0:	6461                	lui	s0,0x18
 5d2:	6b5f 666d 6572      	0x6572666d6b5f
 5d8:	0065                	c.nop	25
 5da:	6168                	flw	fa0,68(a0)
 5dc:	646e                	flw	fs0,216(sp)
 5de:	656c                	flw	fa1,76(a0)
 5e0:	735f 6e79 5f63      	0x5f636e79735f
 5e6:	7274                	flw	fa3,100(a2)
 5e8:	7061                	c.lui	zero,0xffff8
 5ea:	4b00                	lw	s0,16(a4)
 5ec:	5f5a                	lw	t5,180(sp)
 5ee:	43535953          	0x43535953
 5f2:	4c41                	li	s8,16
 5f4:	5f4c                	lw	a1,60(a4)
 5f6:	5954                	lw	a3,52(a0)
 5f8:	4550                	lw	a2,12(a0)
 5fa:	4b5f 414d 4c4c      	0x4c4c414d4b5f
 600:	6b00434f          	fnmadd.d	ft6,ft0,fa6,fa3,rmm
 604:	736f7a6f          	jal	s4,f7d3a <REGBYTES+0xf7d36>
 608:	632e                	flw	ft6,200(sp)
 60a:	4b00                	lw	s0,16(a4)
 60c:	5f5a                	lw	t5,180(sp)
 60e:	43535953          	0x43535953
 612:	4c41                	li	s8,16
 614:	5f4c                	lw	a1,60(a4)
 616:	5954                	lw	a3,52(a0)
 618:	4550                	lw	a2,12(a0)
 61a:	525f 4345 0056      	0x564345525f
 620:	735f7a6b          	0x735f7a6b
 624:	7379                	lui	t1,0xffffe
 626:	6c6c6163          	bltu	s8,t1,ce8 <REGBYTES+0xce4>
 62a:	745f 7079 5f65      	0x5f657079745f
 630:	0074                	addi	a3,sp,12
 632:	534d                	li	t1,-13
 634:	584f4247          	fmsub.s	ft4,ft10,ft4,fa1,rmm
 638:	495f 5f44 554e      	0x554e5f44495f
 63e:	004d                	c.nop	19
 640:	6c70                	flw	fa2,92(s0)
 642:	6369                	lui	t1,0x1a
 644:	695f 746e 5f72      	0x5f72746e695f
 64a:	756e                	flw	fa0,248(sp)
 64c:	006d                	c.nop	27
 64e:	535f5a4b          	fnmsub.d	fs4,ft10,fs5,fa0,unknown
 652:	5359                	li	t1,-10
 654:	4c4c4143          	0x4c4c4143
 658:	545f 5059 5f45      	0x5f455059545f
 65e:	49544547          	fmsub.s	fa0,fs0,fs5,fs1,rmm
 662:	0044                	addi	s1,sp,4
 664:	6874                	flw	fa3,84(s0)
 666:	6572                	flw	fa0,28(sp)
 668:	6461                	lui	s0,0x18
 66a:	735f 656c 7065      	0x7065656c735f
 670:	5f00                	lw	s0,56(a4)
 672:	6d5f7a6b          	0x6d5f7a6b
 676:	75626773          	csrrsi	a4,0x756,4
 67a:	0066                	c.slli	zero,0x19
 67c:	6c6c6163          	bltu	s8,t1,d3e <REGBYTES+0xd3a>
 680:	665f 6e75 7463      	0x74636e75665f
 686:	6f69                	lui	t5,0x1a
 688:	736e                	flw	ft6,248(sp)
 68a:	7400                	flw	fs0,40(s0)
 68c:	7268                	flw	fa0,100(a2)
 68e:	6165                	addi	sp,sp,112
 690:	5f64                	lw	s1,124(a4)
 692:	6e65                	lui	t3,0x19
 694:	0064                	addi	s1,sp,12
 696:	534d                	li	t1,-13
 698:	584f4247          	fmsub.s	ft4,ft10,ft4,fa1,rmm
 69c:	495f 5f44 4f43      	0x4f435f44495f
 6a2:	534e                	lw	t1,240(sp)
 6a4:	5054554f          	fnmadd.s	fa0,fs0,ft5,fa0,unknown
 6a8:	5455                	li	s0,-11
 6aa:	7200                	flw	fs0,32(a2)
 6ac:	6365                	lui	t1,0x19
 6ae:	6965                	lui	s2,0x19
 6b0:	6576                	flw	fa0,92(sp)
 6b2:	0072                	c.slli	zero,0x1c
 6b4:	7270                	flw	fa2,100(a2)
 6b6:	6f69                	lui	t5,0x1a
 6b8:	6972                	flw	fs2,28(sp)
 6ba:	7974                	flw	fa3,116(a0)
 6bc:	4d00                	lw	s0,24(a0)
 6be:	4f424753          	0x4f424753
 6c2:	5f58                	lw	a4,60(a4)
 6c4:	4449                	li	s0,18
 6c6:	435f 4e4f 4953      	0x49534e4f435f
 6cc:	504e                	0x504e
 6ce:	5455                	li	s0,-11
 6d0:	7300                	flw	fs0,32(a4)
 6d2:	7672                	flw	fa2,60(sp)
 6d4:	6c6c6163          	bltu	s8,t1,d96 <REGBYTES+0xd92>
 6d8:	705f 6f72 0063      	0x636f72705f
 6de:	735f7a6b          	0x735f7a6b
 6e2:	7672                	flw	fa2,60(sp)
 6e4:	6c6c6163          	bltu	s8,t1,da6 <REGBYTES+0xda2>
 6e8:	7200                	flw	fs0,32(a2)
 6ea:	6165                	addi	sp,sp,112
 6ec:	7964                	flw	fs1,116(a0)
 6ee:	7571                	lui	a0,0xffffc
 6f0:	0065                	c.nop	25
 6f2:	6168                	flw	fa0,68(a0)
 6f4:	646e                	flw	fs0,216(sp)
 6f6:	656c                	flw	fa1,76(a0)
 6f8:	6d5f 655f 7478      	0x7478655f6d5f
 6fe:	7265                	lui	tp,0xffff9
 700:	616e                	flw	ft2,216(sp)
 702:	5f6c                	lw	a1,124(a4)
 704:	6e69                	lui	t3,0x1a
 706:	6574                	flw	fa3,76(a0)
 708:	7272                	flw	ft4,60(sp)
 70a:	7075                	c.lui	zero,0xffffd
 70c:	0074                	addi	a3,sp,12
 70e:	6572                	flw	fa0,28(sp)
 710:	736d7663          	bgeu	s10,s6,e3c <REGBYTES+0xe38>
 714:	5a4b0067          	jr	1444(s6) # 1a5a4 <REGBYTES+0x1a5a0>
 718:	535f 5359 4143      	0x41435359535f
 71e:	4c4c                	lw	a1,28(s0)
 720:	545f 5059 5f45      	0x5f455059545f
 726:	454b4157          	0x454b4157
 72a:	5055                	c.li	zero,-11
 72c:	6e00                	flw	fs0,24(a2)
 72e:	7865                	lui	a6,0xffff9
 730:	0074                	addi	a3,sp,12
 732:	535f5a4b          	fnmsub.d	fs4,ft10,fs5,fa0,unknown
 736:	5359                	li	t1,-10
 738:	4c4c4143          	0x4c4c4143
 73c:	545f 5059 5f45      	0x5f455059545f
 742:	5552                	lw	a0,52(sp)
 744:	004e                	c.slli	zero,0x13
 746:	736d                	lui	t1,0xffffb
 748:	786f6267          	0x786f6267
 74c:	7365                	lui	t1,0xffff9
 74e:	6b00                	flw	fs0,16(a4)
 750:	5f7a                	lw	t5,188(sp)
 752:	69746573          	csrrsi	a0,0x697,8
 756:	746e                	flw	fs0,248(sp)
 758:	0072                	c.slli	zero,0x1c
 75a:	725f7a6b          	0x725f7a6b
 75e:	6365                	lui	t1,0x19
 760:	0076                	c.slli	zero,0x1d
 762:	775f7a6b          	0x775f7a6b
 766:	6961                	lui	s2,0x18
 768:	0074                	addi	a3,sp,12
 76a:	775f786b          	0x775f786b
 76e:	6b61                	lui	s6,0x18
 770:	7565                	lui	a0,0xffff9
 772:	0070                	addi	a2,sp,12
 774:	775f7a6b          	0x775f7a6b
 778:	6b61                	lui	s6,0x18
 77a:	7565                	lui	a0,0xffff9
 77c:	0070                	addi	a2,sp,12
 77e:	735f786b          	0x735f786b
 782:	6e65                	lui	t3,0x19
 784:	0064                	addi	s1,sp,12
 786:	725f7a6b          	0x725f7a6b
 78a:	6e75                	lui	t3,0x1d
 78c:	6b00                	flw	fs0,16(a4)
 78e:	5f78                	lw	a4,124(a4)
 790:	6c616d6b          	0x6c616d6b
 794:	6f6c                	flw	fa1,92(a4)
 796:	7a6b0063          	beq	s6,t1,f36 <REGBYTES+0xf32>
 79a:	735f 656c 7065      	0x7065656c735f
 7a0:	6b00                	flw	fs0,16(a4)
 7a2:	5f7a                	lw	t5,188(sp)
 7a4:	6c616d6b          	0x6c616d6b
 7a8:	6f6c                	flw	fa1,92(a4)
 7aa:	7a6b0063          	beq	s6,t1,f4a <REGBYTES+0xf46>
 7ae:	6b5f 666d 6572      	0x6572666d6b5f
 7b4:	0065                	c.nop	25
 7b6:	63737973          	csrrci	s2,0x637,6
 7ba:	6c61                	lui	s8,0x18
 7bc:	2e6c                	fld	fa1,216(a2)
 7be:	7a6b0063          	beq	s6,t1,f5e <REGBYTES+0xf5a>
 7c2:	635f 7068 6972      	0x69727068635f
 7c8:	6b00                	flw	fs0,16(a4)
 7ca:	5f7a                	lw	t5,188(sp)
 7cc:	7865                	lui	a6,0xffff9
 7ce:	7469                	lui	s0,0xffffa
 7d0:	6b00                	flw	fs0,16(a4)
 7d2:	5f7a                	lw	t5,188(sp)
 7d4:	69746567          	0x69746567
 7d8:	0064                	addi	s1,sp,12
 7da:	6b5f786b          	0x6b5f786b
 7de:	666d                	lui	a2,0x1b
 7e0:	6572                	flw	fa0,28(sp)
 7e2:	0065                	c.nop	25
 7e4:	735f7a6b          	0x735f7a6b
 7e8:	6e65                	lui	t3,0x19
 7ea:	0064                	addi	s1,sp,12
 7ec:	656d7a6b          	0x656d7a6b
 7f0:	5f6d                	li	t5,-5
 7f2:	7266                	flw	ft4,120(sp)
 7f4:	6565                	lui	a0,0x19
 7f6:	6600                	flw	fs0,8(a2)
 7f8:	6572                	flw	fa0,28(sp)
 7fa:	6165                	addi	sp,sp,112
 7fc:	6572                	flw	fa0,28(sp)
 7fe:	0061                	c.nop	24
 800:	656d                	lui	a0,0x1b
 802:	6f6d                	lui	t5,0x1b
 804:	7972                	flw	fs2,60(sp)
 806:	632e                	flw	ft6,200(sp)
 808:	6b00                	flw	fs0,16(a4)
 80a:	6d7a                	flw	fs10,156(sp)
 80c:	6d65                	lui	s10,0x19
 80e:	695f 696e 0074      	0x74696e695f
 814:	656d7a6b          	0x656d7a6b
 818:	5f6d                	li	t5,-5
 81a:	6c61                	lui	s8,0x18
 81c:	6f6c                	flw	fa1,92(a4)
 81e:	6b5f0063          	beq	t5,s5,ebe <REGBYTES+0xeba>
 822:	6d7a                	flw	fs10,156(sp)
 824:	6d65                	lui	s10,0x19
 826:	625f 6f6c 6b63      	0x6b636f6c625f
 82c:	6b00                	flw	fs0,16(a4)
 82e:	6d7a                	flw	fs10,156(sp)
 830:	6d65                	lui	s10,0x19
 832:	695f 696e 5f74      	0x5f74696e695f
 838:	6f70                	flw	fa2,92(a4)
 83a:	5f006c6f          	jal	s8,6e2a <REGBYTES+0x6e26>
 83e:	656d7a6b          	0x656d7a6b
 842:	5f6d                	li	t5,-5
 844:	6f70                	flw	fa2,92(a4)
 846:	63006c6f          	jal	s8,6e76 <REGBYTES+0x6e72>
 84a:	72736e6f          	jal	t3,37770 <REGBYTES+0x3776c>
 84e:	6765                	lui	a4,0x19
 850:	6300                	flw	fs0,0(a4)
 852:	64736e6f          	jal	t3,37698 <REGBYTES+0x37694>
 856:	7672                	flw	fa2,60(sp)
 858:	635f 6d6f 616d      	0x616d6d6f635f
 85e:	646e                	flw	fs0,216(sp)
 860:	7300                	flw	fs0,32(a4)
 862:	6e65                	lui	t3,0x19
 864:	5f64                	lw	s1,124(a4)
 866:	69727473          	csrrci	s0,0x697,4
 86a:	676e                	flw	fa4,216(sp)
 86c:	7300                	flw	fs0,32(a4)
 86e:	6e65                	lui	t3,0x19
 870:	5f64                	lw	s1,124(a4)
 872:	7562                	flw	fa0,56(sp)
 874:	0066                	c.slli	zero,0x19
 876:	6572                	flw	fa0,28(sp)
 878:	625f7663          	bgeu	t5,t0,ea4 <REGBYTES+0xea0>
 87c:	6675                	lui	a2,0x1d
 87e:	6300                	flw	fs0,0(a4)
 880:	64736e6f          	jal	t3,376c6 <REGBYTES+0x376c2>
 884:	7672                	flw	fa2,60(sp)
 886:	632e                	flw	ft6,200(sp)
 888:	6300                	flw	fs0,0(a4)
 88a:	64736e6f          	jal	t3,376d0 <REGBYTES+0x376cc>
 88e:	7672                	flw	fa2,60(sp)
 890:	695f 746e 7072      	0x7072746e695f
 896:	6f72                	flw	ft10,28(sp)
 898:	6f630063          	beq	t1,s6,f78 <REGBYTES+0xf74>
 89c:	736e                	flw	ft6,248(sp)
 89e:	7264                	flw	fs1,100(a2)
 8a0:	5f76                	lw	t5,124(sp)
 8a2:	616d                	addi	sp,sp,240
 8a4:	6e69                	lui	t3,0x1a
 8a6:	6300                	flw	fs0,0(a4)
 8a8:	00736e6f          	jal	t3,370ae <REGBYTES+0x370aa>
 8ac:	646e6573          	csrrsi	a0,0x646,28
 8b0:	635f 6168 0072      	0x726168635f
 8b6:	646e6573          	csrrsi	a0,0x646,28
 8ba:	6c5f 6e65 7200      	0x72006e656c5f
 8c0:	6365                	lui	t1,0x19
 8c2:	5f76                	lw	t5,124(sp)
 8c4:	656c                	flw	fa1,76(a0)
 8c6:	006e                	c.slli	zero,0x1b
 8c8:	736e6f63          	bltu	t3,s6,1006 <REGBYTES+0x1002>
 8cc:	7264                	flw	fs1,100(a2)
 8ce:	5f76                	lw	t5,124(sp)
 8d0:	6e69                	lui	t3,0x1a
 8d2:	7274                	flw	fa3,100(a2)
 8d4:	6300                	flw	fs0,0(a4)
 8d6:	64736e6f          	jal	t3,3771c <REGBYTES+0x37718>
 8da:	7672                	flw	fa2,60(sp)
 8dc:	695f 696e 0074      	0x74696e695f
 8e2:	646e6573          	csrrsi	a0,0x646,28
 8e6:	755f 6573 7300      	0x73006573755f
 8ec:	6e65                	lui	t3,0x19
 8ee:	5f64                	lw	s1,124(a4)
 8f0:	74697277          	0x74697277
 8f4:	0065                	c.nop	25
 8f6:	6d6d6f63          	bltu	s10,s6,fd4 <REGBYTES+0xfd0>
 8fa:	6e61                	lui	t3,0x18
 8fc:	5f64                	lw	s1,124(a4)
 8fe:	616d                	addi	sp,sp,240
 900:	6e69                	lui	t3,0x1a
 902:	6300                	flw	fs0,0(a4)
 904:	616d6d6f          	jal	s10,d6f1a <REGBYTES+0xd6f16>
 908:	646e                	flw	fs0,216(sp)
 90a:	632e                	flw	ft6,200(sp)
	...

Disassembly of section .debug_frame:

00000000 <.debug_frame>:
   0:	000c                	0xc
   2:	0000                	unimp
   4:	ffff                	0xffff
   6:	ffff                	0xffff
   8:	0001                	nop
   a:	7c01                	lui	s8,0xfffe0
   c:	0d01                	addi	s10,s10,0
   e:	0002                	c.slli64	zero
  10:	0018                	0x18
  12:	0000                	unimp
  14:	0000                	unimp
  16:	0000                	unimp
  18:	009a                	slli	ra,ra,0x6
  1a:	8000                	0x8000
  1c:	0060                	addi	s0,sp,12
  1e:	0000                	unimp
  20:	0e42                	slli	t3,t3,0x10
  22:	4430                	lw	a2,72(s0)
  24:	0181                	addi	gp,gp,0
  26:	0288                	addi	a0,sp,320
  28:	0c42                	slli	s8,s8,0x10
  2a:	0008                	0x8
  2c:	0020                	addi	s0,sp,8
  2e:	0000                	unimp
  30:	0000                	unimp
  32:	0000                	unimp
  34:	00fa                	slli	ra,ra,0x1e
  36:	8000                	0x8000
  38:	005c                	addi	a5,sp,4
  3a:	0000                	unimp
  3c:	0e42                	slli	t3,t3,0x10
  3e:	4420                	lw	s0,72(s0)
  40:	0181                	addi	gp,gp,0
  42:	0288                	addi	a0,sp,320
  44:	0c42                	slli	s8,s8,0x10
  46:	0008                	0x8
  48:	4e02                	lw	t3,0(sp)
  4a:	42c1                	li	t0,16
  4c:	42c8                	lw	a0,4(a3)
  4e:	020d                	addi	tp,tp,3
  50:	000c                	0xc
  52:	0000                	unimp
  54:	ffff                	0xffff
  56:	ffff                	0xffff
  58:	0001                	nop
  5a:	7c01                	lui	s8,0xfffe0
  5c:	0d01                	addi	s10,s10,0
  5e:	0002                	c.slli64	zero
  60:	001c                	0x1c
  62:	0000                	unimp
  64:	0050                	addi	a2,sp,4
  66:	0000                	unimp
  68:	0156                	slli	sp,sp,0x15
  6a:	8000                	0x8000
  6c:	0020                	addi	s0,sp,8
  6e:	0000                	unimp
  70:	0e42                	slli	t3,t3,0x10
  72:	4210                	lw	a2,0(a2)
  74:	0188                	addi	a0,sp,192
  76:	0c42                	slli	s8,s8,0x10
  78:	0008                	0x8
  7a:	c856                	sw	s5,16(sp)
  7c:	0d42                	slli	s10,s10,0x10
  7e:	0002                	c.slli64	zero
  80:	000c                	0xc
  82:	0000                	unimp
  84:	ffff                	0xffff
  86:	ffff                	0xffff
  88:	0001                	nop
  8a:	7c01                	lui	s8,0xfffe0
  8c:	0d01                	addi	s10,s10,0
  8e:	0002                	c.slli64	zero
  90:	001c                	0x1c
  92:	0000                	unimp
  94:	0080                	addi	s0,sp,64
  96:	0000                	unimp
  98:	0176                	slli	sp,sp,0x1d
  9a:	8000                	0x8000
  9c:	00c0                	addi	s0,sp,68
  9e:	0000                	unimp
  a0:	0e42                	slli	t3,t3,0x10
  a2:	4230                	lw	a2,64(a2)
  a4:	0188                	addi	a0,sp,192
  a6:	0c42                	slli	s8,s8,0x10
  a8:	0008                	0x8
  aa:	b602                	fsd	ft0,296(sp)
  ac:	42c8                	lw	a0,4(a3)
  ae:	020d                	addi	tp,tp,3
  b0:	001c                	0x1c
  b2:	0000                	unimp
  b4:	0080                	addi	s0,sp,64
  b6:	0000                	unimp
  b8:	0236                	slli	tp,tp,0xd
  ba:	8000                	0x8000
  bc:	0038                	addi	a4,sp,8
  be:	0000                	unimp
  c0:	0e42                	slli	t3,t3,0x10
  c2:	4230                	lw	a2,64(a2)
  c4:	0188                	addi	a0,sp,192
  c6:	0c42                	slli	s8,s8,0x10
  c8:	0008                	0x8
  ca:	c86e                	sw	s11,16(sp)
  cc:	0d42                	slli	s10,s10,0x10
  ce:	0002                	c.slli64	zero
  d0:	0020                	addi	s0,sp,8
  d2:	0000                	unimp
  d4:	0080                	addi	s0,sp,64
  d6:	0000                	unimp
  d8:	026e                	slli	tp,tp,0x1b
  da:	8000                	0x8000
  dc:	004a                	c.slli	zero,0x12
  de:	0000                	unimp
  e0:	0e42                	slli	t3,t3,0x10
  e2:	4430                	lw	a2,72(s0)
  e4:	0181                	addi	gp,gp,0
  e6:	0288                	addi	a0,sp,320
  e8:	0c42                	slli	s8,s8,0x10
  ea:	0008                	0x8
  ec:	3c02                	fld	fs8,32(sp)
  ee:	42c1                	li	t0,16
  f0:	42c8                	lw	a0,4(a3)
  f2:	020d                	addi	tp,tp,3
  f4:	001c                	0x1c
  f6:	0000                	unimp
  f8:	0080                	addi	s0,sp,64
  fa:	0000                	unimp
  fc:	02b8                	addi	a4,sp,328
  fe:	8000                	0x8000
 100:	0060                	addi	s0,sp,12
 102:	0000                	unimp
 104:	0e42                	slli	t3,t3,0x10
 106:	4230                	lw	a2,64(a2)
 108:	0188                	addi	a0,sp,192
 10a:	0c42                	slli	s8,s8,0x10
 10c:	0008                	0x8
 10e:	5602                	lw	a2,32(sp)
 110:	42c8                	lw	a0,4(a3)
 112:	020d                	addi	tp,tp,3
 114:	0020                	addi	s0,sp,8
 116:	0000                	unimp
 118:	0080                	addi	s0,sp,64
 11a:	0000                	unimp
 11c:	0318                	addi	a4,sp,384
 11e:	8000                	0x8000
 120:	0040                	addi	s0,sp,4
 122:	0000                	unimp
 124:	0e42                	slli	t3,t3,0x10
 126:	4430                	lw	a2,72(s0)
 128:	0181                	addi	gp,gp,0
 12a:	0288                	addi	a0,sp,320
 12c:	0c42                	slli	s8,s8,0x10
 12e:	0008                	0x8
 130:	c172                	sw	t3,128(sp)
 132:	c842                	sw	a6,16(sp)
 134:	0d42                	slli	s10,s10,0x10
 136:	0002                	c.slli64	zero
 138:	001c                	0x1c
 13a:	0000                	unimp
 13c:	0080                	addi	s0,sp,64
 13e:	0000                	unimp
 140:	0358                	addi	a4,sp,388
 142:	8000                	0x8000
 144:	0038                	addi	a4,sp,8
 146:	0000                	unimp
 148:	0e42                	slli	t3,t3,0x10
 14a:	4230                	lw	a2,64(a2)
 14c:	0188                	addi	a0,sp,192
 14e:	0c42                	slli	s8,s8,0x10
 150:	0008                	0x8
 152:	c86e                	sw	s11,16(sp)
 154:	0d42                	slli	s10,s10,0x10
 156:	0002                	c.slli64	zero
 158:	001c                	0x1c
 15a:	0000                	unimp
 15c:	0080                	addi	s0,sp,64
 15e:	0000                	unimp
 160:	0390                	addi	a2,sp,448
 162:	8000                	0x8000
 164:	0038                	addi	a4,sp,8
 166:	0000                	unimp
 168:	0e42                	slli	t3,t3,0x10
 16a:	4230                	lw	a2,64(a2)
 16c:	0188                	addi	a0,sp,192
 16e:	0c42                	slli	s8,s8,0x10
 170:	0008                	0x8
 172:	c86e                	sw	s11,16(sp)
 174:	0d42                	slli	s10,s10,0x10
 176:	0002                	c.slli64	zero
 178:	001c                	0x1c
 17a:	0000                	unimp
 17c:	0080                	addi	s0,sp,64
 17e:	0000                	unimp
 180:	03c8                	addi	a0,sp,452
 182:	8000                	0x8000
 184:	0038                	addi	a4,sp,8
 186:	0000                	unimp
 188:	0e42                	slli	t3,t3,0x10
 18a:	4230                	lw	a2,64(a2)
 18c:	0188                	addi	a0,sp,192
 18e:	0c42                	slli	s8,s8,0x10
 190:	0008                	0x8
 192:	c86e                	sw	s11,16(sp)
 194:	0d42                	slli	s10,s10,0x10
 196:	0002                	c.slli64	zero
 198:	001c                	0x1c
 19a:	0000                	unimp
 19c:	0080                	addi	s0,sp,64
 19e:	0000                	unimp
 1a0:	0400                	addi	s0,sp,512
 1a2:	8000                	0x8000
 1a4:	0038                	addi	a4,sp,8
 1a6:	0000                	unimp
 1a8:	0e42                	slli	t3,t3,0x10
 1aa:	4230                	lw	a2,64(a2)
 1ac:	0188                	addi	a0,sp,192
 1ae:	0c42                	slli	s8,s8,0x10
 1b0:	0008                	0x8
 1b2:	c86e                	sw	s11,16(sp)
 1b4:	0d42                	slli	s10,s10,0x10
 1b6:	0002                	c.slli64	zero
 1b8:	001c                	0x1c
 1ba:	0000                	unimp
 1bc:	0080                	addi	s0,sp,64
 1be:	0000                	unimp
 1c0:	0438                	addi	a4,sp,520
 1c2:	8000                	0x8000
 1c4:	0038                	addi	a4,sp,8
 1c6:	0000                	unimp
 1c8:	0e42                	slli	t3,t3,0x10
 1ca:	4230                	lw	a2,64(a2)
 1cc:	0188                	addi	a0,sp,192
 1ce:	0c42                	slli	s8,s8,0x10
 1d0:	0008                	0x8
 1d2:	c86e                	sw	s11,16(sp)
 1d4:	0d42                	slli	s10,s10,0x10
 1d6:	0002                	c.slli64	zero
 1d8:	001c                	0x1c
 1da:	0000                	unimp
 1dc:	0080                	addi	s0,sp,64
 1de:	0000                	unimp
 1e0:	0470                	addi	a2,sp,524
 1e2:	8000                	0x8000
 1e4:	0038                	addi	a4,sp,8
 1e6:	0000                	unimp
 1e8:	0e42                	slli	t3,t3,0x10
 1ea:	4230                	lw	a2,64(a2)
 1ec:	0188                	addi	a0,sp,192
 1ee:	0c42                	slli	s8,s8,0x10
 1f0:	0008                	0x8
 1f2:	c86e                	sw	s11,16(sp)
 1f4:	0d42                	slli	s10,s10,0x10
 1f6:	0002                	c.slli64	zero
 1f8:	000c                	0xc
 1fa:	0000                	unimp
 1fc:	ffff                	0xffff
 1fe:	ffff                	0xffff
 200:	0001                	nop
 202:	7c01                	lui	s8,0xfffe0
 204:	0d01                	addi	s10,s10,0
 206:	0002                	c.slli64	zero
 208:	001c                	0x1c
 20a:	0000                	unimp
 20c:	01f8                	addi	a4,sp,204
 20e:	0000                	unimp
 210:	04a8                	addi	a0,sp,584
 212:	8000                	0x8000
 214:	0052                	c.slli	zero,0x14
 216:	0000                	unimp
 218:	0e42                	slli	t3,t3,0x10
 21a:	4230                	lw	a2,64(a2)
 21c:	0188                	addi	a0,sp,192
 21e:	0c42                	slli	s8,s8,0x10
 220:	0008                	0x8
 222:	4802                	lw	a6,0(sp)
 224:	42c8                	lw	a0,4(a3)
 226:	020d                	addi	tp,tp,3
 228:	001c                	0x1c
 22a:	0000                	unimp
 22c:	01f8                	addi	a4,sp,204
 22e:	0000                	unimp
 230:	04fa                	slli	s1,s1,0x1e
 232:	8000                	0x8000
 234:	0062                	c.slli	zero,0x18
 236:	0000                	unimp
 238:	0e42                	slli	t3,t3,0x10
 23a:	4230                	lw	a2,64(a2)
 23c:	0188                	addi	a0,sp,192
 23e:	0c42                	slli	s8,s8,0x10
 240:	0008                	0x8
 242:	5802                	lw	a6,32(sp)
 244:	42c8                	lw	a0,4(a3)
 246:	020d                	addi	tp,tp,3
 248:	001c                	0x1c
 24a:	0000                	unimp
 24c:	01f8                	addi	a4,sp,204
 24e:	0000                	unimp
 250:	055c                	addi	a5,sp,644
 252:	8000                	0x8000
 254:	0084                	addi	s1,sp,64
 256:	0000                	unimp
 258:	0e42                	slli	t3,t3,0x10
 25a:	4230                	lw	a2,64(a2)
 25c:	0188                	addi	a0,sp,192
 25e:	0c42                	slli	s8,s8,0x10
 260:	0008                	0x8
 262:	7a02                	flw	fs4,32(sp)
 264:	42c8                	lw	a0,4(a3)
 266:	020d                	addi	tp,tp,3
 268:	001c                	0x1c
 26a:	0000                	unimp
 26c:	01f8                	addi	a4,sp,204
 26e:	0000                	unimp
 270:	05e0                	addi	s0,sp,716
 272:	8000                	0x8000
 274:	003a                	c.slli	zero,0xe
 276:	0000                	unimp
 278:	0e42                	slli	t3,t3,0x10
 27a:	4230                	lw	a2,64(a2)
 27c:	0188                	addi	a0,sp,192
 27e:	0c42                	slli	s8,s8,0x10
 280:	0008                	0x8
 282:	c870                	sw	a2,84(s0)
 284:	0d42                	slli	s10,s10,0x10
 286:	0002                	c.slli64	zero
 288:	001c                	0x1c
 28a:	0000                	unimp
 28c:	01f8                	addi	a4,sp,204
 28e:	0000                	unimp
 290:	061a                	slli	a2,a2,0x6
 292:	8000                	0x8000
 294:	0054                	addi	a3,sp,4
 296:	0000                	unimp
 298:	0e42                	slli	t3,t3,0x10
 29a:	4230                	lw	a2,64(a2)
 29c:	0188                	addi	a0,sp,192
 29e:	0c42                	slli	s8,s8,0x10
 2a0:	0008                	0x8
 2a2:	4a02                	lw	s4,0(sp)
 2a4:	42c8                	lw	a0,4(a3)
 2a6:	020d                	addi	tp,tp,3
 2a8:	001c                	0x1c
 2aa:	0000                	unimp
 2ac:	01f8                	addi	a4,sp,204
 2ae:	0000                	unimp
 2b0:	066e                	slli	a2,a2,0x1b
 2b2:	8000                	0x8000
 2b4:	0072                	c.slli	zero,0x1c
 2b6:	0000                	unimp
 2b8:	0e42                	slli	t3,t3,0x10
 2ba:	4220                	lw	s0,64(a2)
 2bc:	0188                	addi	a0,sp,192
 2be:	0c42                	slli	s8,s8,0x10
 2c0:	0008                	0x8
 2c2:	6802                	flw	fa6,0(sp)
 2c4:	42c8                	lw	a0,4(a3)
 2c6:	020d                	addi	tp,tp,3
 2c8:	001c                	0x1c
 2ca:	0000                	unimp
 2cc:	01f8                	addi	a4,sp,204
 2ce:	0000                	unimp
 2d0:	06e0                	addi	s0,sp,844
 2d2:	8000                	0x8000
 2d4:	0088                	addi	a0,sp,64
 2d6:	0000                	unimp
 2d8:	0e42                	slli	t3,t3,0x10
 2da:	4220                	lw	s0,64(a2)
 2dc:	0188                	addi	a0,sp,192
 2de:	0c42                	slli	s8,s8,0x10
 2e0:	0008                	0x8
 2e2:	7e02                	flw	ft8,32(sp)
 2e4:	42c8                	lw	a0,4(a3)
 2e6:	020d                	addi	tp,tp,3
 2e8:	001c                	0x1c
 2ea:	0000                	unimp
 2ec:	01f8                	addi	a4,sp,204
 2ee:	0000                	unimp
 2f0:	0768                	addi	a0,sp,908
 2f2:	8000                	0x8000
 2f4:	0036                	c.slli	zero,0xd
 2f6:	0000                	unimp
 2f8:	0e42                	slli	t3,t3,0x10
 2fa:	4230                	lw	a2,64(a2)
 2fc:	0188                	addi	a0,sp,192
 2fe:	0c42                	slli	s8,s8,0x10
 300:	0008                	0x8
 302:	c86c                	sw	a1,84(s0)
 304:	0d42                	slli	s10,s10,0x10
 306:	0002                	c.slli64	zero
 308:	0028                	addi	a0,sp,8
 30a:	0000                	unimp
 30c:	01f8                	addi	a4,sp,204
 30e:	0000                	unimp
 310:	079e                	slli	a5,a5,0x7
 312:	8000                	0x8000
 314:	009c                	addi	a5,sp,64
 316:	0000                	unimp
 318:	0e42                	slli	t3,t3,0x10
 31a:	01a0                	addi	s0,sp,200
 31c:	8146                	mv	sp,a7
 31e:	8801                	andi	s0,s0,0
 320:	8902                	jr	s2
 322:	080c4203          	lbu	tp,128(s8) # fffe0080 <bootstack+0x7f6e0080>
 326:	0200                	addi	s0,sp,256
 328:	c18a                	sw	sp,192(sp)
 32a:	c842                	sw	a6,16(sp)
 32c:	c942                	sw	a6,144(sp)
 32e:	0d42                	slli	s10,s10,0x10
 330:	0002                	c.slli64	zero
 332:	0000                	unimp
 334:	0020                	addi	s0,sp,8
 336:	0000                	unimp
 338:	01f8                	addi	a4,sp,204
 33a:	0000                	unimp
 33c:	083a                	slli	a6,a6,0xe
 33e:	8000                	0x8000
 340:	0034                	addi	a3,sp,8
 342:	0000                	unimp
 344:	0e42                	slli	t3,t3,0x10
 346:	4420                	lw	s0,72(s0)
 348:	0181                	addi	gp,gp,0
 34a:	0288                	addi	a0,sp,320
 34c:	0c42                	slli	s8,s8,0x10
 34e:	0008                	0x8
 350:	c166                	sw	s9,128(sp)
 352:	c842                	sw	a6,16(sp)
 354:	0d42                	slli	s10,s10,0x10
 356:	0002                	c.slli64	zero
 358:	0020                	addi	s0,sp,8
 35a:	0000                	unimp
 35c:	01f8                	addi	a4,sp,204
 35e:	0000                	unimp
 360:	086e                	slli	a6,a6,0x1b
 362:	8000                	0x8000
 364:	003e                	c.slli	zero,0xf
 366:	0000                	unimp
 368:	0e42                	slli	t3,t3,0x10
 36a:	4420                	lw	s0,72(s0)
 36c:	0181                	addi	gp,gp,0
 36e:	0288                	addi	a0,sp,320
 370:	0c42                	slli	s8,s8,0x10
 372:	0008                	0x8
 374:	c170                	sw	a2,68(a0)
 376:	c842                	sw	a6,16(sp)
 378:	0d42                	slli	s10,s10,0x10
 37a:	0002                	c.slli64	zero
 37c:	0020                	addi	s0,sp,8
 37e:	0000                	unimp
 380:	01f8                	addi	a4,sp,204
 382:	0000                	unimp
 384:	08ac                	addi	a1,sp,88
 386:	8000                	0x8000
 388:	0038                	addi	a4,sp,8
 38a:	0000                	unimp
 38c:	0e42                	slli	t3,t3,0x10
 38e:	4420                	lw	s0,72(s0)
 390:	0181                	addi	gp,gp,0
 392:	0288                	addi	a0,sp,320
 394:	0c42                	slli	s8,s8,0x10
 396:	0008                	0x8
 398:	c16a                	sw	s10,128(sp)
 39a:	c842                	sw	a6,16(sp)
 39c:	0d42                	slli	s10,s10,0x10
 39e:	0002                	c.slli64	zero
 3a0:	0024                	addi	s1,sp,8
 3a2:	0000                	unimp
 3a4:	01f8                	addi	a4,sp,204
 3a6:	0000                	unimp
 3a8:	08e4                	addi	s1,sp,92
 3aa:	8000                	0x8000
 3ac:	00a4                	addi	s1,sp,72
 3ae:	0000                	unimp
 3b0:	0e42                	slli	t3,t3,0x10
 3b2:	4630                	lw	a2,72(a2)
 3b4:	0181                	addi	gp,gp,0
 3b6:	0288                	addi	a0,sp,320
 3b8:	0389                	addi	t2,t2,2
 3ba:	0c42                	slli	s8,s8,0x10
 3bc:	0008                	0x8
 3be:	9202                	jalr	tp
 3c0:	42c1                	li	t0,16
 3c2:	42c8                	lw	a0,4(a3)
 3c4:	42c9                	li	t0,18
 3c6:	020d                	addi	tp,tp,3
 3c8:	0020                	addi	s0,sp,8
 3ca:	0000                	unimp
 3cc:	01f8                	addi	a4,sp,204
 3ce:	0000                	unimp
 3d0:	0988                	addi	a0,sp,208
 3d2:	8000                	0x8000
 3d4:	0058                	addi	a4,sp,4
 3d6:	0000                	unimp
 3d8:	0e42                	slli	t3,t3,0x10
 3da:	4430                	lw	a2,72(s0)
 3dc:	0181                	addi	gp,gp,0
 3de:	0288                	addi	a0,sp,320
 3e0:	0c42                	slli	s8,s8,0x10
 3e2:	0008                	0x8
 3e4:	4a02                	lw	s4,0(sp)
 3e6:	42c1                	li	t0,16
 3e8:	42c8                	lw	a0,4(a3)
 3ea:	020d                	addi	tp,tp,3
 3ec:	0020                	addi	s0,sp,8
 3ee:	0000                	unimp
 3f0:	01f8                	addi	a4,sp,204
 3f2:	0000                	unimp
 3f4:	09e0                	addi	s0,sp,220
 3f6:	8000                	0x8000
 3f8:	00a4                	addi	s1,sp,72
 3fa:	0000                	unimp
 3fc:	0e42                	slli	t3,t3,0x10
 3fe:	4430                	lw	a2,72(s0)
 400:	0181                	addi	gp,gp,0
 402:	0288                	addi	a0,sp,320
 404:	0c42                	slli	s8,s8,0x10
 406:	0008                	0x8
 408:	9602                	jalr	a2
 40a:	42c1                	li	t0,16
 40c:	42c8                	lw	a0,4(a3)
 40e:	020d                	addi	tp,tp,3
 410:	000c                	0xc
 412:	0000                	unimp
 414:	ffff                	0xffff
 416:	ffff                	0xffff
 418:	0001                	nop
 41a:	7c01                	lui	s8,0xfffe0
 41c:	0d01                	addi	s10,s10,0
 41e:	0002                	c.slli64	zero
 420:	001c                	0x1c
 422:	0000                	unimp
 424:	0410                	addi	a2,sp,512
 426:	0000                	unimp
 428:	0a84                	addi	s1,sp,336
 42a:	8000                	0x8000
 42c:	00ba                	slli	ra,ra,0xe
 42e:	0000                	unimp
 430:	0e42                	slli	t3,t3,0x10
 432:	4210                	lw	a2,0(a2)
 434:	0188                	addi	a0,sp,192
 436:	0c42                	slli	s8,s8,0x10
 438:	0008                	0x8
 43a:	b002                	fsd	ft0,32(sp)
 43c:	42c8                	lw	a0,4(a3)
 43e:	020d                	addi	tp,tp,3
 440:	001c                	0x1c
 442:	0000                	unimp
 444:	0410                	addi	a2,sp,512
 446:	0000                	unimp
 448:	0b3e                	slli	s6,s6,0xf
 44a:	8000                	0x8000
 44c:	00dc                	addi	a5,sp,68
 44e:	0000                	unimp
 450:	0e42                	slli	t3,t3,0x10
 452:	4210                	lw	a2,0(a2)
 454:	0188                	addi	a0,sp,192
 456:	0c42                	slli	s8,s8,0x10
 458:	0008                	0x8
 45a:	d202                	sw	zero,36(sp)
 45c:	42c8                	lw	a0,4(a3)
 45e:	020d                	addi	tp,tp,3
 460:	0020                	addi	s0,sp,8
 462:	0000                	unimp
 464:	0410                	addi	a2,sp,512
 466:	0000                	unimp
 468:	0c1a                	slli	s8,s8,0x6
 46a:	8000                	0x8000
 46c:	0086                	slli	ra,ra,0x1
 46e:	0000                	unimp
 470:	0e42                	slli	t3,t3,0x10
 472:	4430                	lw	a2,72(s0)
 474:	0181                	addi	gp,gp,0
 476:	0288                	addi	a0,sp,320
 478:	0c42                	slli	s8,s8,0x10
 47a:	0008                	0x8
 47c:	7802                	flw	fa6,32(sp)
 47e:	42c1                	li	t0,16
 480:	42c8                	lw	a0,4(a3)
 482:	020d                	addi	tp,tp,3
 484:	0020                	addi	s0,sp,8
 486:	0000                	unimp
 488:	0410                	addi	a2,sp,512
 48a:	0000                	unimp
 48c:	0ca0                	addi	s0,sp,600
 48e:	8000                	0x8000
 490:	009a                	slli	ra,ra,0x6
 492:	0000                	unimp
 494:	0e42                	slli	t3,t3,0x10
 496:	4430                	lw	a2,72(s0)
 498:	0181                	addi	gp,gp,0
 49a:	0288                	addi	a0,sp,320
 49c:	0c42                	slli	s8,s8,0x10
 49e:	0008                	0x8
 4a0:	8c02                	jr	s8
 4a2:	42c1                	li	t0,16
 4a4:	42c8                	lw	a0,4(a3)
 4a6:	020d                	addi	tp,tp,3
 4a8:	0020                	addi	s0,sp,8
 4aa:	0000                	unimp
 4ac:	0410                	addi	a2,sp,512
 4ae:	0000                	unimp
 4b0:	0d3a                	slli	s10,s10,0xe
 4b2:	8000                	0x8000
 4b4:	0016                	c.slli	zero,0x5
 4b6:	0000                	unimp
 4b8:	0e42                	slli	t3,t3,0x10
 4ba:	4410                	lw	a2,8(s0)
 4bc:	0181                	addi	gp,gp,0
 4be:	0288                	addi	a0,sp,320
 4c0:	0c42                	slli	s8,s8,0x10
 4c2:	0008                	0x8
 4c4:	c148                	sw	a0,4(a0)
 4c6:	c842                	sw	a6,16(sp)
 4c8:	0d42                	slli	s10,s10,0x10
 4ca:	0002                	c.slli64	zero
 4cc:	0020                	addi	s0,sp,8
 4ce:	0000                	unimp
 4d0:	0410                	addi	a2,sp,512
 4d2:	0000                	unimp
 4d4:	0d50                	addi	a2,sp,660
 4d6:	8000                	0x8000
 4d8:	0030                	addi	a2,sp,8
 4da:	0000                	unimp
 4dc:	0e42                	slli	t3,t3,0x10
 4de:	4420                	lw	s0,72(s0)
 4e0:	0181                	addi	gp,gp,0
 4e2:	0288                	addi	a0,sp,320
 4e4:	0c42                	slli	s8,s8,0x10
 4e6:	0008                	0x8
 4e8:	c162                	sw	s8,128(sp)
 4ea:	c842                	sw	a6,16(sp)
 4ec:	0d42                	slli	s10,s10,0x10
 4ee:	0002                	c.slli64	zero
 4f0:	0024                	addi	s1,sp,8
 4f2:	0000                	unimp
 4f4:	0410                	addi	a2,sp,512
 4f6:	0000                	unimp
 4f8:	0d80                	addi	s0,sp,720
 4fa:	8000                	0x8000
 4fc:	03cc                	addi	a1,sp,452
 4fe:	0000                	unimp
 500:	0e42                	slli	t3,t3,0x10
 502:	4440                	lw	s0,12(s0)
 504:	0181                	addi	gp,gp,0
 506:	0288                	addi	a0,sp,320
 508:	0c42                	slli	s8,s8,0x10
 50a:	0008                	0x8
 50c:	c103be03          	0xc103be03
 510:	c842                	sw	a6,16(sp)
 512:	0d42                	slli	s10,s10,0x10
 514:	0002                	c.slli64	zero
 516:	0000                	unimp
 518:	0020                	addi	s0,sp,8
 51a:	0000                	unimp
 51c:	0410                	addi	a2,sp,512
 51e:	0000                	unimp
 520:	114c                	addi	a1,sp,164
 522:	8000                	0x8000
 524:	0048                	addi	a0,sp,4
 526:	0000                	unimp
 528:	0e42                	slli	t3,t3,0x10
 52a:	4410                	lw	a2,8(s0)
 52c:	0181                	addi	gp,gp,0
 52e:	0288                	addi	a0,sp,320
 530:	0c42                	slli	s8,s8,0x10
 532:	0008                	0x8
 534:	3a02                	fld	fs4,32(sp)
 536:	42c1                	li	t0,16
 538:	42c8                	lw	a0,4(a3)
 53a:	020d                	addi	tp,tp,3
 53c:	0020                	addi	s0,sp,8
 53e:	0000                	unimp
 540:	0410                	addi	a2,sp,512
 542:	0000                	unimp
 544:	1194                	addi	a3,sp,224
 546:	8000                	0x8000
 548:	0016                	c.slli	zero,0x5
 54a:	0000                	unimp
 54c:	0e42                	slli	t3,t3,0x10
 54e:	4410                	lw	a2,8(s0)
 550:	0181                	addi	gp,gp,0
 552:	0288                	addi	a0,sp,320
 554:	0c42                	slli	s8,s8,0x10
 556:	0008                	0x8
 558:	c148                	sw	a0,4(a0)
 55a:	c842                	sw	a6,16(sp)
 55c:	0d42                	slli	s10,s10,0x10
 55e:	0002                	c.slli64	zero
 560:	001c                	0x1c
 562:	0000                	unimp
 564:	0410                	addi	a2,sp,512
 566:	0000                	unimp
 568:	11aa                	slli	gp,gp,0x2a
 56a:	8000                	0x8000
 56c:	0010                	0x10
 56e:	0000                	unimp
 570:	0e42                	slli	t3,t3,0x10
 572:	4210                	lw	a2,0(a2)
 574:	0188                	addi	a0,sp,192
 576:	0c42                	slli	s8,s8,0x10
 578:	0008                	0x8
 57a:	c846                	sw	a7,16(sp)
 57c:	0d42                	slli	s10,s10,0x10
 57e:	0002                	c.slli64	zero
 580:	0020                	addi	s0,sp,8
 582:	0000                	unimp
 584:	0410                	addi	a2,sp,512
 586:	0000                	unimp
 588:	11ba                	slli	gp,gp,0x2e
 58a:	8000                	0x8000
 58c:	002a                	c.slli	zero,0xa
 58e:	0000                	unimp
 590:	0e42                	slli	t3,t3,0x10
 592:	4420                	lw	s0,72(s0)
 594:	0181                	addi	gp,gp,0
 596:	0288                	addi	a0,sp,320
 598:	0c42                	slli	s8,s8,0x10
 59a:	0008                	0x8
 59c:	c15c                	sw	a5,4(a0)
 59e:	c842                	sw	a6,16(sp)
 5a0:	0d42                	slli	s10,s10,0x10
 5a2:	0002                	c.slli64	zero
 5a4:	0020                	addi	s0,sp,8
 5a6:	0000                	unimp
 5a8:	0410                	addi	a2,sp,512
 5aa:	0000                	unimp
 5ac:	11e4                	addi	s1,sp,236
 5ae:	8000                	0x8000
 5b0:	001e                	c.slli	zero,0x7
 5b2:	0000                	unimp
 5b4:	0e42                	slli	t3,t3,0x10
 5b6:	4410                	lw	a2,8(s0)
 5b8:	0181                	addi	gp,gp,0
 5ba:	0288                	addi	a0,sp,320
 5bc:	0c42                	slli	s8,s8,0x10
 5be:	0008                	0x8
 5c0:	c150                	sw	a2,4(a0)
 5c2:	c842                	sw	a6,16(sp)
 5c4:	0d42                	slli	s10,s10,0x10
 5c6:	0002                	c.slli64	zero
 5c8:	0020                	addi	s0,sp,8
 5ca:	0000                	unimp
 5cc:	0410                	addi	a2,sp,512
 5ce:	0000                	unimp
 5d0:	1202                	slli	tp,tp,0x20
 5d2:	8000                	0x8000
 5d4:	0044                	addi	s1,sp,4
 5d6:	0000                	unimp
 5d8:	0e42                	slli	t3,t3,0x10
 5da:	4430                	lw	a2,72(s0)
 5dc:	0181                	addi	gp,gp,0
 5de:	0288                	addi	a0,sp,320
 5e0:	0c42                	slli	s8,s8,0x10
 5e2:	0008                	0x8
 5e4:	c176                	sw	t4,128(sp)
 5e6:	c842                	sw	a6,16(sp)
 5e8:	0d42                	slli	s10,s10,0x10
 5ea:	0002                	c.slli64	zero
 5ec:	0020                	addi	s0,sp,8
 5ee:	0000                	unimp
 5f0:	0410                	addi	a2,sp,512
 5f2:	0000                	unimp
 5f4:	1246                	slli	tp,tp,0x31
 5f6:	8000                	0x8000
 5f8:	0022                	c.slli	zero,0x8
 5fa:	0000                	unimp
 5fc:	0e42                	slli	t3,t3,0x10
 5fe:	4420                	lw	s0,72(s0)
 600:	0181                	addi	gp,gp,0
 602:	0288                	addi	a0,sp,320
 604:	0c42                	slli	s8,s8,0x10
 606:	0008                	0x8
 608:	c154                	sw	a3,4(a0)
 60a:	c842                	sw	a6,16(sp)
 60c:	0d42                	slli	s10,s10,0x10
 60e:	0002                	c.slli64	zero
 610:	0020                	addi	s0,sp,8
 612:	0000                	unimp
 614:	0410                	addi	a2,sp,512
 616:	0000                	unimp
 618:	1268                	addi	a0,sp,300
 61a:	8000                	0x8000
 61c:	0022                	c.slli	zero,0x8
 61e:	0000                	unimp
 620:	0e42                	slli	t3,t3,0x10
 622:	4420                	lw	s0,72(s0)
 624:	0181                	addi	gp,gp,0
 626:	0288                	addi	a0,sp,320
 628:	0c42                	slli	s8,s8,0x10
 62a:	0008                	0x8
 62c:	c154                	sw	a3,4(a0)
 62e:	c842                	sw	a6,16(sp)
 630:	0d42                	slli	s10,s10,0x10
 632:	0002                	c.slli64	zero
 634:	0020                	addi	s0,sp,8
 636:	0000                	unimp
 638:	0410                	addi	a2,sp,512
 63a:	0000                	unimp
 63c:	128a                	slli	t0,t0,0x22
 63e:	8000                	0x8000
 640:	0078                	addi	a4,sp,12
 642:	0000                	unimp
 644:	0e42                	slli	t3,t3,0x10
 646:	4430                	lw	a2,72(s0)
 648:	0181                	addi	gp,gp,0
 64a:	0288                	addi	a0,sp,320
 64c:	0c42                	slli	s8,s8,0x10
 64e:	0008                	0x8
 650:	6a02                	flw	fs4,0(sp)
 652:	42c1                	li	t0,16
 654:	42c8                	lw	a0,4(a3)
 656:	020d                	addi	tp,tp,3
 658:	0020                	addi	s0,sp,8
 65a:	0000                	unimp
 65c:	0410                	addi	a2,sp,512
 65e:	0000                	unimp
 660:	1302                	slli	t1,t1,0x20
 662:	8000                	0x8000
 664:	0076                	c.slli	zero,0x1d
 666:	0000                	unimp
 668:	0e42                	slli	t3,t3,0x10
 66a:	4430                	lw	a2,72(s0)
 66c:	0181                	addi	gp,gp,0
 66e:	0288                	addi	a0,sp,320
 670:	0c42                	slli	s8,s8,0x10
 672:	0008                	0x8
 674:	6802                	flw	fa6,0(sp)
 676:	42c1                	li	t0,16
 678:	42c8                	lw	a0,4(a3)
 67a:	020d                	addi	tp,tp,3
 67c:	0020                	addi	s0,sp,8
 67e:	0000                	unimp
 680:	0410                	addi	a2,sp,512
 682:	0000                	unimp
 684:	1378                	addi	a4,sp,428
 686:	8000                	0x8000
 688:	0038                	addi	a4,sp,8
 68a:	0000                	unimp
 68c:	0e42                	slli	t3,t3,0x10
 68e:	4420                	lw	s0,72(s0)
 690:	0181                	addi	gp,gp,0
 692:	0288                	addi	a0,sp,320
 694:	0c42                	slli	s8,s8,0x10
 696:	0008                	0x8
 698:	c16a                	sw	s10,128(sp)
 69a:	c842                	sw	a6,16(sp)
 69c:	0d42                	slli	s10,s10,0x10
 69e:	0002                	c.slli64	zero
 6a0:	0024                	addi	s1,sp,8
 6a2:	0000                	unimp
 6a4:	0410                	addi	a2,sp,512
 6a6:	0000                	unimp
 6a8:	13b0                	addi	a2,sp,488
 6aa:	8000                	0x8000
 6ac:	0154                	addi	a3,sp,132
 6ae:	0000                	unimp
 6b0:	0e42                	slli	t3,t3,0x10
 6b2:	4420                	lw	s0,72(s0)
 6b4:	0181                	addi	gp,gp,0
 6b6:	0288                	addi	a0,sp,320
 6b8:	0c42                	slli	s8,s8,0x10
 6ba:	0008                	0x8
 6bc:	c1014603          	lbu	a2,-1008(sp)
 6c0:	c842                	sw	a6,16(sp)
 6c2:	0d42                	slli	s10,s10,0x10
 6c4:	0002                	c.slli64	zero
 6c6:	0000                	unimp
 6c8:	0020                	addi	s0,sp,8
 6ca:	0000                	unimp
 6cc:	0410                	addi	a2,sp,512
 6ce:	0000                	unimp
 6d0:	1504                	addi	s1,sp,672
 6d2:	8000                	0x8000
 6d4:	0028                	addi	a0,sp,8
 6d6:	0000                	unimp
 6d8:	0e42                	slli	t3,t3,0x10
 6da:	4420                	lw	s0,72(s0)
 6dc:	0181                	addi	gp,gp,0
 6de:	0288                	addi	a0,sp,320
 6e0:	0c42                	slli	s8,s8,0x10
 6e2:	0008                	0x8
 6e4:	c15a                	sw	s6,128(sp)
 6e6:	c842                	sw	a6,16(sp)
 6e8:	0d42                	slli	s10,s10,0x10
 6ea:	0002                	c.slli64	zero
 6ec:	0020                	addi	s0,sp,8
 6ee:	0000                	unimp
 6f0:	0410                	addi	a2,sp,512
 6f2:	0000                	unimp
 6f4:	152c                	addi	a1,sp,680
 6f6:	8000                	0x8000
 6f8:	0030                	addi	a2,sp,8
 6fa:	0000                	unimp
 6fc:	0e42                	slli	t3,t3,0x10
 6fe:	4420                	lw	s0,72(s0)
 700:	0181                	addi	gp,gp,0
 702:	0288                	addi	a0,sp,320
 704:	0c42                	slli	s8,s8,0x10
 706:	0008                	0x8
 708:	c162                	sw	s8,128(sp)
 70a:	c842                	sw	a6,16(sp)
 70c:	0d42                	slli	s10,s10,0x10
 70e:	0002                	c.slli64	zero
 710:	0020                	addi	s0,sp,8
 712:	0000                	unimp
 714:	0410                	addi	a2,sp,512
 716:	0000                	unimp
 718:	155c                	addi	a5,sp,676
 71a:	8000                	0x8000
 71c:	006c                	addi	a1,sp,12
 71e:	0000                	unimp
 720:	0e42                	slli	t3,t3,0x10
 722:	4420                	lw	s0,72(s0)
 724:	0181                	addi	gp,gp,0
 726:	0288                	addi	a0,sp,320
 728:	0c42                	slli	s8,s8,0x10
 72a:	0008                	0x8
 72c:	5e02                	lw	t3,32(sp)
 72e:	42c1                	li	t0,16
 730:	42c8                	lw	a0,4(a3)
 732:	020d                	addi	tp,tp,3
 734:	0020                	addi	s0,sp,8
 736:	0000                	unimp
 738:	0410                	addi	a2,sp,512
 73a:	0000                	unimp
 73c:	15c8                	addi	a0,sp,740
 73e:	8000                	0x8000
 740:	0030                	addi	a2,sp,8
 742:	0000                	unimp
 744:	0e42                	slli	t3,t3,0x10
 746:	4410                	lw	a2,8(s0)
 748:	0181                	addi	gp,gp,0
 74a:	0288                	addi	a0,sp,320
 74c:	0c42                	slli	s8,s8,0x10
 74e:	0008                	0x8
 750:	c162                	sw	s8,128(sp)
 752:	c842                	sw	a6,16(sp)
 754:	0d42                	slli	s10,s10,0x10
 756:	0002                	c.slli64	zero
 758:	0020                	addi	s0,sp,8
 75a:	0000                	unimp
 75c:	0410                	addi	a2,sp,512
 75e:	0000                	unimp
 760:	15f8                	addi	a4,sp,748
 762:	8000                	0x8000
 764:	006e                	c.slli	zero,0x1b
 766:	0000                	unimp
 768:	0e42                	slli	t3,t3,0x10
 76a:	4420                	lw	s0,72(s0)
 76c:	0181                	addi	gp,gp,0
 76e:	0288                	addi	a0,sp,320
 770:	0c42                	slli	s8,s8,0x10
 772:	0008                	0x8
 774:	6002                	flw	ft0,0(sp)
 776:	42c1                	li	t0,16
 778:	42c8                	lw	a0,4(a3)
 77a:	020d                	addi	tp,tp,3
 77c:	0020                	addi	s0,sp,8
 77e:	0000                	unimp
 780:	0410                	addi	a2,sp,512
 782:	0000                	unimp
 784:	1666                	slli	a2,a2,0x39
 786:	8000                	0x8000
 788:	008a                	slli	ra,ra,0x2
 78a:	0000                	unimp
 78c:	0e42                	slli	t3,t3,0x10
 78e:	4430                	lw	a2,72(s0)
 790:	0181                	addi	gp,gp,0
 792:	0288                	addi	a0,sp,320
 794:	0c42                	slli	s8,s8,0x10
 796:	0008                	0x8
 798:	7c02                	flw	fs8,32(sp)
 79a:	42c1                	li	t0,16
 79c:	42c8                	lw	a0,4(a3)
 79e:	020d                	addi	tp,tp,3
 7a0:	0020                	addi	s0,sp,8
 7a2:	0000                	unimp
 7a4:	0410                	addi	a2,sp,512
 7a6:	0000                	unimp
 7a8:	16f0                	addi	a2,sp,876
 7aa:	8000                	0x8000
 7ac:	0060                	addi	s0,sp,12
 7ae:	0000                	unimp
 7b0:	0e42                	slli	t3,t3,0x10
 7b2:	4430                	lw	a2,72(s0)
 7b4:	0181                	addi	gp,gp,0
 7b6:	0288                	addi	a0,sp,320
 7b8:	0c42                	slli	s8,s8,0x10
 7ba:	0008                	0x8
 7bc:	5202                	lw	tp,32(sp)
 7be:	42c1                	li	t0,16
 7c0:	42c8                	lw	a0,4(a3)
 7c2:	020d                	addi	tp,tp,3
 7c4:	0020                	addi	s0,sp,8
 7c6:	0000                	unimp
 7c8:	0410                	addi	a2,sp,512
 7ca:	0000                	unimp
 7cc:	1750                	addi	a2,sp,932
 7ce:	8000                	0x8000
 7d0:	00c8                	addi	a0,sp,68
 7d2:	0000                	unimp
 7d4:	0e42                	slli	t3,t3,0x10
 7d6:	4430                	lw	a2,72(s0)
 7d8:	0181                	addi	gp,gp,0
 7da:	0288                	addi	a0,sp,320
 7dc:	0c42                	slli	s8,s8,0x10
 7de:	0008                	0x8
 7e0:	ba02                	fsd	ft0,304(sp)
 7e2:	42c1                	li	t0,16
 7e4:	42c8                	lw	a0,4(a3)
 7e6:	020d                	addi	tp,tp,3
 7e8:	0018                	0x18
 7ea:	0000                	unimp
 7ec:	0410                	addi	a2,sp,512
 7ee:	0000                	unimp
 7f0:	1818                	addi	a4,sp,48
 7f2:	8000                	0x8000
 7f4:	0016                	c.slli	zero,0x5
 7f6:	0000                	unimp
 7f8:	0e42                	slli	t3,t3,0x10
 7fa:	4410                	lw	a2,8(s0)
 7fc:	0181                	addi	gp,gp,0
 7fe:	0288                	addi	a0,sp,320
 800:	0c42                	slli	s8,s8,0x10
 802:	0008                	0x8
 804:	001c                	0x1c
 806:	0000                	unimp
 808:	0410                	addi	a2,sp,512
 80a:	0000                	unimp
 80c:	182e                	slli	a6,a6,0x2b
 80e:	8000                	0x8000
 810:	003a                	c.slli	zero,0xe
 812:	0000                	unimp
 814:	0e42                	slli	t3,t3,0x10
 816:	4220                	lw	s0,64(a2)
 818:	0188                	addi	a0,sp,192
 81a:	0c42                	slli	s8,s8,0x10
 81c:	0008                	0x8
 81e:	c870                	sw	a2,84(s0)
 820:	0d42                	slli	s10,s10,0x10
 822:	0002                	c.slli64	zero
 824:	0020                	addi	s0,sp,8
 826:	0000                	unimp
 828:	0410                	addi	a2,sp,512
 82a:	0000                	unimp
 82c:	1868                	addi	a0,sp,60
 82e:	8000                	0x8000
 830:	0024                	addi	s1,sp,8
 832:	0000                	unimp
 834:	0e42                	slli	t3,t3,0x10
 836:	4420                	lw	s0,72(s0)
 838:	0181                	addi	gp,gp,0
 83a:	0288                	addi	a0,sp,320
 83c:	0c42                	slli	s8,s8,0x10
 83e:	0008                	0x8
 840:	c156                	sw	s5,128(sp)
 842:	c842                	sw	a6,16(sp)
 844:	0d42                	slli	s10,s10,0x10
 846:	0002                	c.slli64	zero
 848:	000c                	0xc
 84a:	0000                	unimp
 84c:	ffff                	0xffff
 84e:	ffff                	0xffff
 850:	0001                	nop
 852:	7c01                	lui	s8,0xfffe0
 854:	0d01                	addi	s10,s10,0
 856:	0002                	c.slli64	zero
 858:	0020                	addi	s0,sp,8
 85a:	0000                	unimp
 85c:	0848                	addi	a0,sp,20
 85e:	0000                	unimp
 860:	188c                	addi	a1,sp,112
 862:	8000                	0x8000
 864:	0068                	addi	a0,sp,12
 866:	0000                	unimp
 868:	0e42                	slli	t3,t3,0x10
 86a:	4450                	lw	a2,12(s0)
 86c:	0181                	addi	gp,gp,0
 86e:	0288                	addi	a0,sp,320
 870:	0c42                	slli	s8,s8,0x10
 872:	0008                	0x8
 874:	5a02                	lw	s4,32(sp)
 876:	42c1                	li	t0,16
 878:	42c8                	lw	a0,4(a3)
 87a:	020d                	addi	tp,tp,3
 87c:	0020                	addi	s0,sp,8
 87e:	0000                	unimp
 880:	0848                	addi	a0,sp,20
 882:	0000                	unimp
 884:	18f4                	addi	a3,sp,124
 886:	8000                	0x8000
 888:	0018                	0x18
 88a:	0000                	unimp
 88c:	0e42                	slli	t3,t3,0x10
 88e:	4410                	lw	a2,8(s0)
 890:	0181                	addi	gp,gp,0
 892:	0288                	addi	a0,sp,320
 894:	0c42                	slli	s8,s8,0x10
 896:	0008                	0x8
 898:	c14a                	sw	s2,128(sp)
 89a:	c842                	sw	a6,16(sp)
 89c:	0d42                	slli	s10,s10,0x10
 89e:	0002                	c.slli64	zero
 8a0:	0020                	addi	s0,sp,8
 8a2:	0000                	unimp
 8a4:	0848                	addi	a0,sp,20
 8a6:	0000                	unimp
 8a8:	190c                	addi	a1,sp,176
 8aa:	8000                	0x8000
 8ac:	0020                	addi	s0,sp,8
 8ae:	0000                	unimp
 8b0:	0e42                	slli	t3,t3,0x10
 8b2:	4430                	lw	a2,72(s0)
 8b4:	0181                	addi	gp,gp,0
 8b6:	0288                	addi	a0,sp,320
 8b8:	0c42                	slli	s8,s8,0x10
 8ba:	0008                	0x8
 8bc:	c152                	sw	s4,128(sp)
 8be:	c842                	sw	a6,16(sp)
 8c0:	0d42                	slli	s10,s10,0x10
 8c2:	0002                	c.slli64	zero
 8c4:	0020                	addi	s0,sp,8
 8c6:	0000                	unimp
 8c8:	0848                	addi	a0,sp,20
 8ca:	0000                	unimp
 8cc:	192c                	addi	a1,sp,184
 8ce:	8000                	0x8000
 8d0:	0020                	addi	s0,sp,8
 8d2:	0000                	unimp
 8d4:	0e42                	slli	t3,t3,0x10
 8d6:	4430                	lw	a2,72(s0)
 8d8:	0181                	addi	gp,gp,0
 8da:	0288                	addi	a0,sp,320
 8dc:	0c42                	slli	s8,s8,0x10
 8de:	0008                	0x8
 8e0:	c152                	sw	s4,128(sp)
 8e2:	c842                	sw	a6,16(sp)
 8e4:	0d42                	slli	s10,s10,0x10
 8e6:	0002                	c.slli64	zero
 8e8:	0020                	addi	s0,sp,8
 8ea:	0000                	unimp
 8ec:	0848                	addi	a0,sp,20
 8ee:	0000                	unimp
 8f0:	194c                	addi	a1,sp,180
 8f2:	8000                	0x8000
 8f4:	002c                	addi	a1,sp,8
 8f6:	0000                	unimp
 8f8:	0e42                	slli	t3,t3,0x10
 8fa:	4440                	lw	s0,12(s0)
 8fc:	0181                	addi	gp,gp,0
 8fe:	0288                	addi	a0,sp,320
 900:	0c42                	slli	s8,s8,0x10
 902:	0008                	0x8
 904:	c15e                	sw	s7,128(sp)
 906:	c842                	sw	a6,16(sp)
 908:	0d42                	slli	s10,s10,0x10
 90a:	0002                	c.slli64	zero
 90c:	0020                	addi	s0,sp,8
 90e:	0000                	unimp
 910:	0848                	addi	a0,sp,20
 912:	0000                	unimp
 914:	1978                	addi	a4,sp,188
 916:	8000                	0x8000
 918:	0020                	addi	s0,sp,8
 91a:	0000                	unimp
 91c:	0e42                	slli	t3,t3,0x10
 91e:	4430                	lw	a2,72(s0)
 920:	0181                	addi	gp,gp,0
 922:	0288                	addi	a0,sp,320
 924:	0c42                	slli	s8,s8,0x10
 926:	0008                	0x8
 928:	c152                	sw	s4,128(sp)
 92a:	c842                	sw	a6,16(sp)
 92c:	0d42                	slli	s10,s10,0x10
 92e:	0002                	c.slli64	zero
 930:	0020                	addi	s0,sp,8
 932:	0000                	unimp
 934:	0848                	addi	a0,sp,20
 936:	0000                	unimp
 938:	1998                	addi	a4,sp,240
 93a:	8000                	0x8000
 93c:	002c                	addi	a1,sp,8
 93e:	0000                	unimp
 940:	0e42                	slli	t3,t3,0x10
 942:	4440                	lw	s0,12(s0)
 944:	0181                	addi	gp,gp,0
 946:	0288                	addi	a0,sp,320
 948:	0c42                	slli	s8,s8,0x10
 94a:	0008                	0x8
 94c:	c15e                	sw	s7,128(sp)
 94e:	c842                	sw	a6,16(sp)
 950:	0d42                	slli	s10,s10,0x10
 952:	0002                	c.slli64	zero
 954:	0020                	addi	s0,sp,8
 956:	0000                	unimp
 958:	0848                	addi	a0,sp,20
 95a:	0000                	unimp
 95c:	19c4                	addi	s1,sp,244
 95e:	8000                	0x8000
 960:	002c                	addi	a1,sp,8
 962:	0000                	unimp
 964:	0e42                	slli	t3,t3,0x10
 966:	4440                	lw	s0,12(s0)
 968:	0181                	addi	gp,gp,0
 96a:	0288                	addi	a0,sp,320
 96c:	0c42                	slli	s8,s8,0x10
 96e:	0008                	0x8
 970:	c15e                	sw	s7,128(sp)
 972:	c842                	sw	a6,16(sp)
 974:	0d42                	slli	s10,s10,0x10
 976:	0002                	c.slli64	zero
 978:	0020                	addi	s0,sp,8
 97a:	0000                	unimp
 97c:	0848                	addi	a0,sp,20
 97e:	0000                	unimp
 980:	19f0                	addi	a2,sp,252
 982:	8000                	0x8000
 984:	002c                	addi	a1,sp,8
 986:	0000                	unimp
 988:	0e42                	slli	t3,t3,0x10
 98a:	4440                	lw	s0,12(s0)
 98c:	0181                	addi	gp,gp,0
 98e:	0288                	addi	a0,sp,320
 990:	0c42                	slli	s8,s8,0x10
 992:	0008                	0x8
 994:	c15e                	sw	s7,128(sp)
 996:	c842                	sw	a6,16(sp)
 998:	0d42                	slli	s10,s10,0x10
 99a:	0002                	c.slli64	zero
 99c:	0020                	addi	s0,sp,8
 99e:	0000                	unimp
 9a0:	0848                	addi	a0,sp,20
 9a2:	0000                	unimp
 9a4:	1a1c                	addi	a5,sp,304
 9a6:	8000                	0x8000
 9a8:	0050                	addi	a2,sp,4
 9aa:	0000                	unimp
 9ac:	0e42                	slli	t3,t3,0x10
 9ae:	4440                	lw	s0,12(s0)
 9b0:	0181                	addi	gp,gp,0
 9b2:	0288                	addi	a0,sp,320
 9b4:	0c42                	slli	s8,s8,0x10
 9b6:	0008                	0x8
 9b8:	4202                	lw	tp,0(sp)
 9ba:	42c1                	li	t0,16
 9bc:	42c8                	lw	a0,4(a3)
 9be:	020d                	addi	tp,tp,3
 9c0:	0020                	addi	s0,sp,8
 9c2:	0000                	unimp
 9c4:	0848                	addi	a0,sp,20
 9c6:	0000                	unimp
 9c8:	1a6c                	addi	a1,sp,316
 9ca:	8000                	0x8000
 9cc:	0044                	addi	s1,sp,4
 9ce:	0000                	unimp
 9d0:	0e42                	slli	t3,t3,0x10
 9d2:	4440                	lw	s0,12(s0)
 9d4:	0181                	addi	gp,gp,0
 9d6:	0288                	addi	a0,sp,320
 9d8:	0c42                	slli	s8,s8,0x10
 9da:	0008                	0x8
 9dc:	c176                	sw	t4,128(sp)
 9de:	c842                	sw	a6,16(sp)
 9e0:	0d42                	slli	s10,s10,0x10
 9e2:	0002                	c.slli64	zero
 9e4:	0020                	addi	s0,sp,8
 9e6:	0000                	unimp
 9e8:	0848                	addi	a0,sp,20
 9ea:	0000                	unimp
 9ec:	1ab0                	addi	a2,sp,376
 9ee:	8000                	0x8000
 9f0:	003a                	c.slli	zero,0xe
 9f2:	0000                	unimp
 9f4:	0e42                	slli	t3,t3,0x10
 9f6:	4440                	lw	s0,12(s0)
 9f8:	0181                	addi	gp,gp,0
 9fa:	0288                	addi	a0,sp,320
 9fc:	0c42                	slli	s8,s8,0x10
 9fe:	0008                	0x8
 a00:	c16c                	sw	a1,68(a0)
 a02:	c842                	sw	a6,16(sp)
 a04:	0d42                	slli	s10,s10,0x10
 a06:	0002                	c.slli64	zero
 a08:	0020                	addi	s0,sp,8
 a0a:	0000                	unimp
 a0c:	0848                	addi	a0,sp,20
 a0e:	0000                	unimp
 a10:	1aea                	slli	s5,s5,0x3a
 a12:	8000                	0x8000
 a14:	002c                	addi	a1,sp,8
 a16:	0000                	unimp
 a18:	0e42                	slli	t3,t3,0x10
 a1a:	4440                	lw	s0,12(s0)
 a1c:	0181                	addi	gp,gp,0
 a1e:	0288                	addi	a0,sp,320
 a20:	0c42                	slli	s8,s8,0x10
 a22:	0008                	0x8
 a24:	c15e                	sw	s7,128(sp)
 a26:	c842                	sw	a6,16(sp)
 a28:	0d42                	slli	s10,s10,0x10
 a2a:	0002                	c.slli64	zero
 a2c:	0020                	addi	s0,sp,8
 a2e:	0000                	unimp
 a30:	0848                	addi	a0,sp,20
 a32:	0000                	unimp
 a34:	1b16                	slli	s6,s6,0x25
 a36:	8000                	0x8000
 a38:	002c                	addi	a1,sp,8
 a3a:	0000                	unimp
 a3c:	0e42                	slli	t3,t3,0x10
 a3e:	4440                	lw	s0,12(s0)
 a40:	0181                	addi	gp,gp,0
 a42:	0288                	addi	a0,sp,320
 a44:	0c42                	slli	s8,s8,0x10
 a46:	0008                	0x8
 a48:	c15e                	sw	s7,128(sp)
 a4a:	c842                	sw	a6,16(sp)
 a4c:	0d42                	slli	s10,s10,0x10
 a4e:	0002                	c.slli64	zero
 a50:	0020                	addi	s0,sp,8
 a52:	0000                	unimp
 a54:	0848                	addi	a0,sp,20
 a56:	0000                	unimp
 a58:	1b42                	slli	s6,s6,0x30
 a5a:	8000                	0x8000
 a5c:	002c                	addi	a1,sp,8
 a5e:	0000                	unimp
 a60:	0e42                	slli	t3,t3,0x10
 a62:	4440                	lw	s0,12(s0)
 a64:	0181                	addi	gp,gp,0
 a66:	0288                	addi	a0,sp,320
 a68:	0c42                	slli	s8,s8,0x10
 a6a:	0008                	0x8
 a6c:	c15e                	sw	s7,128(sp)
 a6e:	c842                	sw	a6,16(sp)
 a70:	0d42                	slli	s10,s10,0x10
 a72:	0002                	c.slli64	zero
 a74:	0020                	addi	s0,sp,8
 a76:	0000                	unimp
 a78:	0848                	addi	a0,sp,20
 a7a:	0000                	unimp
 a7c:	1b6e                	slli	s6,s6,0x3b
 a7e:	8000                	0x8000
 a80:	0044                	addi	s1,sp,4
 a82:	0000                	unimp
 a84:	0e42                	slli	t3,t3,0x10
 a86:	4440                	lw	s0,12(s0)
 a88:	0181                	addi	gp,gp,0
 a8a:	0288                	addi	a0,sp,320
 a8c:	0c42                	slli	s8,s8,0x10
 a8e:	0008                	0x8
 a90:	c176                	sw	t4,128(sp)
 a92:	c842                	sw	a6,16(sp)
 a94:	0d42                	slli	s10,s10,0x10
 a96:	0002                	c.slli64	zero
 a98:	000c                	0xc
 a9a:	0000                	unimp
 a9c:	ffff                	0xffff
 a9e:	ffff                	0xffff
 aa0:	0001                	nop
 aa2:	7c01                	lui	s8,0xfffe0
 aa4:	0d01                	addi	s10,s10,0
 aa6:	0002                	c.slli64	zero
 aa8:	0020                	addi	s0,sp,8
 aaa:	0000                	unimp
 aac:	0a98                	addi	a4,sp,336
 aae:	0000                	unimp
 ab0:	1bb2                	slli	s7,s7,0x2c
 ab2:	8000                	0x8000
 ab4:	00a6                	slli	ra,ra,0x9
 ab6:	0000                	unimp
 ab8:	0e42                	slli	t3,t3,0x10
 aba:	4430                	lw	a2,72(s0)
 abc:	0181                	addi	gp,gp,0
 abe:	0288                	addi	a0,sp,320
 ac0:	0c42                	slli	s8,s8,0x10
 ac2:	0008                	0x8
 ac4:	9802                	jalr	a6
 ac6:	42c1                	li	t0,16
 ac8:	42c8                	lw	a0,4(a3)
 aca:	020d                	addi	tp,tp,3
 acc:	0020                	addi	s0,sp,8
 ace:	0000                	unimp
 ad0:	0a98                	addi	a4,sp,336
 ad2:	0000                	unimp
 ad4:	1c58                	addi	a4,sp,564
 ad6:	8000                	0x8000
 ad8:	0048                	addi	a0,sp,4
 ada:	0000                	unimp
 adc:	0e42                	slli	t3,t3,0x10
 ade:	4420                	lw	s0,72(s0)
 ae0:	0181                	addi	gp,gp,0
 ae2:	0288                	addi	a0,sp,320
 ae4:	0c42                	slli	s8,s8,0x10
 ae6:	0008                	0x8
 ae8:	3a02                	fld	fs4,32(sp)
 aea:	42c1                	li	t0,16
 aec:	42c8                	lw	a0,4(a3)
 aee:	020d                	addi	tp,tp,3
 af0:	0020                	addi	s0,sp,8
 af2:	0000                	unimp
 af4:	0a98                	addi	a4,sp,336
 af6:	0000                	unimp
 af8:	1ca0                	addi	s0,sp,632
 afa:	8000                	0x8000
 afc:	0096                	slli	ra,ra,0x5
 afe:	0000                	unimp
 b00:	0e42                	slli	t3,t3,0x10
 b02:	4430                	lw	a2,72(s0)
 b04:	0181                	addi	gp,gp,0
 b06:	0288                	addi	a0,sp,320
 b08:	0c42                	slli	s8,s8,0x10
 b0a:	0008                	0x8
 b0c:	8802                	jr	a6
 b0e:	42c1                	li	t0,16
 b10:	42c8                	lw	a0,4(a3)
 b12:	020d                	addi	tp,tp,3
 b14:	0020                	addi	s0,sp,8
 b16:	0000                	unimp
 b18:	0a98                	addi	a4,sp,336
 b1a:	0000                	unimp
 b1c:	1d36                	slli	s10,s10,0x2d
 b1e:	8000                	0x8000
 b20:	007c                	addi	a5,sp,12
 b22:	0000                	unimp
 b24:	0e42                	slli	t3,t3,0x10
 b26:	4430                	lw	a2,72(s0)
 b28:	0181                	addi	gp,gp,0
 b2a:	0288                	addi	a0,sp,320
 b2c:	0c42                	slli	s8,s8,0x10
 b2e:	0008                	0x8
 b30:	6e02                	flw	ft8,0(sp)
 b32:	42c1                	li	t0,16
 b34:	42c8                	lw	a0,4(a3)
 b36:	020d                	addi	tp,tp,3
 b38:	000c                	0xc
 b3a:	0000                	unimp
 b3c:	ffff                	0xffff
 b3e:	ffff                	0xffff
 b40:	0001                	nop
 b42:	7c01                	lui	s8,0xfffe0
 b44:	0d01                	addi	s10,s10,0
 b46:	0002                	c.slli64	zero
 b48:	0020                	addi	s0,sp,8
 b4a:	0000                	unimp
 b4c:	0b38                	addi	a4,sp,408
 b4e:	0000                	unimp
 b50:	1db2                	slli	s11,s11,0x2c
 b52:	8000                	0x8000
 b54:	007e                	c.slli	zero,0x1f
 b56:	0000                	unimp
 b58:	0e42                	slli	t3,t3,0x10
 b5a:	4430                	lw	a2,72(s0)
 b5c:	0181                	addi	gp,gp,0
 b5e:	0288                	addi	a0,sp,320
 b60:	0c42                	slli	s8,s8,0x10
 b62:	0008                	0x8
 b64:	7002                	flw	ft0,32(sp)
 b66:	42c1                	li	t0,16
 b68:	42c8                	lw	a0,4(a3)
 b6a:	020d                	addi	tp,tp,3
 b6c:	0020                	addi	s0,sp,8
 b6e:	0000                	unimp
 b70:	0b38                	addi	a4,sp,408
 b72:	0000                	unimp
 b74:	1e30                	addi	a2,sp,824
 b76:	8000                	0x8000
 b78:	00c0                	addi	s0,sp,68
 b7a:	0000                	unimp
 b7c:	0e42                	slli	t3,t3,0x10
 b7e:	4430                	lw	a2,72(s0)
 b80:	0181                	addi	gp,gp,0
 b82:	0288                	addi	a0,sp,320
 b84:	0c42                	slli	s8,s8,0x10
 b86:	0008                	0x8
 b88:	b202                	fsd	ft0,288(sp)
 b8a:	42c1                	li	t0,16
 b8c:	42c8                	lw	a0,4(a3)
 b8e:	020d                	addi	tp,tp,3
 b90:	0024                	addi	s1,sp,8
 b92:	0000                	unimp
 b94:	0b38                	addi	a4,sp,408
 b96:	0000                	unimp
 b98:	1ef0                	addi	a2,sp,892
 b9a:	8000                	0x8000
 b9c:	00f8                	addi	a4,sp,76
 b9e:	0000                	unimp
 ba0:	0e42                	slli	t3,t3,0x10
 ba2:	4430                	lw	a2,72(s0)
 ba4:	0181                	addi	gp,gp,0
 ba6:	0288                	addi	a0,sp,320
 ba8:	0c42                	slli	s8,s8,0x10
 baa:	0008                	0x8
 bac:	c100ea03          	0xc100ea03
 bb0:	c842                	sw	a6,16(sp)
 bb2:	0d42                	slli	s10,s10,0x10
 bb4:	0002                	c.slli64	zero
 bb6:	0000                	unimp
 bb8:	0020                	addi	s0,sp,8
 bba:	0000                	unimp
 bbc:	0b38                	addi	a4,sp,408
 bbe:	0000                	unimp
 bc0:	1fe8                	addi	a0,sp,1020
 bc2:	8000                	0x8000
 bc4:	0072                	c.slli	zero,0x1c
 bc6:	0000                	unimp
 bc8:	0e42                	slli	t3,t3,0x10
 bca:	4420                	lw	s0,72(s0)
 bcc:	0181                	addi	gp,gp,0
 bce:	0288                	addi	a0,sp,320
 bd0:	0c42                	slli	s8,s8,0x10
 bd2:	0008                	0x8
 bd4:	6402                	flw	fs0,0(sp)
 bd6:	42c1                	li	t0,16
 bd8:	42c8                	lw	a0,4(a3)
 bda:	020d                	addi	tp,tp,3
 bdc:	0020                	addi	s0,sp,8
 bde:	0000                	unimp
 be0:	0b38                	addi	a4,sp,408
 be2:	0000                	unimp
 be4:	205a                	fld	ft0,400(sp)
 be6:	8000                	0x8000
 be8:	0024                	addi	s1,sp,8
 bea:	0000                	unimp
 bec:	0e42                	slli	t3,t3,0x10
 bee:	4410                	lw	a2,8(s0)
 bf0:	0181                	addi	gp,gp,0
 bf2:	0288                	addi	a0,sp,320
 bf4:	0c42                	slli	s8,s8,0x10
 bf6:	0008                	0x8
 bf8:	c156                	sw	s5,128(sp)
 bfa:	c842                	sw	a6,16(sp)
 bfc:	0d42                	slli	s10,s10,0x10
 bfe:	0002                	c.slli64	zero
 c00:	0020                	addi	s0,sp,8
 c02:	0000                	unimp
 c04:	0b38                	addi	a4,sp,408
 c06:	0000                	unimp
 c08:	207e                	fld	ft0,472(sp)
 c0a:	8000                	0x8000
 c0c:	00b8                	addi	a4,sp,72
 c0e:	0000                	unimp
 c10:	0e42                	slli	t3,t3,0x10
 c12:	4440                	lw	s0,12(s0)
 c14:	0181                	addi	gp,gp,0
 c16:	0288                	addi	a0,sp,320
 c18:	0c42                	slli	s8,s8,0x10
 c1a:	0008                	0x8
 c1c:	aa02                	fsd	ft0,272(sp)
 c1e:	42c1                	li	t0,16
 c20:	42c8                	lw	a0,4(a3)
 c22:	020d                	addi	tp,tp,3
 c24:	0018                	0x18
 c26:	0000                	unimp
 c28:	0b38                	addi	a4,sp,408
 c2a:	0000                	unimp
 c2c:	2136                	fld	ft2,328(sp)
 c2e:	8000                	0x8000
 c30:	0084                	addi	s1,sp,64
 c32:	0000                	unimp
 c34:	0e42                	slli	t3,t3,0x10
 c36:	4430                	lw	a2,72(s0)
 c38:	0181                	addi	gp,gp,0
 c3a:	0288                	addi	a0,sp,320
 c3c:	0c42                	slli	s8,s8,0x10
 c3e:	0008                	0x8
 c40:	000c                	0xc
 c42:	0000                	unimp
 c44:	ffff                	0xffff
 c46:	ffff                	0xffff
 c48:	0001                	nop
 c4a:	7c01                	lui	s8,0xfffe0
 c4c:	0d01                	addi	s10,s10,0
 c4e:	0002                	c.slli64	zero
 c50:	0020                	addi	s0,sp,8
 c52:	0000                	unimp
 c54:	0c40                	addi	s0,sp,532
 c56:	0000                	unimp
 c58:	21ba                	fld	ft3,392(sp)
 c5a:	8000                	0x8000
 c5c:	0060                	addi	s0,sp,12
 c5e:	0000                	unimp
 c60:	0e42                	slli	t3,t3,0x10
 c62:	4430                	lw	a2,72(s0)
 c64:	0181                	addi	gp,gp,0
 c66:	0288                	addi	a0,sp,320
 c68:	0c42                	slli	s8,s8,0x10
 c6a:	0008                	0x8
 c6c:	5202                	lw	tp,32(sp)
 c6e:	42c1                	li	t0,16
 c70:	42c8                	lw	a0,4(a3)
 c72:	020d                	addi	tp,tp,3
 c74:	0020                	addi	s0,sp,8
 c76:	0000                	unimp
 c78:	0c40                	addi	s0,sp,532
 c7a:	0000                	unimp
 c7c:	221a                	fld	ft4,384(sp)
 c7e:	8000                	0x8000
 c80:	0072                	c.slli	zero,0x1c
 c82:	0000                	unimp
 c84:	0e42                	slli	t3,t3,0x10
 c86:	4430                	lw	a2,72(s0)
 c88:	0181                	addi	gp,gp,0
 c8a:	0288                	addi	a0,sp,320
 c8c:	0c42                	slli	s8,s8,0x10
 c8e:	0008                	0x8
 c90:	6402                	flw	fs0,0(sp)
 c92:	42c1                	li	t0,16
 c94:	42c8                	lw	a0,4(a3)
 c96:	020d                	addi	tp,tp,3
 c98:	0018                	0x18
 c9a:	0000                	unimp
 c9c:	0c40                	addi	s0,sp,532
 c9e:	0000                	unimp
 ca0:	228c                	fld	fa1,0(a3)
 ca2:	8000                	0x8000
 ca4:	0082                	c.slli64	ra
 ca6:	0000                	unimp
 ca8:	0e42                	slli	t3,t3,0x10
 caa:	4430                	lw	a2,72(s0)
 cac:	0181                	addi	gp,gp,0
 cae:	0288                	addi	a0,sp,320
 cb0:	0c42                	slli	s8,s8,0x10
 cb2:	0008                	0x8
